
ESLBlaster02.elf:     file format elf32-littlearm

Sections:
Idx Name          Size      VMA       LMA       File off  Algn
  0 .isr_vector   000000c0  08000000  08000000  00010000  2**0
                  CONTENTS, ALLOC, LOAD, READONLY, DATA
  1 .text         000030ec  080000c0  080000c0  000100c0  2**2
                  CONTENTS, ALLOC, LOAD, READONLY, CODE
  2 .flash_data_array 000003f2  08007c00  08007c00  00027c00  2**2
                  ALLOC
  3 .rodata       000001a4  080031ac  080031ac  000131ac  2**2
                  CONTENTS, ALLOC, LOAD, READONLY, DATA
  4 .ARM.extab    00000000  08003350  08003350  00020174  2**0
                  CONTENTS
  5 .ARM          00000000  08003350  08003350  00020174  2**0
                  CONTENTS
  6 .preinit_array 00000000  08003350  08003350  00020174  2**0
                  CONTENTS, ALLOC, LOAD, DATA
  7 .init_array   00000004  08003350  08003350  00013350  2**2
                  CONTENTS, ALLOC, LOAD, DATA
  8 .fini_array   00000004  08003354  08003354  00013354  2**2
                  CONTENTS, ALLOC, LOAD, DATA
  9 .data         00000174  20000000  08003358  00020000  2**2
                  CONTENTS, ALLOC, LOAD, DATA
 10 .bss          00000dcc  20000174  080034cc  00020174  2**2
                  ALLOC
 11 ._user_heap_stack 00000580  20000f40  080034cc  00020f40  2**0
                  ALLOC
 12 .ARM.attributes 00000028  00000000  00000000  00020174  2**0
                  CONTENTS, READONLY
 13 .comment      00000053  00000000  00000000  0002019c  2**0
                  CONTENTS, READONLY
 14 .debug_frame  0000004c  00000000  00000000  000201f0  2**2
                  CONTENTS, READONLY, DEBUGGING, OCTETS

Disassembly of section .text:

080000c0 <__do_global_dtors_aux>:
 80000c0:	b510      	push	{r4, lr}
 80000c2:	4c06      	ldr	r4, [pc, #24]	; (80000dc <__do_global_dtors_aux+0x1c>)
 80000c4:	7823      	ldrb	r3, [r4, #0]
 80000c6:	2b00      	cmp	r3, #0
 80000c8:	d107      	bne.n	80000da <__do_global_dtors_aux+0x1a>
 80000ca:	4b05      	ldr	r3, [pc, #20]	; (80000e0 <__do_global_dtors_aux+0x20>)
 80000cc:	2b00      	cmp	r3, #0
 80000ce:	d002      	beq.n	80000d6 <__do_global_dtors_aux+0x16>
 80000d0:	4804      	ldr	r0, [pc, #16]	; (80000e4 <__do_global_dtors_aux+0x24>)
 80000d2:	e000      	b.n	80000d6 <__do_global_dtors_aux+0x16>
 80000d4:	bf00      	nop
 80000d6:	2301      	movs	r3, #1
 80000d8:	7023      	strb	r3, [r4, #0]
 80000da:	bd10      	pop	{r4, pc}
 80000dc:	20000174 	.word	0x20000174
 80000e0:	00000000 	.word	0x00000000
 80000e4:	08003194 	.word	0x08003194

080000e8 <frame_dummy>:
 80000e8:	4b04      	ldr	r3, [pc, #16]	; (80000fc <frame_dummy+0x14>)
 80000ea:	b510      	push	{r4, lr}
 80000ec:	2b00      	cmp	r3, #0
 80000ee:	d003      	beq.n	80000f8 <frame_dummy+0x10>
 80000f0:	4903      	ldr	r1, [pc, #12]	; (8000100 <frame_dummy+0x18>)
 80000f2:	4804      	ldr	r0, [pc, #16]	; (8000104 <frame_dummy+0x1c>)
 80000f4:	e000      	b.n	80000f8 <frame_dummy+0x10>
 80000f6:	bf00      	nop
 80000f8:	bd10      	pop	{r4, pc}
 80000fa:	46c0      	nop			; (mov r8, r8)
 80000fc:	00000000 	.word	0x00000000
 8000100:	20000178 	.word	0x20000178
 8000104:	08003194 	.word	0x08003194

08000108 <__udivsi3>:
 8000108:	2200      	movs	r2, #0
 800010a:	0843      	lsrs	r3, r0, #1
 800010c:	428b      	cmp	r3, r1
 800010e:	d374      	bcc.n	80001fa <__udivsi3+0xf2>
 8000110:	0903      	lsrs	r3, r0, #4
 8000112:	428b      	cmp	r3, r1
 8000114:	d35f      	bcc.n	80001d6 <__udivsi3+0xce>
 8000116:	0a03      	lsrs	r3, r0, #8
 8000118:	428b      	cmp	r3, r1
 800011a:	d344      	bcc.n	80001a6 <__udivsi3+0x9e>
 800011c:	0b03      	lsrs	r3, r0, #12
 800011e:	428b      	cmp	r3, r1
 8000120:	d328      	bcc.n	8000174 <__udivsi3+0x6c>
 8000122:	0c03      	lsrs	r3, r0, #16
 8000124:	428b      	cmp	r3, r1
 8000126:	d30d      	bcc.n	8000144 <__udivsi3+0x3c>
 8000128:	22ff      	movs	r2, #255	; 0xff
 800012a:	0209      	lsls	r1, r1, #8
 800012c:	ba12      	rev	r2, r2
 800012e:	0c03      	lsrs	r3, r0, #16
 8000130:	428b      	cmp	r3, r1
 8000132:	d302      	bcc.n	800013a <__udivsi3+0x32>
 8000134:	1212      	asrs	r2, r2, #8
 8000136:	0209      	lsls	r1, r1, #8
 8000138:	d065      	beq.n	8000206 <__udivsi3+0xfe>
 800013a:	0b03      	lsrs	r3, r0, #12
 800013c:	428b      	cmp	r3, r1
 800013e:	d319      	bcc.n	8000174 <__udivsi3+0x6c>
 8000140:	e000      	b.n	8000144 <__udivsi3+0x3c>
 8000142:	0a09      	lsrs	r1, r1, #8
 8000144:	0bc3      	lsrs	r3, r0, #15
 8000146:	428b      	cmp	r3, r1
 8000148:	d301      	bcc.n	800014e <__udivsi3+0x46>
 800014a:	03cb      	lsls	r3, r1, #15
 800014c:	1ac0      	subs	r0, r0, r3
 800014e:	4152      	adcs	r2, r2
 8000150:	0b83      	lsrs	r3, r0, #14
 8000152:	428b      	cmp	r3, r1
 8000154:	d301      	bcc.n	800015a <__udivsi3+0x52>
 8000156:	038b      	lsls	r3, r1, #14
 8000158:	1ac0      	subs	r0, r0, r3
 800015a:	4152      	adcs	r2, r2
 800015c:	0b43      	lsrs	r3, r0, #13
 800015e:	428b      	cmp	r3, r1
 8000160:	d301      	bcc.n	8000166 <__udivsi3+0x5e>
 8000162:	034b      	lsls	r3, r1, #13
 8000164:	1ac0      	subs	r0, r0, r3
 8000166:	4152      	adcs	r2, r2
 8000168:	0b03      	lsrs	r3, r0, #12
 800016a:	428b      	cmp	r3, r1
 800016c:	d301      	bcc.n	8000172 <__udivsi3+0x6a>
 800016e:	030b      	lsls	r3, r1, #12
 8000170:	1ac0      	subs	r0, r0, r3
 8000172:	4152      	adcs	r2, r2
 8000174:	0ac3      	lsrs	r3, r0, #11
 8000176:	428b      	cmp	r3, r1
 8000178:	d301      	bcc.n	800017e <__udivsi3+0x76>
 800017a:	02cb      	lsls	r3, r1, #11
 800017c:	1ac0      	subs	r0, r0, r3
 800017e:	4152      	adcs	r2, r2
 8000180:	0a83      	lsrs	r3, r0, #10
 8000182:	428b      	cmp	r3, r1
 8000184:	d301      	bcc.n	800018a <__udivsi3+0x82>
 8000186:	028b      	lsls	r3, r1, #10
 8000188:	1ac0      	subs	r0, r0, r3
 800018a:	4152      	adcs	r2, r2
 800018c:	0a43      	lsrs	r3, r0, #9
 800018e:	428b      	cmp	r3, r1
 8000190:	d301      	bcc.n	8000196 <__udivsi3+0x8e>
 8000192:	024b      	lsls	r3, r1, #9
 8000194:	1ac0      	subs	r0, r0, r3
 8000196:	4152      	adcs	r2, r2
 8000198:	0a03      	lsrs	r3, r0, #8
 800019a:	428b      	cmp	r3, r1
 800019c:	d301      	bcc.n	80001a2 <__udivsi3+0x9a>
 800019e:	020b      	lsls	r3, r1, #8
 80001a0:	1ac0      	subs	r0, r0, r3
 80001a2:	4152      	adcs	r2, r2
 80001a4:	d2cd      	bcs.n	8000142 <__udivsi3+0x3a>
 80001a6:	09c3      	lsrs	r3, r0, #7
 80001a8:	428b      	cmp	r3, r1
 80001aa:	d301      	bcc.n	80001b0 <__udivsi3+0xa8>
 80001ac:	01cb      	lsls	r3, r1, #7
 80001ae:	1ac0      	subs	r0, r0, r3
 80001b0:	4152      	adcs	r2, r2
 80001b2:	0983      	lsrs	r3, r0, #6
 80001b4:	428b      	cmp	r3, r1
 80001b6:	d301      	bcc.n	80001bc <__udivsi3+0xb4>
 80001b8:	018b      	lsls	r3, r1, #6
 80001ba:	1ac0      	subs	r0, r0, r3
 80001bc:	4152      	adcs	r2, r2
 80001be:	0943      	lsrs	r3, r0, #5
 80001c0:	428b      	cmp	r3, r1
 80001c2:	d301      	bcc.n	80001c8 <__udivsi3+0xc0>
 80001c4:	014b      	lsls	r3, r1, #5
 80001c6:	1ac0      	subs	r0, r0, r3
 80001c8:	4152      	adcs	r2, r2
 80001ca:	0903      	lsrs	r3, r0, #4
 80001cc:	428b      	cmp	r3, r1
 80001ce:	d301      	bcc.n	80001d4 <__udivsi3+0xcc>
 80001d0:	010b      	lsls	r3, r1, #4
 80001d2:	1ac0      	subs	r0, r0, r3
 80001d4:	4152      	adcs	r2, r2
 80001d6:	08c3      	lsrs	r3, r0, #3
 80001d8:	428b      	cmp	r3, r1
 80001da:	d301      	bcc.n	80001e0 <__udivsi3+0xd8>
 80001dc:	00cb      	lsls	r3, r1, #3
 80001de:	1ac0      	subs	r0, r0, r3
 80001e0:	4152      	adcs	r2, r2
 80001e2:	0883      	lsrs	r3, r0, #2
 80001e4:	428b      	cmp	r3, r1
 80001e6:	d301      	bcc.n	80001ec <__udivsi3+0xe4>
 80001e8:	008b      	lsls	r3, r1, #2
 80001ea:	1ac0      	subs	r0, r0, r3
 80001ec:	4152      	adcs	r2, r2
 80001ee:	0843      	lsrs	r3, r0, #1
 80001f0:	428b      	cmp	r3, r1
 80001f2:	d301      	bcc.n	80001f8 <__udivsi3+0xf0>
 80001f4:	004b      	lsls	r3, r1, #1
 80001f6:	1ac0      	subs	r0, r0, r3
 80001f8:	4152      	adcs	r2, r2
 80001fa:	1a41      	subs	r1, r0, r1
 80001fc:	d200      	bcs.n	8000200 <__udivsi3+0xf8>
 80001fe:	4601      	mov	r1, r0
 8000200:	4152      	adcs	r2, r2
 8000202:	4610      	mov	r0, r2
 8000204:	4770      	bx	lr
 8000206:	e7ff      	b.n	8000208 <__udivsi3+0x100>
 8000208:	b501      	push	{r0, lr}
 800020a:	2000      	movs	r0, #0
 800020c:	f000 f806 	bl	800021c <__aeabi_idiv0>
 8000210:	bd02      	pop	{r1, pc}
 8000212:	46c0      	nop			; (mov r8, r8)

08000214 <__aeabi_uidivmod>:
 8000214:	2900      	cmp	r1, #0
 8000216:	d0f7      	beq.n	8000208 <__udivsi3+0x100>
 8000218:	e776      	b.n	8000108 <__udivsi3>
 800021a:	4770      	bx	lr

0800021c <__aeabi_idiv0>:
 800021c:	4770      	bx	lr
 800021e:	46c0      	nop			; (mov r8, r8)

08000220 <HAL_InitTick>:
 8000220:	b510      	push	{r4, lr}
 8000222:	0004      	movs	r4, r0
 8000224:	f001 fa90 	bl	8001748 <HAL_RCC_GetHCLKFreq>
 8000228:	21fa      	movs	r1, #250	; 0xfa
 800022a:	0089      	lsls	r1, r1, #2
 800022c:	f7ff ff6c 	bl	8000108 <__udivsi3>
 8000230:	f000 f85c 	bl	80002ec <HAL_SYSTICK_Config>
 8000234:	2001      	movs	r0, #1
 8000236:	2200      	movs	r2, #0
 8000238:	0021      	movs	r1, r4
 800023a:	4240      	negs	r0, r0
 800023c:	f000 f81a 	bl	8000274 <HAL_NVIC_SetPriority>
 8000240:	2000      	movs	r0, #0
 8000242:	bd10      	pop	{r4, pc}

08000244 <HAL_Init>:
 8000244:	b510      	push	{r4, lr}
 8000246:	4a06      	ldr	r2, [pc, #24]	; (8000260 <HAL_Init+0x1c>)
 8000248:	6813      	ldr	r3, [r2, #0]
 800024a:	2110      	movs	r1, #16
 800024c:	430b      	orrs	r3, r1
 800024e:	6013      	str	r3, [r2, #0]
 8000250:	2000      	movs	r0, #0
 8000252:	f7ff ffe5 	bl	8000220 <HAL_InitTick>
 8000256:	f002 fcab 	bl	8002bb0 <HAL_MspInit>
 800025a:	2000      	movs	r0, #0
 800025c:	bd10      	pop	{r4, pc}
 800025e:	46c0      	nop			; (mov r8, r8)
 8000260:	40022000 	.word	0x40022000

08000264 <HAL_IncTick>:
 8000264:	4a02      	ldr	r2, [pc, #8]	; (8000270 <HAL_IncTick+0xc>)
 8000266:	6813      	ldr	r3, [r2, #0]
 8000268:	3301      	adds	r3, #1
 800026a:	6013      	str	r3, [r2, #0]
 800026c:	4770      	bx	lr
 800026e:	46c0      	nop			; (mov r8, r8)
 8000270:	200004cc 	.word	0x200004cc

08000274 <HAL_NVIC_SetPriority>:
 8000274:	b570      	push	{r4, r5, r6, lr}
 8000276:	2800      	cmp	r0, #0
 8000278:	db14      	blt.n	80002a4 <HAL_NVIC_SetPriority+0x30>
 800027a:	0884      	lsrs	r4, r0, #2
 800027c:	00a4      	lsls	r4, r4, #2
 800027e:	4b14      	ldr	r3, [pc, #80]	; (80002d0 <HAL_NVIC_SetPriority+0x5c>)
 8000280:	469c      	mov	ip, r3
 8000282:	4464      	add	r4, ip
 8000284:	26c0      	movs	r6, #192	; 0xc0
 8000286:	00b6      	lsls	r6, r6, #2
 8000288:	59a5      	ldr	r5, [r4, r6]
 800028a:	2203      	movs	r2, #3
 800028c:	4010      	ands	r0, r2
 800028e:	00c0      	lsls	r0, r0, #3
 8000290:	23ff      	movs	r3, #255	; 0xff
 8000292:	001a      	movs	r2, r3
 8000294:	4082      	lsls	r2, r0
 8000296:	4395      	bics	r5, r2
 8000298:	0189      	lsls	r1, r1, #6
 800029a:	400b      	ands	r3, r1
 800029c:	4083      	lsls	r3, r0
 800029e:	432b      	orrs	r3, r5
 80002a0:	51a3      	str	r3, [r4, r6]
 80002a2:	bd70      	pop	{r4, r5, r6, pc}
 80002a4:	230f      	movs	r3, #15
 80002a6:	4003      	ands	r3, r0
 80002a8:	3b08      	subs	r3, #8
 80002aa:	089b      	lsrs	r3, r3, #2
 80002ac:	009b      	lsls	r3, r3, #2
 80002ae:	4a09      	ldr	r2, [pc, #36]	; (80002d4 <HAL_NVIC_SetPriority+0x60>)
 80002b0:	4694      	mov	ip, r2
 80002b2:	4463      	add	r3, ip
 80002b4:	69dd      	ldr	r5, [r3, #28]
 80002b6:	2403      	movs	r4, #3
 80002b8:	4020      	ands	r0, r4
 80002ba:	00c0      	lsls	r0, r0, #3
 80002bc:	22ff      	movs	r2, #255	; 0xff
 80002be:	0014      	movs	r4, r2
 80002c0:	4084      	lsls	r4, r0
 80002c2:	43a5      	bics	r5, r4
 80002c4:	0189      	lsls	r1, r1, #6
 80002c6:	400a      	ands	r2, r1
 80002c8:	4082      	lsls	r2, r0
 80002ca:	432a      	orrs	r2, r5
 80002cc:	61da      	str	r2, [r3, #28]
 80002ce:	e7e8      	b.n	80002a2 <HAL_NVIC_SetPriority+0x2e>
 80002d0:	e000e100 	.word	0xe000e100
 80002d4:	e000ed00 	.word	0xe000ed00

080002d8 <HAL_NVIC_EnableIRQ>:
 80002d8:	231f      	movs	r3, #31
 80002da:	4018      	ands	r0, r3
 80002dc:	3b1e      	subs	r3, #30
 80002de:	4083      	lsls	r3, r0
 80002e0:	4a01      	ldr	r2, [pc, #4]	; (80002e8 <HAL_NVIC_EnableIRQ+0x10>)
 80002e2:	6013      	str	r3, [r2, #0]
 80002e4:	4770      	bx	lr
 80002e6:	46c0      	nop			; (mov r8, r8)
 80002e8:	e000e100 	.word	0xe000e100

080002ec <HAL_SYSTICK_Config>:
 80002ec:	3801      	subs	r0, #1
 80002ee:	2380      	movs	r3, #128	; 0x80
 80002f0:	045b      	lsls	r3, r3, #17
 80002f2:	4298      	cmp	r0, r3
 80002f4:	d20f      	bcs.n	8000316 <HAL_SYSTICK_Config+0x2a>
 80002f6:	4a09      	ldr	r2, [pc, #36]	; (800031c <HAL_SYSTICK_Config+0x30>)
 80002f8:	6050      	str	r0, [r2, #4]
 80002fa:	4809      	ldr	r0, [pc, #36]	; (8000320 <HAL_SYSTICK_Config+0x34>)
 80002fc:	6a03      	ldr	r3, [r0, #32]
 80002fe:	021b      	lsls	r3, r3, #8
 8000300:	0a1b      	lsrs	r3, r3, #8
 8000302:	21c0      	movs	r1, #192	; 0xc0
 8000304:	0609      	lsls	r1, r1, #24
 8000306:	430b      	orrs	r3, r1
 8000308:	6203      	str	r3, [r0, #32]
 800030a:	2300      	movs	r3, #0
 800030c:	6093      	str	r3, [r2, #8]
 800030e:	3307      	adds	r3, #7
 8000310:	6013      	str	r3, [r2, #0]
 8000312:	2000      	movs	r0, #0
 8000314:	4770      	bx	lr
 8000316:	2001      	movs	r0, #1
 8000318:	e7fc      	b.n	8000314 <HAL_SYSTICK_Config+0x28>
 800031a:	46c0      	nop			; (mov r8, r8)
 800031c:	e000e010 	.word	0xe000e010
 8000320:	e000ed00 	.word	0xe000ed00

08000324 <HAL_GPIO_Init>:
 8000324:	b5f0      	push	{r4, r5, r6, r7, lr}
 8000326:	46de      	mov	lr, fp
 8000328:	4657      	mov	r7, sl
 800032a:	464e      	mov	r6, r9
 800032c:	4645      	mov	r5, r8
 800032e:	b5e0      	push	{r5, r6, r7, lr}
 8000330:	b087      	sub	sp, #28
 8000332:	680a      	ldr	r2, [r1, #0]
 8000334:	2a00      	cmp	r2, #0
 8000336:	d100      	bne.n	800033a <HAL_GPIO_Init+0x16>
 8000338:	e0c7      	b.n	80004ca <HAL_GPIO_Init+0x1a6>
 800033a:	2300      	movs	r3, #0
 800033c:	2601      	movs	r6, #1
 800033e:	2410      	movs	r4, #16
 8000340:	46a2      	mov	sl, r4
 8000342:	3c0d      	subs	r4, #13
 8000344:	46a1      	mov	r9, r4
 8000346:	2480      	movs	r4, #128	; 0x80
 8000348:	0564      	lsls	r4, r4, #21
 800034a:	46a3      	mov	fp, r4
 800034c:	4c62      	ldr	r4, [pc, #392]	; (80004d8 <HAL_GPIO_Init+0x1b4>)
 800034e:	1904      	adds	r4, r0, r4
 8000350:	4265      	negs	r5, r4
 8000352:	416c      	adcs	r4, r5
 8000354:	4264      	negs	r4, r4
 8000356:	9403      	str	r4, [sp, #12]
 8000358:	e043      	b.n	80003e2 <HAL_GPIO_Init+0xbe>
 800035a:	08da      	lsrs	r2, r3, #3
 800035c:	0092      	lsls	r2, r2, #2
 800035e:	1882      	adds	r2, r0, r2
 8000360:	9202      	str	r2, [sp, #8]
 8000362:	6a15      	ldr	r5, [r2, #32]
 8000364:	46ac      	mov	ip, r5
 8000366:	2507      	movs	r5, #7
 8000368:	401d      	ands	r5, r3
 800036a:	00ad      	lsls	r5, r5, #2
 800036c:	270f      	movs	r7, #15
 800036e:	40af      	lsls	r7, r5
 8000370:	46b8      	mov	r8, r7
 8000372:	4667      	mov	r7, ip
 8000374:	4642      	mov	r2, r8
 8000376:	4397      	bics	r7, r2
 8000378:	46bc      	mov	ip, r7
 800037a:	690f      	ldr	r7, [r1, #16]
 800037c:	40af      	lsls	r7, r5
 800037e:	003d      	movs	r5, r7
 8000380:	4662      	mov	r2, ip
 8000382:	4315      	orrs	r5, r2
 8000384:	9a02      	ldr	r2, [sp, #8]
 8000386:	6215      	str	r5, [r2, #32]
 8000388:	e037      	b.n	80003fa <HAL_GPIO_Init+0xd6>
 800038a:	2400      	movs	r4, #0
 800038c:	40ac      	lsls	r4, r5
 800038e:	4665      	mov	r5, ip
 8000390:	432c      	orrs	r4, r5
 8000392:	6094      	str	r4, [r2, #8]
 8000394:	4a51      	ldr	r2, [pc, #324]	; (80004dc <HAL_GPIO_Init+0x1b8>)
 8000396:	6812      	ldr	r2, [r2, #0]
 8000398:	9c01      	ldr	r4, [sp, #4]
 800039a:	43e4      	mvns	r4, r4
 800039c:	684d      	ldr	r5, [r1, #4]
 800039e:	03ed      	lsls	r5, r5, #15
 80003a0:	d500      	bpl.n	80003a4 <HAL_GPIO_Init+0x80>
 80003a2:	e086      	b.n	80004b2 <HAL_GPIO_Init+0x18e>
 80003a4:	4022      	ands	r2, r4
 80003a6:	4d4d      	ldr	r5, [pc, #308]	; (80004dc <HAL_GPIO_Init+0x1b8>)
 80003a8:	602a      	str	r2, [r5, #0]
 80003aa:	686a      	ldr	r2, [r5, #4]
 80003ac:	684d      	ldr	r5, [r1, #4]
 80003ae:	03ad      	lsls	r5, r5, #14
 80003b0:	d500      	bpl.n	80003b4 <HAL_GPIO_Init+0x90>
 80003b2:	e081      	b.n	80004b8 <HAL_GPIO_Init+0x194>
 80003b4:	4022      	ands	r2, r4
 80003b6:	4d49      	ldr	r5, [pc, #292]	; (80004dc <HAL_GPIO_Init+0x1b8>)
 80003b8:	606a      	str	r2, [r5, #4]
 80003ba:	68aa      	ldr	r2, [r5, #8]
 80003bc:	684d      	ldr	r5, [r1, #4]
 80003be:	02ed      	lsls	r5, r5, #11
 80003c0:	d47d      	bmi.n	80004be <HAL_GPIO_Init+0x19a>
 80003c2:	4022      	ands	r2, r4
 80003c4:	4d45      	ldr	r5, [pc, #276]	; (80004dc <HAL_GPIO_Init+0x1b8>)
 80003c6:	60aa      	str	r2, [r5, #8]
 80003c8:	68ea      	ldr	r2, [r5, #12]
 80003ca:	684d      	ldr	r5, [r1, #4]
 80003cc:	02ad      	lsls	r5, r5, #10
 80003ce:	d479      	bmi.n	80004c4 <HAL_GPIO_Init+0x1a0>
 80003d0:	4022      	ands	r2, r4
 80003d2:	0017      	movs	r7, r2
 80003d4:	4a41      	ldr	r2, [pc, #260]	; (80004dc <HAL_GPIO_Init+0x1b8>)
 80003d6:	60d7      	str	r7, [r2, #12]
 80003d8:	3301      	adds	r3, #1
 80003da:	680a      	ldr	r2, [r1, #0]
 80003dc:	0014      	movs	r4, r2
 80003de:	40dc      	lsrs	r4, r3
 80003e0:	d073      	beq.n	80004ca <HAL_GPIO_Init+0x1a6>
 80003e2:	0034      	movs	r4, r6
 80003e4:	409c      	lsls	r4, r3
 80003e6:	0017      	movs	r7, r2
 80003e8:	4027      	ands	r7, r4
 80003ea:	9701      	str	r7, [sp, #4]
 80003ec:	4222      	tst	r2, r4
 80003ee:	d0f3      	beq.n	80003d8 <HAL_GPIO_Init+0xb4>
 80003f0:	684a      	ldr	r2, [r1, #4]
 80003f2:	4655      	mov	r5, sl
 80003f4:	43aa      	bics	r2, r5
 80003f6:	2a02      	cmp	r2, #2
 80003f8:	d0af      	beq.n	800035a <HAL_GPIO_Init+0x36>
 80003fa:	6802      	ldr	r2, [r0, #0]
 80003fc:	4690      	mov	r8, r2
 80003fe:	005d      	lsls	r5, r3, #1
 8000400:	464a      	mov	r2, r9
 8000402:	40aa      	lsls	r2, r5
 8000404:	43d7      	mvns	r7, r2
 8000406:	46bc      	mov	ip, r7
 8000408:	4647      	mov	r7, r8
 800040a:	4397      	bics	r7, r2
 800040c:	46b8      	mov	r8, r7
 800040e:	684a      	ldr	r2, [r1, #4]
 8000410:	464f      	mov	r7, r9
 8000412:	403a      	ands	r2, r7
 8000414:	40aa      	lsls	r2, r5
 8000416:	4647      	mov	r7, r8
 8000418:	433a      	orrs	r2, r7
 800041a:	6002      	str	r2, [r0, #0]
 800041c:	684a      	ldr	r2, [r1, #4]
 800041e:	4657      	mov	r7, sl
 8000420:	43ba      	bics	r2, r7
 8000422:	3a01      	subs	r2, #1
 8000424:	2a01      	cmp	r2, #1
 8000426:	d80f      	bhi.n	8000448 <HAL_GPIO_Init+0x124>
 8000428:	6882      	ldr	r2, [r0, #8]
 800042a:	4667      	mov	r7, ip
 800042c:	4017      	ands	r7, r2
 800042e:	68ca      	ldr	r2, [r1, #12]
 8000430:	40aa      	lsls	r2, r5
 8000432:	433a      	orrs	r2, r7
 8000434:	6082      	str	r2, [r0, #8]
 8000436:	6842      	ldr	r2, [r0, #4]
 8000438:	43a2      	bics	r2, r4
 800043a:	0014      	movs	r4, r2
 800043c:	684a      	ldr	r2, [r1, #4]
 800043e:	0912      	lsrs	r2, r2, #4
 8000440:	4032      	ands	r2, r6
 8000442:	409a      	lsls	r2, r3
 8000444:	4322      	orrs	r2, r4
 8000446:	6042      	str	r2, [r0, #4]
 8000448:	68c4      	ldr	r4, [r0, #12]
 800044a:	4662      	mov	r2, ip
 800044c:	4014      	ands	r4, r2
 800044e:	688a      	ldr	r2, [r1, #8]
 8000450:	40aa      	lsls	r2, r5
 8000452:	4322      	orrs	r2, r4
 8000454:	60c2      	str	r2, [r0, #12]
 8000456:	684a      	ldr	r2, [r1, #4]
 8000458:	465c      	mov	r4, fp
 800045a:	4222      	tst	r2, r4
 800045c:	d0bc      	beq.n	80003d8 <HAL_GPIO_Init+0xb4>
 800045e:	4a20      	ldr	r2, [pc, #128]	; (80004e0 <HAL_GPIO_Init+0x1bc>)
 8000460:	6994      	ldr	r4, [r2, #24]
 8000462:	4334      	orrs	r4, r6
 8000464:	6194      	str	r4, [r2, #24]
 8000466:	6992      	ldr	r2, [r2, #24]
 8000468:	4032      	ands	r2, r6
 800046a:	9205      	str	r2, [sp, #20]
 800046c:	9a05      	ldr	r2, [sp, #20]
 800046e:	089a      	lsrs	r2, r3, #2
 8000470:	0092      	lsls	r2, r2, #2
 8000472:	4c1c      	ldr	r4, [pc, #112]	; (80004e4 <HAL_GPIO_Init+0x1c0>)
 8000474:	46a4      	mov	ip, r4
 8000476:	4462      	add	r2, ip
 8000478:	6894      	ldr	r4, [r2, #8]
 800047a:	46a4      	mov	ip, r4
 800047c:	464d      	mov	r5, r9
 800047e:	401d      	ands	r5, r3
 8000480:	00ad      	lsls	r5, r5, #2
 8000482:	240f      	movs	r4, #15
 8000484:	40ac      	lsls	r4, r5
 8000486:	4667      	mov	r7, ip
 8000488:	43a7      	bics	r7, r4
 800048a:	46bc      	mov	ip, r7
 800048c:	2490      	movs	r4, #144	; 0x90
 800048e:	05e4      	lsls	r4, r4, #23
 8000490:	42a0      	cmp	r0, r4
 8000492:	d100      	bne.n	8000496 <HAL_GPIO_Init+0x172>
 8000494:	e779      	b.n	800038a <HAL_GPIO_Init+0x66>
 8000496:	4c14      	ldr	r4, [pc, #80]	; (80004e8 <HAL_GPIO_Init+0x1c4>)
 8000498:	42a0      	cmp	r0, r4
 800049a:	d006      	beq.n	80004aa <HAL_GPIO_Init+0x186>
 800049c:	4c13      	ldr	r4, [pc, #76]	; (80004ec <HAL_GPIO_Init+0x1c8>)
 800049e:	42a0      	cmp	r0, r4
 80004a0:	d005      	beq.n	80004ae <HAL_GPIO_Init+0x18a>
 80004a2:	9c03      	ldr	r4, [sp, #12]
 80004a4:	43b4      	bics	r4, r6
 80004a6:	3405      	adds	r4, #5
 80004a8:	e770      	b.n	800038c <HAL_GPIO_Init+0x68>
 80004aa:	2401      	movs	r4, #1
 80004ac:	e76e      	b.n	800038c <HAL_GPIO_Init+0x68>
 80004ae:	2402      	movs	r4, #2
 80004b0:	e76c      	b.n	800038c <HAL_GPIO_Init+0x68>
 80004b2:	9d01      	ldr	r5, [sp, #4]
 80004b4:	432a      	orrs	r2, r5
 80004b6:	e776      	b.n	80003a6 <HAL_GPIO_Init+0x82>
 80004b8:	9d01      	ldr	r5, [sp, #4]
 80004ba:	432a      	orrs	r2, r5
 80004bc:	e77b      	b.n	80003b6 <HAL_GPIO_Init+0x92>
 80004be:	9d01      	ldr	r5, [sp, #4]
 80004c0:	432a      	orrs	r2, r5
 80004c2:	e77f      	b.n	80003c4 <HAL_GPIO_Init+0xa0>
 80004c4:	9f01      	ldr	r7, [sp, #4]
 80004c6:	4317      	orrs	r7, r2
 80004c8:	e784      	b.n	80003d4 <HAL_GPIO_Init+0xb0>
 80004ca:	b007      	add	sp, #28
 80004cc:	bcf0      	pop	{r4, r5, r6, r7}
 80004ce:	46bb      	mov	fp, r7
 80004d0:	46b2      	mov	sl, r6
 80004d2:	46a9      	mov	r9, r5
 80004d4:	46a0      	mov	r8, r4
 80004d6:	bdf0      	pop	{r4, r5, r6, r7, pc}
 80004d8:	b7fff400 	.word	0xb7fff400
 80004dc:	40010400 	.word	0x40010400
 80004e0:	40021000 	.word	0x40021000
 80004e4:	40010000 	.word	0x40010000
 80004e8:	48000400 	.word	0x48000400
 80004ec:	48000800 	.word	0x48000800

080004f0 <HAL_GPIO_WritePin>:
 80004f0:	2a00      	cmp	r2, #0
 80004f2:	d001      	beq.n	80004f8 <HAL_GPIO_WritePin+0x8>
 80004f4:	6181      	str	r1, [r0, #24]
 80004f6:	4770      	bx	lr
 80004f8:	6281      	str	r1, [r0, #40]	; 0x28
 80004fa:	e7fc      	b.n	80004f6 <HAL_GPIO_WritePin+0x6>

080004fc <HAL_PCD_Init>:
 80004fc:	b570      	push	{r4, r5, r6, lr}
 80004fe:	1e05      	subs	r5, r0, #0
 8000500:	d049      	beq.n	8000596 <HAL_PCD_Init+0x9a>
 8000502:	23ea      	movs	r3, #234	; 0xea
 8000504:	33ff      	adds	r3, #255	; 0xff
 8000506:	5cc3      	ldrb	r3, [r0, r3]
 8000508:	2b00      	cmp	r3, #0
 800050a:	d03d      	beq.n	8000588 <HAL_PCD_Init+0x8c>
 800050c:	23ea      	movs	r3, #234	; 0xea
 800050e:	33ff      	adds	r3, #255	; 0xff
 8000510:	2203      	movs	r2, #3
 8000512:	54ea      	strb	r2, [r5, r3]
 8000514:	686c      	ldr	r4, [r5, #4]
 8000516:	2c00      	cmp	r4, #0
 8000518:	d01d      	beq.n	8000556 <HAL_PCD_Init+0x5a>
 800051a:	002b      	movs	r3, r5
 800051c:	3328      	adds	r3, #40	; 0x28
 800051e:	2100      	movs	r1, #0
 8000520:	2001      	movs	r0, #1
 8000522:	2200      	movs	r2, #0
 8000524:	7058      	strb	r0, [r3, #1]
 8000526:	7019      	strb	r1, [r3, #0]
 8000528:	70da      	strb	r2, [r3, #3]
 800052a:	60da      	str	r2, [r3, #12]
 800052c:	611a      	str	r2, [r3, #16]
 800052e:	615a      	str	r2, [r3, #20]
 8000530:	3101      	adds	r1, #1
 8000532:	331c      	adds	r3, #28
 8000534:	42a1      	cmp	r1, r4
 8000536:	d1f5      	bne.n	8000524 <HAL_PCD_Init+0x28>
 8000538:	002b      	movs	r3, r5
 800053a:	3309      	adds	r3, #9
 800053c:	33ff      	adds	r3, #255	; 0xff
 800053e:	2100      	movs	r1, #0
 8000540:	2200      	movs	r2, #0
 8000542:	705a      	strb	r2, [r3, #1]
 8000544:	7019      	strb	r1, [r3, #0]
 8000546:	70da      	strb	r2, [r3, #3]
 8000548:	60da      	str	r2, [r3, #12]
 800054a:	611a      	str	r2, [r3, #16]
 800054c:	615a      	str	r2, [r3, #20]
 800054e:	3101      	adds	r1, #1
 8000550:	331c      	adds	r3, #28
 8000552:	42a1      	cmp	r1, r4
 8000554:	d1f5      	bne.n	8000542 <HAL_PCD_Init+0x46>
 8000556:	2340      	movs	r3, #64	; 0x40
 8000558:	2201      	movs	r2, #1
 800055a:	6829      	ldr	r1, [r5, #0]
 800055c:	52ca      	strh	r2, [r1, r3]
 800055e:	2200      	movs	r2, #0
 8000560:	6829      	ldr	r1, [r5, #0]
 8000562:	52ca      	strh	r2, [r1, r3]
 8000564:	2144      	movs	r1, #68	; 0x44
 8000566:	6828      	ldr	r0, [r5, #0]
 8000568:	5242      	strh	r2, [r0, r1]
 800056a:	310c      	adds	r1, #12
 800056c:	6828      	ldr	r0, [r5, #0]
 800056e:	5242      	strh	r2, [r0, r1]
 8000570:	4a0a      	ldr	r2, [pc, #40]	; (800059c <HAL_PCD_Init+0xa0>)
 8000572:	6829      	ldr	r1, [r5, #0]
 8000574:	52ca      	strh	r2, [r1, r3]
 8000576:	2200      	movs	r2, #0
 8000578:	3b1c      	subs	r3, #28
 800057a:	54ea      	strb	r2, [r5, r3]
 800057c:	2201      	movs	r2, #1
 800057e:	23ea      	movs	r3, #234	; 0xea
 8000580:	33ff      	adds	r3, #255	; 0xff
 8000582:	54ea      	strb	r2, [r5, r3]
 8000584:	2000      	movs	r0, #0
 8000586:	bd70      	pop	{r4, r5, r6, pc}
 8000588:	33e9      	adds	r3, #233	; 0xe9
 800058a:	33ff      	adds	r3, #255	; 0xff
 800058c:	2200      	movs	r2, #0
 800058e:	54c2      	strb	r2, [r0, r3]
 8000590:	f002 fc04 	bl	8002d9c <HAL_PCD_MspInit>
 8000594:	e7ba      	b.n	800050c <HAL_PCD_Init+0x10>
 8000596:	2001      	movs	r0, #1
 8000598:	e7f5      	b.n	8000586 <HAL_PCD_Init+0x8a>
 800059a:	46c0      	nop			; (mov r8, r8)
 800059c:	ffffbf00 	.word	0xffffbf00

080005a0 <HAL_PCD_Start>:
 80005a0:	6801      	ldr	r1, [r0, #0]
 80005a2:	2258      	movs	r2, #88	; 0x58
 80005a4:	5a8b      	ldrh	r3, [r1, r2]
 80005a6:	2080      	movs	r0, #128	; 0x80
 80005a8:	0200      	lsls	r0, r0, #8
 80005aa:	4303      	orrs	r3, r0
 80005ac:	528b      	strh	r3, [r1, r2]
 80005ae:	2000      	movs	r0, #0
 80005b0:	4770      	bx	lr

080005b2 <HAL_PCD_SetAddress>:
 80005b2:	23f4      	movs	r3, #244	; 0xf4
 80005b4:	005b      	lsls	r3, r3, #1
 80005b6:	5cc3      	ldrb	r3, [r0, r3]
 80005b8:	2b01      	cmp	r3, #1
 80005ba:	d013      	beq.n	80005e4 <HAL_PCD_SetAddress+0x32>
 80005bc:	23f4      	movs	r3, #244	; 0xf4
 80005be:	005b      	lsls	r3, r3, #1
 80005c0:	2201      	movs	r2, #1
 80005c2:	54c2      	strb	r2, [r0, r3]
 80005c4:	2900      	cmp	r1, #0
 80005c6:	d10a      	bne.n	80005de <HAL_PCD_SetAddress+0x2c>
 80005c8:	3b9d      	subs	r3, #157	; 0x9d
 80005ca:	3bff      	subs	r3, #255	; 0xff
 80005cc:	327f      	adds	r2, #127	; 0x7f
 80005ce:	6801      	ldr	r1, [r0, #0]
 80005d0:	52ca      	strh	r2, [r1, r3]
 80005d2:	23f4      	movs	r3, #244	; 0xf4
 80005d4:	005b      	lsls	r3, r3, #1
 80005d6:	2200      	movs	r2, #0
 80005d8:	54c2      	strb	r2, [r0, r3]
 80005da:	2000      	movs	r0, #0
 80005dc:	4770      	bx	lr
 80005de:	2324      	movs	r3, #36	; 0x24
 80005e0:	54c1      	strb	r1, [r0, r3]
 80005e2:	e7f6      	b.n	80005d2 <HAL_PCD_SetAddress+0x20>
 80005e4:	2002      	movs	r0, #2
 80005e6:	e7f9      	b.n	80005dc <HAL_PCD_SetAddress+0x2a>

080005e8 <HAL_PCD_EP_Open>:
 80005e8:	b570      	push	{r4, r5, r6, lr}
 80005ea:	b24d      	sxtb	r5, r1
 80005ec:	2d00      	cmp	r5, #0
 80005ee:	db29      	blt.n	8000644 <HAL_PCD_EP_Open+0x5c>
 80005f0:	267f      	movs	r6, #127	; 0x7f
 80005f2:	400e      	ands	r6, r1
 80005f4:	00f4      	lsls	r4, r6, #3
 80005f6:	1ba4      	subs	r4, r4, r6
 80005f8:	00a4      	lsls	r4, r4, #2
 80005fa:	3409      	adds	r4, #9
 80005fc:	34ff      	adds	r4, #255	; 0xff
 80005fe:	1904      	adds	r4, r0, r4
 8000600:	267f      	movs	r6, #127	; 0x7f
 8000602:	4031      	ands	r1, r6
 8000604:	7021      	strb	r1, [r4, #0]
 8000606:	0fed      	lsrs	r5, r5, #31
 8000608:	7065      	strb	r5, [r4, #1]
 800060a:	60e2      	str	r2, [r4, #12]
 800060c:	70e3      	strb	r3, [r4, #3]
 800060e:	23f4      	movs	r3, #244	; 0xf4
 8000610:	005b      	lsls	r3, r3, #1
 8000612:	5cc3      	ldrb	r3, [r0, r3]
 8000614:	2b01      	cmp	r3, #1
 8000616:	d100      	bne.n	800061a <HAL_PCD_EP_Open+0x32>
 8000618:	e14d      	b.n	80008b6 <HAL_PCD_EP_Open+0x2ce>
 800061a:	23f4      	movs	r3, #244	; 0xf4
 800061c:	005b      	lsls	r3, r3, #1
 800061e:	2201      	movs	r2, #1
 8000620:	54c2      	strb	r2, [r0, r3]
 8000622:	78e3      	ldrb	r3, [r4, #3]
 8000624:	2b02      	cmp	r3, #2
 8000626:	d100      	bne.n	800062a <HAL_PCD_EP_Open+0x42>
 8000628:	e065      	b.n	80006f6 <HAL_PCD_EP_Open+0x10e>
 800062a:	d813      	bhi.n	8000654 <HAL_PCD_EP_Open+0x6c>
 800062c:	2b00      	cmp	r3, #0
 800062e:	d01d      	beq.n	800066c <HAL_PCD_EP_Open+0x84>
 8000630:	7823      	ldrb	r3, [r4, #0]
 8000632:	009b      	lsls	r3, r3, #2
 8000634:	6805      	ldr	r5, [r0, #0]
 8000636:	5aea      	ldrh	r2, [r5, r3]
 8000638:	49a0      	ldr	r1, [pc, #640]	; (80008bc <HAL_PCD_EP_Open+0x2d4>)
 800063a:	4011      	ands	r1, r2
 800063c:	4aa0      	ldr	r2, [pc, #640]	; (80008c0 <HAL_PCD_EP_Open+0x2d8>)
 800063e:	430a      	orrs	r2, r1
 8000640:	52ea      	strh	r2, [r5, r3]
 8000642:	e01c      	b.n	800067e <HAL_PCD_EP_Open+0x96>
 8000644:	267f      	movs	r6, #127	; 0x7f
 8000646:	400e      	ands	r6, r1
 8000648:	00f4      	lsls	r4, r6, #3
 800064a:	1ba4      	subs	r4, r4, r6
 800064c:	00a4      	lsls	r4, r4, #2
 800064e:	3428      	adds	r4, #40	; 0x28
 8000650:	1904      	adds	r4, r0, r4
 8000652:	e7d5      	b.n	8000600 <HAL_PCD_EP_Open+0x18>
 8000654:	2b03      	cmp	r3, #3
 8000656:	d112      	bne.n	800067e <HAL_PCD_EP_Open+0x96>
 8000658:	7823      	ldrb	r3, [r4, #0]
 800065a:	009b      	lsls	r3, r3, #2
 800065c:	6805      	ldr	r5, [r0, #0]
 800065e:	5aea      	ldrh	r2, [r5, r3]
 8000660:	4996      	ldr	r1, [pc, #600]	; (80008bc <HAL_PCD_EP_Open+0x2d4>)
 8000662:	4011      	ands	r1, r2
 8000664:	4a97      	ldr	r2, [pc, #604]	; (80008c4 <HAL_PCD_EP_Open+0x2dc>)
 8000666:	430a      	orrs	r2, r1
 8000668:	52ea      	strh	r2, [r5, r3]
 800066a:	e008      	b.n	800067e <HAL_PCD_EP_Open+0x96>
 800066c:	7823      	ldrb	r3, [r4, #0]
 800066e:	009b      	lsls	r3, r3, #2
 8000670:	6805      	ldr	r5, [r0, #0]
 8000672:	5aea      	ldrh	r2, [r5, r3]
 8000674:	4991      	ldr	r1, [pc, #580]	; (80008bc <HAL_PCD_EP_Open+0x2d4>)
 8000676:	4011      	ands	r1, r2
 8000678:	4a93      	ldr	r2, [pc, #588]	; (80008c8 <HAL_PCD_EP_Open+0x2e0>)
 800067a:	430a      	orrs	r2, r1
 800067c:	52ea      	strh	r2, [r5, r3]
 800067e:	7822      	ldrb	r2, [r4, #0]
 8000680:	0095      	lsls	r5, r2, #2
 8000682:	6801      	ldr	r1, [r0, #0]
 8000684:	5b4b      	ldrh	r3, [r1, r5]
 8000686:	4e91      	ldr	r6, [pc, #580]	; (80008cc <HAL_PCD_EP_Open+0x2e4>)
 8000688:	4033      	ands	r3, r6
 800068a:	4313      	orrs	r3, r2
 800068c:	4a90      	ldr	r2, [pc, #576]	; (80008d0 <HAL_PCD_EP_Open+0x2e8>)
 800068e:	4313      	orrs	r3, r2
 8000690:	534b      	strh	r3, [r1, r5]
 8000692:	7aa3      	ldrb	r3, [r4, #10]
 8000694:	2b00      	cmp	r3, #0
 8000696:	d000      	beq.n	800069a <HAL_PCD_EP_Open+0xb2>
 8000698:	e07d      	b.n	8000796 <HAL_PCD_EP_Open+0x1ae>
 800069a:	7863      	ldrb	r3, [r4, #1]
 800069c:	2b00      	cmp	r3, #0
 800069e:	d034      	beq.n	800070a <HAL_PCD_EP_Open+0x122>
 80006a0:	6802      	ldr	r2, [r0, #0]
 80006a2:	2350      	movs	r3, #80	; 0x50
 80006a4:	5ad3      	ldrh	r3, [r2, r3]
 80006a6:	7821      	ldrb	r1, [r4, #0]
 80006a8:	00c9      	lsls	r1, r1, #3
 80006aa:	1852      	adds	r2, r2, r1
 80006ac:	189b      	adds	r3, r3, r2
 80006ae:	2280      	movs	r2, #128	; 0x80
 80006b0:	00d2      	lsls	r2, r2, #3
 80006b2:	4694      	mov	ip, r2
 80006b4:	4463      	add	r3, ip
 80006b6:	88a2      	ldrh	r2, [r4, #4]
 80006b8:	2101      	movs	r1, #1
 80006ba:	438a      	bics	r2, r1
 80006bc:	801a      	strh	r2, [r3, #0]
 80006be:	7823      	ldrb	r3, [r4, #0]
 80006c0:	009b      	lsls	r3, r3, #2
 80006c2:	6802      	ldr	r2, [r0, #0]
 80006c4:	18d1      	adds	r1, r2, r3
 80006c6:	5ad3      	ldrh	r3, [r2, r3]
 80006c8:	065a      	lsls	r2, r3, #25
 80006ca:	d503      	bpl.n	80006d4 <HAL_PCD_EP_Open+0xec>
 80006cc:	4033      	ands	r3, r6
 80006ce:	4a81      	ldr	r2, [pc, #516]	; (80008d4 <HAL_PCD_EP_Open+0x2ec>)
 80006d0:	4313      	orrs	r3, r2
 80006d2:	800b      	strh	r3, [r1, #0]
 80006d4:	7822      	ldrb	r2, [r4, #0]
 80006d6:	0092      	lsls	r2, r2, #2
 80006d8:	6804      	ldr	r4, [r0, #0]
 80006da:	5aa3      	ldrh	r3, [r4, r2]
 80006dc:	497e      	ldr	r1, [pc, #504]	; (80008d8 <HAL_PCD_EP_Open+0x2f0>)
 80006de:	400b      	ands	r3, r1
 80006e0:	2120      	movs	r1, #32
 80006e2:	404b      	eors	r3, r1
 80006e4:	497a      	ldr	r1, [pc, #488]	; (80008d0 <HAL_PCD_EP_Open+0x2e8>)
 80006e6:	430b      	orrs	r3, r1
 80006e8:	52a3      	strh	r3, [r4, r2]
 80006ea:	23f4      	movs	r3, #244	; 0xf4
 80006ec:	005b      	lsls	r3, r3, #1
 80006ee:	2200      	movs	r2, #0
 80006f0:	54c2      	strb	r2, [r0, r3]
 80006f2:	2000      	movs	r0, #0
 80006f4:	bd70      	pop	{r4, r5, r6, pc}
 80006f6:	7823      	ldrb	r3, [r4, #0]
 80006f8:	009b      	lsls	r3, r3, #2
 80006fa:	6805      	ldr	r5, [r0, #0]
 80006fc:	5aea      	ldrh	r2, [r5, r3]
 80006fe:	496f      	ldr	r1, [pc, #444]	; (80008bc <HAL_PCD_EP_Open+0x2d4>)
 8000700:	4011      	ands	r1, r2
 8000702:	4a73      	ldr	r2, [pc, #460]	; (80008d0 <HAL_PCD_EP_Open+0x2e8>)
 8000704:	430a      	orrs	r2, r1
 8000706:	52ea      	strh	r2, [r5, r3]
 8000708:	e7b9      	b.n	800067e <HAL_PCD_EP_Open+0x96>
 800070a:	6802      	ldr	r2, [r0, #0]
 800070c:	2550      	movs	r5, #80	; 0x50
 800070e:	5b53      	ldrh	r3, [r2, r5]
 8000710:	7821      	ldrb	r1, [r4, #0]
 8000712:	00c9      	lsls	r1, r1, #3
 8000714:	1852      	adds	r2, r2, r1
 8000716:	189b      	adds	r3, r3, r2
 8000718:	4a70      	ldr	r2, [pc, #448]	; (80008dc <HAL_PCD_EP_Open+0x2f4>)
 800071a:	4694      	mov	ip, r2
 800071c:	4463      	add	r3, ip
 800071e:	88a2      	ldrh	r2, [r4, #4]
 8000720:	2101      	movs	r1, #1
 8000722:	438a      	bics	r2, r1
 8000724:	801a      	strh	r2, [r3, #0]
 8000726:	6802      	ldr	r2, [r0, #0]
 8000728:	5b53      	ldrh	r3, [r2, r5]
 800072a:	7821      	ldrb	r1, [r4, #0]
 800072c:	00c9      	lsls	r1, r1, #3
 800072e:	185b      	adds	r3, r3, r1
 8000730:	496b      	ldr	r1, [pc, #428]	; (80008e0 <HAL_PCD_EP_Open+0x2f8>)
 8000732:	468c      	mov	ip, r1
 8000734:	4462      	add	r2, ip
 8000736:	189b      	adds	r3, r3, r2
 8000738:	68e2      	ldr	r2, [r4, #12]
 800073a:	2a3e      	cmp	r2, #62	; 0x3e
 800073c:	d922      	bls.n	8000784 <HAL_PCD_EP_Open+0x19c>
 800073e:	0951      	lsrs	r1, r2, #5
 8000740:	b289      	uxth	r1, r1
 8000742:	06d2      	lsls	r2, r2, #27
 8000744:	d101      	bne.n	800074a <HAL_PCD_EP_Open+0x162>
 8000746:	3901      	subs	r1, #1
 8000748:	b289      	uxth	r1, r1
 800074a:	0289      	lsls	r1, r1, #10
 800074c:	4a65      	ldr	r2, [pc, #404]	; (80008e4 <HAL_PCD_EP_Open+0x2fc>)
 800074e:	4311      	orrs	r1, r2
 8000750:	8019      	strh	r1, [r3, #0]
 8000752:	7823      	ldrb	r3, [r4, #0]
 8000754:	009b      	lsls	r3, r3, #2
 8000756:	6802      	ldr	r2, [r0, #0]
 8000758:	18d1      	adds	r1, r2, r3
 800075a:	5ad3      	ldrh	r3, [r2, r3]
 800075c:	045a      	lsls	r2, r3, #17
 800075e:	d504      	bpl.n	800076a <HAL_PCD_EP_Open+0x182>
 8000760:	4a5a      	ldr	r2, [pc, #360]	; (80008cc <HAL_PCD_EP_Open+0x2e4>)
 8000762:	4013      	ands	r3, r2
 8000764:	4a60      	ldr	r2, [pc, #384]	; (80008e8 <HAL_PCD_EP_Open+0x300>)
 8000766:	4313      	orrs	r3, r2
 8000768:	800b      	strh	r3, [r1, #0]
 800076a:	7823      	ldrb	r3, [r4, #0]
 800076c:	009b      	lsls	r3, r3, #2
 800076e:	6804      	ldr	r4, [r0, #0]
 8000770:	5ae1      	ldrh	r1, [r4, r3]
 8000772:	4a5e      	ldr	r2, [pc, #376]	; (80008ec <HAL_PCD_EP_Open+0x304>)
 8000774:	4011      	ands	r1, r2
 8000776:	22c0      	movs	r2, #192	; 0xc0
 8000778:	0192      	lsls	r2, r2, #6
 800077a:	4051      	eors	r1, r2
 800077c:	4a54      	ldr	r2, [pc, #336]	; (80008d0 <HAL_PCD_EP_Open+0x2e8>)
 800077e:	430a      	orrs	r2, r1
 8000780:	52e2      	strh	r2, [r4, r3]
 8000782:	e7b2      	b.n	80006ea <HAL_PCD_EP_Open+0x102>
 8000784:	0851      	lsrs	r1, r2, #1
 8000786:	b289      	uxth	r1, r1
 8000788:	07d2      	lsls	r2, r2, #31
 800078a:	d501      	bpl.n	8000790 <HAL_PCD_EP_Open+0x1a8>
 800078c:	3101      	adds	r1, #1
 800078e:	b289      	uxth	r1, r1
 8000790:	0289      	lsls	r1, r1, #10
 8000792:	8019      	strh	r1, [r3, #0]
 8000794:	e7dd      	b.n	8000752 <HAL_PCD_EP_Open+0x16a>
 8000796:	7823      	ldrb	r3, [r4, #0]
 8000798:	009b      	lsls	r3, r3, #2
 800079a:	6805      	ldr	r5, [r0, #0]
 800079c:	5aea      	ldrh	r2, [r5, r3]
 800079e:	4954      	ldr	r1, [pc, #336]	; (80008f0 <HAL_PCD_EP_Open+0x308>)
 80007a0:	4011      	ands	r1, r2
 80007a2:	4a54      	ldr	r2, [pc, #336]	; (80008f4 <HAL_PCD_EP_Open+0x30c>)
 80007a4:	430a      	orrs	r2, r1
 80007a6:	52ea      	strh	r2, [r5, r3]
 80007a8:	6802      	ldr	r2, [r0, #0]
 80007aa:	2650      	movs	r6, #80	; 0x50
 80007ac:	5b93      	ldrh	r3, [r2, r6]
 80007ae:	7821      	ldrb	r1, [r4, #0]
 80007b0:	00c9      	lsls	r1, r1, #3
 80007b2:	1852      	adds	r2, r2, r1
 80007b4:	189b      	adds	r3, r3, r2
 80007b6:	2280      	movs	r2, #128	; 0x80
 80007b8:	00d2      	lsls	r2, r2, #3
 80007ba:	4694      	mov	ip, r2
 80007bc:	4463      	add	r3, ip
 80007be:	88e2      	ldrh	r2, [r4, #6]
 80007c0:	2501      	movs	r5, #1
 80007c2:	43aa      	bics	r2, r5
 80007c4:	801a      	strh	r2, [r3, #0]
 80007c6:	6802      	ldr	r2, [r0, #0]
 80007c8:	5b93      	ldrh	r3, [r2, r6]
 80007ca:	7821      	ldrb	r1, [r4, #0]
 80007cc:	00c9      	lsls	r1, r1, #3
 80007ce:	1852      	adds	r2, r2, r1
 80007d0:	189b      	adds	r3, r3, r2
 80007d2:	4a42      	ldr	r2, [pc, #264]	; (80008dc <HAL_PCD_EP_Open+0x2f4>)
 80007d4:	4694      	mov	ip, r2
 80007d6:	4463      	add	r3, ip
 80007d8:	8922      	ldrh	r2, [r4, #8]
 80007da:	43aa      	bics	r2, r5
 80007dc:	801a      	strh	r2, [r3, #0]
 80007de:	7863      	ldrb	r3, [r4, #1]
 80007e0:	2b00      	cmp	r3, #0
 80007e2:	d135      	bne.n	8000850 <HAL_PCD_EP_Open+0x268>
 80007e4:	7823      	ldrb	r3, [r4, #0]
 80007e6:	009b      	lsls	r3, r3, #2
 80007e8:	6802      	ldr	r2, [r0, #0]
 80007ea:	18d1      	adds	r1, r2, r3
 80007ec:	5ad3      	ldrh	r3, [r2, r3]
 80007ee:	045a      	lsls	r2, r3, #17
 80007f0:	d504      	bpl.n	80007fc <HAL_PCD_EP_Open+0x214>
 80007f2:	4a36      	ldr	r2, [pc, #216]	; (80008cc <HAL_PCD_EP_Open+0x2e4>)
 80007f4:	4013      	ands	r3, r2
 80007f6:	4a3c      	ldr	r2, [pc, #240]	; (80008e8 <HAL_PCD_EP_Open+0x300>)
 80007f8:	4313      	orrs	r3, r2
 80007fa:	800b      	strh	r3, [r1, #0]
 80007fc:	7823      	ldrb	r3, [r4, #0]
 80007fe:	009b      	lsls	r3, r3, #2
 8000800:	6802      	ldr	r2, [r0, #0]
 8000802:	18d1      	adds	r1, r2, r3
 8000804:	5ad3      	ldrh	r3, [r2, r3]
 8000806:	065a      	lsls	r2, r3, #25
 8000808:	d504      	bpl.n	8000814 <HAL_PCD_EP_Open+0x22c>
 800080a:	4a30      	ldr	r2, [pc, #192]	; (80008cc <HAL_PCD_EP_Open+0x2e4>)
 800080c:	4013      	ands	r3, r2
 800080e:	4a31      	ldr	r2, [pc, #196]	; (80008d4 <HAL_PCD_EP_Open+0x2ec>)
 8000810:	4313      	orrs	r3, r2
 8000812:	800b      	strh	r3, [r1, #0]
 8000814:	7823      	ldrb	r3, [r4, #0]
 8000816:	009b      	lsls	r3, r3, #2
 8000818:	6805      	ldr	r5, [r0, #0]
 800081a:	5aea      	ldrh	r2, [r5, r3]
 800081c:	492b      	ldr	r1, [pc, #172]	; (80008cc <HAL_PCD_EP_Open+0x2e4>)
 800081e:	4011      	ands	r1, r2
 8000820:	4a2c      	ldr	r2, [pc, #176]	; (80008d4 <HAL_PCD_EP_Open+0x2ec>)
 8000822:	430a      	orrs	r2, r1
 8000824:	52ea      	strh	r2, [r5, r3]
 8000826:	7821      	ldrb	r1, [r4, #0]
 8000828:	0089      	lsls	r1, r1, #2
 800082a:	6805      	ldr	r5, [r0, #0]
 800082c:	5a6b      	ldrh	r3, [r5, r1]
 800082e:	4a2f      	ldr	r2, [pc, #188]	; (80008ec <HAL_PCD_EP_Open+0x304>)
 8000830:	401a      	ands	r2, r3
 8000832:	23c0      	movs	r3, #192	; 0xc0
 8000834:	019b      	lsls	r3, r3, #6
 8000836:	4053      	eors	r3, r2
 8000838:	4a25      	ldr	r2, [pc, #148]	; (80008d0 <HAL_PCD_EP_Open+0x2e8>)
 800083a:	4313      	orrs	r3, r2
 800083c:	526b      	strh	r3, [r5, r1]
 800083e:	7823      	ldrb	r3, [r4, #0]
 8000840:	009b      	lsls	r3, r3, #2
 8000842:	6804      	ldr	r4, [r0, #0]
 8000844:	5ae1      	ldrh	r1, [r4, r3]
 8000846:	4d24      	ldr	r5, [pc, #144]	; (80008d8 <HAL_PCD_EP_Open+0x2f0>)
 8000848:	4029      	ands	r1, r5
 800084a:	430a      	orrs	r2, r1
 800084c:	52e2      	strh	r2, [r4, r3]
 800084e:	e74c      	b.n	80006ea <HAL_PCD_EP_Open+0x102>
 8000850:	7823      	ldrb	r3, [r4, #0]
 8000852:	009b      	lsls	r3, r3, #2
 8000854:	6802      	ldr	r2, [r0, #0]
 8000856:	18d1      	adds	r1, r2, r3
 8000858:	5ad3      	ldrh	r3, [r2, r3]
 800085a:	045a      	lsls	r2, r3, #17
 800085c:	d504      	bpl.n	8000868 <HAL_PCD_EP_Open+0x280>
 800085e:	4a1b      	ldr	r2, [pc, #108]	; (80008cc <HAL_PCD_EP_Open+0x2e4>)
 8000860:	4013      	ands	r3, r2
 8000862:	4a21      	ldr	r2, [pc, #132]	; (80008e8 <HAL_PCD_EP_Open+0x300>)
 8000864:	4313      	orrs	r3, r2
 8000866:	800b      	strh	r3, [r1, #0]
 8000868:	7823      	ldrb	r3, [r4, #0]
 800086a:	009b      	lsls	r3, r3, #2
 800086c:	6802      	ldr	r2, [r0, #0]
 800086e:	18d1      	adds	r1, r2, r3
 8000870:	5ad3      	ldrh	r3, [r2, r3]
 8000872:	065a      	lsls	r2, r3, #25
 8000874:	d504      	bpl.n	8000880 <HAL_PCD_EP_Open+0x298>
 8000876:	4a15      	ldr	r2, [pc, #84]	; (80008cc <HAL_PCD_EP_Open+0x2e4>)
 8000878:	4013      	ands	r3, r2
 800087a:	4a16      	ldr	r2, [pc, #88]	; (80008d4 <HAL_PCD_EP_Open+0x2ec>)
 800087c:	4313      	orrs	r3, r2
 800087e:	800b      	strh	r3, [r1, #0]
 8000880:	7823      	ldrb	r3, [r4, #0]
 8000882:	009b      	lsls	r3, r3, #2
 8000884:	6805      	ldr	r5, [r0, #0]
 8000886:	5aea      	ldrh	r2, [r5, r3]
 8000888:	4910      	ldr	r1, [pc, #64]	; (80008cc <HAL_PCD_EP_Open+0x2e4>)
 800088a:	4011      	ands	r1, r2
 800088c:	4a16      	ldr	r2, [pc, #88]	; (80008e8 <HAL_PCD_EP_Open+0x300>)
 800088e:	430a      	orrs	r2, r1
 8000890:	52ea      	strh	r2, [r5, r3]
 8000892:	7821      	ldrb	r1, [r4, #0]
 8000894:	0089      	lsls	r1, r1, #2
 8000896:	6805      	ldr	r5, [r0, #0]
 8000898:	5a6b      	ldrh	r3, [r5, r1]
 800089a:	4a0f      	ldr	r2, [pc, #60]	; (80008d8 <HAL_PCD_EP_Open+0x2f0>)
 800089c:	4013      	ands	r3, r2
 800089e:	4a0c      	ldr	r2, [pc, #48]	; (80008d0 <HAL_PCD_EP_Open+0x2e8>)
 80008a0:	4313      	orrs	r3, r2
 80008a2:	526b      	strh	r3, [r5, r1]
 80008a4:	7823      	ldrb	r3, [r4, #0]
 80008a6:	009b      	lsls	r3, r3, #2
 80008a8:	6804      	ldr	r4, [r0, #0]
 80008aa:	5ae1      	ldrh	r1, [r4, r3]
 80008ac:	4d0f      	ldr	r5, [pc, #60]	; (80008ec <HAL_PCD_EP_Open+0x304>)
 80008ae:	4029      	ands	r1, r5
 80008b0:	430a      	orrs	r2, r1
 80008b2:	52e2      	strh	r2, [r4, r3]
 80008b4:	e719      	b.n	80006ea <HAL_PCD_EP_Open+0x102>
 80008b6:	2002      	movs	r0, #2
 80008b8:	e71c      	b.n	80006f4 <HAL_PCD_EP_Open+0x10c>
 80008ba:	46c0      	nop			; (mov r8, r8)
 80008bc:	0000090f 	.word	0x0000090f
 80008c0:	ffff8480 	.word	0xffff8480
 80008c4:	ffff8680 	.word	0xffff8680
 80008c8:	ffff8280 	.word	0xffff8280
 80008cc:	00000f0f 	.word	0x00000f0f
 80008d0:	ffff8080 	.word	0xffff8080
 80008d4:	ffff80c0 	.word	0xffff80c0
 80008d8:	ffff8fbf 	.word	0xffff8fbf
 80008dc:	00000404 	.word	0x00000404
 80008e0:	00000406 	.word	0x00000406
 80008e4:	ffff8000 	.word	0xffff8000
 80008e8:	ffffc080 	.word	0xffffc080
 80008ec:	ffffbf8f 	.word	0xffffbf8f
 80008f0:	00000e0f 	.word	0x00000e0f
 80008f4:	ffff8180 	.word	0xffff8180

080008f8 <HAL_PCD_EP_Close>:
 80008f8:	b530      	push	{r4, r5, lr}
 80008fa:	000c      	movs	r4, r1
 80008fc:	b24a      	sxtb	r2, r1
 80008fe:	2a00      	cmp	r2, #0
 8000900:	db37      	blt.n	8000972 <HAL_PCD_EP_Close+0x7a>
 8000902:	217f      	movs	r1, #127	; 0x7f
 8000904:	4021      	ands	r1, r4
 8000906:	00cb      	lsls	r3, r1, #3
 8000908:	1a5b      	subs	r3, r3, r1
 800090a:	009b      	lsls	r3, r3, #2
 800090c:	3309      	adds	r3, #9
 800090e:	33ff      	adds	r3, #255	; 0xff
 8000910:	18c3      	adds	r3, r0, r3
 8000912:	217f      	movs	r1, #127	; 0x7f
 8000914:	4021      	ands	r1, r4
 8000916:	7019      	strb	r1, [r3, #0]
 8000918:	0fd2      	lsrs	r2, r2, #31
 800091a:	705a      	strb	r2, [r3, #1]
 800091c:	22f4      	movs	r2, #244	; 0xf4
 800091e:	0052      	lsls	r2, r2, #1
 8000920:	5c82      	ldrb	r2, [r0, r2]
 8000922:	2a01      	cmp	r2, #1
 8000924:	d100      	bne.n	8000928 <HAL_PCD_EP_Close+0x30>
 8000926:	e0ab      	b.n	8000a80 <HAL_PCD_EP_Close+0x188>
 8000928:	22f4      	movs	r2, #244	; 0xf4
 800092a:	0052      	lsls	r2, r2, #1
 800092c:	2101      	movs	r1, #1
 800092e:	5481      	strb	r1, [r0, r2]
 8000930:	7a9a      	ldrb	r2, [r3, #10]
 8000932:	2a00      	cmp	r2, #0
 8000934:	d13b      	bne.n	80009ae <HAL_PCD_EP_Close+0xb6>
 8000936:	785a      	ldrb	r2, [r3, #1]
 8000938:	2a00      	cmp	r2, #0
 800093a:	d022      	beq.n	8000982 <HAL_PCD_EP_Close+0x8a>
 800093c:	781a      	ldrb	r2, [r3, #0]
 800093e:	0092      	lsls	r2, r2, #2
 8000940:	6801      	ldr	r1, [r0, #0]
 8000942:	188c      	adds	r4, r1, r2
 8000944:	5a8a      	ldrh	r2, [r1, r2]
 8000946:	0651      	lsls	r1, r2, #25
 8000948:	d504      	bpl.n	8000954 <HAL_PCD_EP_Close+0x5c>
 800094a:	494e      	ldr	r1, [pc, #312]	; (8000a84 <HAL_PCD_EP_Close+0x18c>)
 800094c:	400a      	ands	r2, r1
 800094e:	494e      	ldr	r1, [pc, #312]	; (8000a88 <HAL_PCD_EP_Close+0x190>)
 8000950:	430a      	orrs	r2, r1
 8000952:	8022      	strh	r2, [r4, #0]
 8000954:	781b      	ldrb	r3, [r3, #0]
 8000956:	009b      	lsls	r3, r3, #2
 8000958:	6804      	ldr	r4, [r0, #0]
 800095a:	5ae2      	ldrh	r2, [r4, r3]
 800095c:	494b      	ldr	r1, [pc, #300]	; (8000a8c <HAL_PCD_EP_Close+0x194>)
 800095e:	4011      	ands	r1, r2
 8000960:	4a4b      	ldr	r2, [pc, #300]	; (8000a90 <HAL_PCD_EP_Close+0x198>)
 8000962:	430a      	orrs	r2, r1
 8000964:	52e2      	strh	r2, [r4, r3]
 8000966:	23f4      	movs	r3, #244	; 0xf4
 8000968:	005b      	lsls	r3, r3, #1
 800096a:	2200      	movs	r2, #0
 800096c:	54c2      	strb	r2, [r0, r3]
 800096e:	2000      	movs	r0, #0
 8000970:	bd30      	pop	{r4, r5, pc}
 8000972:	217f      	movs	r1, #127	; 0x7f
 8000974:	4021      	ands	r1, r4
 8000976:	00cb      	lsls	r3, r1, #3
 8000978:	1a5b      	subs	r3, r3, r1
 800097a:	009b      	lsls	r3, r3, #2
 800097c:	3328      	adds	r3, #40	; 0x28
 800097e:	18c3      	adds	r3, r0, r3
 8000980:	e7c7      	b.n	8000912 <HAL_PCD_EP_Close+0x1a>
 8000982:	781a      	ldrb	r2, [r3, #0]
 8000984:	0092      	lsls	r2, r2, #2
 8000986:	6801      	ldr	r1, [r0, #0]
 8000988:	188c      	adds	r4, r1, r2
 800098a:	5a8a      	ldrh	r2, [r1, r2]
 800098c:	0451      	lsls	r1, r2, #17
 800098e:	d504      	bpl.n	800099a <HAL_PCD_EP_Close+0xa2>
 8000990:	493c      	ldr	r1, [pc, #240]	; (8000a84 <HAL_PCD_EP_Close+0x18c>)
 8000992:	400a      	ands	r2, r1
 8000994:	493f      	ldr	r1, [pc, #252]	; (8000a94 <HAL_PCD_EP_Close+0x19c>)
 8000996:	430a      	orrs	r2, r1
 8000998:	8022      	strh	r2, [r4, #0]
 800099a:	781b      	ldrb	r3, [r3, #0]
 800099c:	009b      	lsls	r3, r3, #2
 800099e:	6804      	ldr	r4, [r0, #0]
 80009a0:	5ae2      	ldrh	r2, [r4, r3]
 80009a2:	493d      	ldr	r1, [pc, #244]	; (8000a98 <HAL_PCD_EP_Close+0x1a0>)
 80009a4:	4011      	ands	r1, r2
 80009a6:	4a3a      	ldr	r2, [pc, #232]	; (8000a90 <HAL_PCD_EP_Close+0x198>)
 80009a8:	430a      	orrs	r2, r1
 80009aa:	52e2      	strh	r2, [r4, r3]
 80009ac:	e7db      	b.n	8000966 <HAL_PCD_EP_Close+0x6e>
 80009ae:	785a      	ldrb	r2, [r3, #1]
 80009b0:	2a00      	cmp	r2, #0
 80009b2:	d132      	bne.n	8000a1a <HAL_PCD_EP_Close+0x122>
 80009b4:	781a      	ldrb	r2, [r3, #0]
 80009b6:	0092      	lsls	r2, r2, #2
 80009b8:	6801      	ldr	r1, [r0, #0]
 80009ba:	188c      	adds	r4, r1, r2
 80009bc:	5a8a      	ldrh	r2, [r1, r2]
 80009be:	0451      	lsls	r1, r2, #17
 80009c0:	d504      	bpl.n	80009cc <HAL_PCD_EP_Close+0xd4>
 80009c2:	4930      	ldr	r1, [pc, #192]	; (8000a84 <HAL_PCD_EP_Close+0x18c>)
 80009c4:	400a      	ands	r2, r1
 80009c6:	4933      	ldr	r1, [pc, #204]	; (8000a94 <HAL_PCD_EP_Close+0x19c>)
 80009c8:	430a      	orrs	r2, r1
 80009ca:	8022      	strh	r2, [r4, #0]
 80009cc:	781a      	ldrb	r2, [r3, #0]
 80009ce:	0092      	lsls	r2, r2, #2
 80009d0:	6801      	ldr	r1, [r0, #0]
 80009d2:	188c      	adds	r4, r1, r2
 80009d4:	5a8a      	ldrh	r2, [r1, r2]
 80009d6:	0651      	lsls	r1, r2, #25
 80009d8:	d504      	bpl.n	80009e4 <HAL_PCD_EP_Close+0xec>
 80009da:	492a      	ldr	r1, [pc, #168]	; (8000a84 <HAL_PCD_EP_Close+0x18c>)
 80009dc:	400a      	ands	r2, r1
 80009de:	492a      	ldr	r1, [pc, #168]	; (8000a88 <HAL_PCD_EP_Close+0x190>)
 80009e0:	430a      	orrs	r2, r1
 80009e2:	8022      	strh	r2, [r4, #0]
 80009e4:	781a      	ldrb	r2, [r3, #0]
 80009e6:	0092      	lsls	r2, r2, #2
 80009e8:	6805      	ldr	r5, [r0, #0]
 80009ea:	5aa9      	ldrh	r1, [r5, r2]
 80009ec:	4c25      	ldr	r4, [pc, #148]	; (8000a84 <HAL_PCD_EP_Close+0x18c>)
 80009ee:	400c      	ands	r4, r1
 80009f0:	4925      	ldr	r1, [pc, #148]	; (8000a88 <HAL_PCD_EP_Close+0x190>)
 80009f2:	4321      	orrs	r1, r4
 80009f4:	52a9      	strh	r1, [r5, r2]
 80009f6:	781c      	ldrb	r4, [r3, #0]
 80009f8:	00a4      	lsls	r4, r4, #2
 80009fa:	6805      	ldr	r5, [r0, #0]
 80009fc:	5b2a      	ldrh	r2, [r5, r4]
 80009fe:	4926      	ldr	r1, [pc, #152]	; (8000a98 <HAL_PCD_EP_Close+0x1a0>)
 8000a00:	400a      	ands	r2, r1
 8000a02:	4923      	ldr	r1, [pc, #140]	; (8000a90 <HAL_PCD_EP_Close+0x198>)
 8000a04:	430a      	orrs	r2, r1
 8000a06:	532a      	strh	r2, [r5, r4]
 8000a08:	781b      	ldrb	r3, [r3, #0]
 8000a0a:	009b      	lsls	r3, r3, #2
 8000a0c:	6804      	ldr	r4, [r0, #0]
 8000a0e:	5ae2      	ldrh	r2, [r4, r3]
 8000a10:	4d1e      	ldr	r5, [pc, #120]	; (8000a8c <HAL_PCD_EP_Close+0x194>)
 8000a12:	402a      	ands	r2, r5
 8000a14:	4311      	orrs	r1, r2
 8000a16:	52e1      	strh	r1, [r4, r3]
 8000a18:	e7a5      	b.n	8000966 <HAL_PCD_EP_Close+0x6e>
 8000a1a:	781a      	ldrb	r2, [r3, #0]
 8000a1c:	0092      	lsls	r2, r2, #2
 8000a1e:	6801      	ldr	r1, [r0, #0]
 8000a20:	188c      	adds	r4, r1, r2
 8000a22:	5a8a      	ldrh	r2, [r1, r2]
 8000a24:	0451      	lsls	r1, r2, #17
 8000a26:	d504      	bpl.n	8000a32 <HAL_PCD_EP_Close+0x13a>
 8000a28:	4916      	ldr	r1, [pc, #88]	; (8000a84 <HAL_PCD_EP_Close+0x18c>)
 8000a2a:	400a      	ands	r2, r1
 8000a2c:	4919      	ldr	r1, [pc, #100]	; (8000a94 <HAL_PCD_EP_Close+0x19c>)
 8000a2e:	430a      	orrs	r2, r1
 8000a30:	8022      	strh	r2, [r4, #0]
 8000a32:	781a      	ldrb	r2, [r3, #0]
 8000a34:	0092      	lsls	r2, r2, #2
 8000a36:	6801      	ldr	r1, [r0, #0]
 8000a38:	188c      	adds	r4, r1, r2
 8000a3a:	5a8a      	ldrh	r2, [r1, r2]
 8000a3c:	0651      	lsls	r1, r2, #25
 8000a3e:	d504      	bpl.n	8000a4a <HAL_PCD_EP_Close+0x152>
 8000a40:	4910      	ldr	r1, [pc, #64]	; (8000a84 <HAL_PCD_EP_Close+0x18c>)
 8000a42:	400a      	ands	r2, r1
 8000a44:	4910      	ldr	r1, [pc, #64]	; (8000a88 <HAL_PCD_EP_Close+0x190>)
 8000a46:	430a      	orrs	r2, r1
 8000a48:	8022      	strh	r2, [r4, #0]
 8000a4a:	781a      	ldrb	r2, [r3, #0]
 8000a4c:	0092      	lsls	r2, r2, #2
 8000a4e:	6805      	ldr	r5, [r0, #0]
 8000a50:	5aa9      	ldrh	r1, [r5, r2]
 8000a52:	4c0c      	ldr	r4, [pc, #48]	; (8000a84 <HAL_PCD_EP_Close+0x18c>)
 8000a54:	400c      	ands	r4, r1
 8000a56:	490f      	ldr	r1, [pc, #60]	; (8000a94 <HAL_PCD_EP_Close+0x19c>)
 8000a58:	4321      	orrs	r1, r4
 8000a5a:	52a9      	strh	r1, [r5, r2]
 8000a5c:	781c      	ldrb	r4, [r3, #0]
 8000a5e:	00a4      	lsls	r4, r4, #2
 8000a60:	6805      	ldr	r5, [r0, #0]
 8000a62:	5b2a      	ldrh	r2, [r5, r4]
 8000a64:	4909      	ldr	r1, [pc, #36]	; (8000a8c <HAL_PCD_EP_Close+0x194>)
 8000a66:	400a      	ands	r2, r1
 8000a68:	4909      	ldr	r1, [pc, #36]	; (8000a90 <HAL_PCD_EP_Close+0x198>)
 8000a6a:	430a      	orrs	r2, r1
 8000a6c:	532a      	strh	r2, [r5, r4]
 8000a6e:	781b      	ldrb	r3, [r3, #0]
 8000a70:	009b      	lsls	r3, r3, #2
 8000a72:	6804      	ldr	r4, [r0, #0]
 8000a74:	5ae2      	ldrh	r2, [r4, r3]
 8000a76:	4d08      	ldr	r5, [pc, #32]	; (8000a98 <HAL_PCD_EP_Close+0x1a0>)
 8000a78:	402a      	ands	r2, r5
 8000a7a:	4311      	orrs	r1, r2
 8000a7c:	52e1      	strh	r1, [r4, r3]
 8000a7e:	e772      	b.n	8000966 <HAL_PCD_EP_Close+0x6e>
 8000a80:	2002      	movs	r0, #2
 8000a82:	e775      	b.n	8000970 <HAL_PCD_EP_Close+0x78>
 8000a84:	00000f0f 	.word	0x00000f0f
 8000a88:	ffff80c0 	.word	0xffff80c0
 8000a8c:	ffff8fbf 	.word	0xffff8fbf
 8000a90:	ffff8080 	.word	0xffff8080
 8000a94:	ffffc080 	.word	0xffffc080
 8000a98:	ffffbf8f 	.word	0xffffbf8f

08000a9c <HAL_PCD_EP_Receive>:
 8000a9c:	b570      	push	{r4, r5, r6, lr}
 8000a9e:	247f      	movs	r4, #127	; 0x7f
 8000aa0:	4021      	ands	r1, r4
 8000aa2:	00cc      	lsls	r4, r1, #3
 8000aa4:	1a64      	subs	r4, r4, r1
 8000aa6:	00a4      	lsls	r4, r4, #2
 8000aa8:	1904      	adds	r4, r0, r4
 8000aaa:	0025      	movs	r5, r4
 8000aac:	3519      	adds	r5, #25
 8000aae:	35ff      	adds	r5, #255	; 0xff
 8000ab0:	602a      	str	r2, [r5, #0]
 8000ab2:	0022      	movs	r2, r4
 8000ab4:	321d      	adds	r2, #29
 8000ab6:	32ff      	adds	r2, #255	; 0xff
 8000ab8:	6013      	str	r3, [r2, #0]
 8000aba:	3508      	adds	r5, #8
 8000abc:	2200      	movs	r2, #0
 8000abe:	602a      	str	r2, [r5, #0]
 8000ac0:	3d17      	subs	r5, #23
 8000ac2:	702a      	strb	r2, [r5, #0]
 8000ac4:	0022      	movs	r2, r4
 8000ac6:	3209      	adds	r2, #9
 8000ac8:	32ff      	adds	r2, #255	; 0xff
 8000aca:	7011      	strb	r1, [r2, #0]
 8000acc:	3415      	adds	r4, #21
 8000ace:	34ff      	adds	r4, #255	; 0xff
 8000ad0:	6822      	ldr	r2, [r4, #0]
 8000ad2:	2400      	movs	r4, #0
 8000ad4:	4293      	cmp	r3, r2
 8000ad6:	d901      	bls.n	8000adc <HAL_PCD_EP_Receive+0x40>
 8000ad8:	1a9c      	subs	r4, r3, r2
 8000ada:	0013      	movs	r3, r2
 8000adc:	00ca      	lsls	r2, r1, #3
 8000ade:	1a52      	subs	r2, r2, r1
 8000ae0:	0092      	lsls	r2, r2, #2
 8000ae2:	1882      	adds	r2, r0, r2
 8000ae4:	0015      	movs	r5, r2
 8000ae6:	351d      	adds	r5, #29
 8000ae8:	35ff      	adds	r5, #255	; 0xff
 8000aea:	602c      	str	r4, [r5, #0]
 8000aec:	3213      	adds	r2, #19
 8000aee:	32ff      	adds	r2, #255	; 0xff
 8000af0:	7812      	ldrb	r2, [r2, #0]
 8000af2:	2a00      	cmp	r2, #0
 8000af4:	d138      	bne.n	8000b68 <HAL_PCD_EP_Receive+0xcc>
 8000af6:	6804      	ldr	r4, [r0, #0]
 8000af8:	3250      	adds	r2, #80	; 0x50
 8000afa:	5aa5      	ldrh	r5, [r4, r2]
 8000afc:	00ca      	lsls	r2, r1, #3
 8000afe:	1a52      	subs	r2, r2, r1
 8000b00:	0092      	lsls	r2, r2, #2
 8000b02:	1882      	adds	r2, r0, r2
 8000b04:	3209      	adds	r2, #9
 8000b06:	32ff      	adds	r2, #255	; 0xff
 8000b08:	7812      	ldrb	r2, [r2, #0]
 8000b0a:	00d2      	lsls	r2, r2, #3
 8000b0c:	18aa      	adds	r2, r5, r2
 8000b0e:	4d71      	ldr	r5, [pc, #452]	; (8000cd4 <HAL_PCD_EP_Receive+0x238>)
 8000b10:	46ac      	mov	ip, r5
 8000b12:	4464      	add	r4, ip
 8000b14:	1914      	adds	r4, r2, r4
 8000b16:	2b3e      	cmp	r3, #62	; 0x3e
 8000b18:	d91d      	bls.n	8000b56 <HAL_PCD_EP_Receive+0xba>
 8000b1a:	095a      	lsrs	r2, r3, #5
 8000b1c:	b292      	uxth	r2, r2
 8000b1e:	06db      	lsls	r3, r3, #27
 8000b20:	d101      	bne.n	8000b26 <HAL_PCD_EP_Receive+0x8a>
 8000b22:	3a01      	subs	r2, #1
 8000b24:	b292      	uxth	r2, r2
 8000b26:	0292      	lsls	r2, r2, #10
 8000b28:	4b6b      	ldr	r3, [pc, #428]	; (8000cd8 <HAL_PCD_EP_Receive+0x23c>)
 8000b2a:	431a      	orrs	r2, r3
 8000b2c:	8022      	strh	r2, [r4, #0]
 8000b2e:	00cb      	lsls	r3, r1, #3
 8000b30:	1a59      	subs	r1, r3, r1
 8000b32:	0089      	lsls	r1, r1, #2
 8000b34:	1841      	adds	r1, r0, r1
 8000b36:	3109      	adds	r1, #9
 8000b38:	31ff      	adds	r1, #255	; 0xff
 8000b3a:	780b      	ldrb	r3, [r1, #0]
 8000b3c:	009b      	lsls	r3, r3, #2
 8000b3e:	6800      	ldr	r0, [r0, #0]
 8000b40:	5ac1      	ldrh	r1, [r0, r3]
 8000b42:	4a66      	ldr	r2, [pc, #408]	; (8000cdc <HAL_PCD_EP_Receive+0x240>)
 8000b44:	4011      	ands	r1, r2
 8000b46:	22c0      	movs	r2, #192	; 0xc0
 8000b48:	0192      	lsls	r2, r2, #6
 8000b4a:	4051      	eors	r1, r2
 8000b4c:	4a64      	ldr	r2, [pc, #400]	; (8000ce0 <HAL_PCD_EP_Receive+0x244>)
 8000b4e:	430a      	orrs	r2, r1
 8000b50:	52c2      	strh	r2, [r0, r3]
 8000b52:	2000      	movs	r0, #0
 8000b54:	bd70      	pop	{r4, r5, r6, pc}
 8000b56:	085a      	lsrs	r2, r3, #1
 8000b58:	b292      	uxth	r2, r2
 8000b5a:	07db      	lsls	r3, r3, #31
 8000b5c:	d501      	bpl.n	8000b62 <HAL_PCD_EP_Receive+0xc6>
 8000b5e:	3201      	adds	r2, #1
 8000b60:	b292      	uxth	r2, r2
 8000b62:	0292      	lsls	r2, r2, #10
 8000b64:	8022      	strh	r2, [r4, #0]
 8000b66:	e7e2      	b.n	8000b2e <HAL_PCD_EP_Receive+0x92>
 8000b68:	00ca      	lsls	r2, r1, #3
 8000b6a:	1a52      	subs	r2, r2, r1
 8000b6c:	0092      	lsls	r2, r2, #2
 8000b6e:	1882      	adds	r2, r0, r2
 8000b70:	320a      	adds	r2, #10
 8000b72:	32ff      	adds	r2, #255	; 0xff
 8000b74:	7812      	ldrb	r2, [r2, #0]
 8000b76:	2a00      	cmp	r2, #0
 8000b78:	d169      	bne.n	8000c4e <HAL_PCD_EP_Receive+0x1b2>
 8000b7a:	6804      	ldr	r4, [r0, #0]
 8000b7c:	3250      	adds	r2, #80	; 0x50
 8000b7e:	5aa5      	ldrh	r5, [r4, r2]
 8000b80:	00ca      	lsls	r2, r1, #3
 8000b82:	1a52      	subs	r2, r2, r1
 8000b84:	0092      	lsls	r2, r2, #2
 8000b86:	1882      	adds	r2, r0, r2
 8000b88:	3209      	adds	r2, #9
 8000b8a:	32ff      	adds	r2, #255	; 0xff
 8000b8c:	7812      	ldrb	r2, [r2, #0]
 8000b8e:	00d2      	lsls	r2, r2, #3
 8000b90:	18aa      	adds	r2, r5, r2
 8000b92:	4d54      	ldr	r5, [pc, #336]	; (8000ce4 <HAL_PCD_EP_Receive+0x248>)
 8000b94:	46ac      	mov	ip, r5
 8000b96:	4464      	add	r4, ip
 8000b98:	1914      	adds	r4, r2, r4
 8000b9a:	2b3e      	cmp	r3, #62	; 0x3e
 8000b9c:	d92d      	bls.n	8000bfa <HAL_PCD_EP_Receive+0x15e>
 8000b9e:	095a      	lsrs	r2, r3, #5
 8000ba0:	b292      	uxth	r2, r2
 8000ba2:	06dd      	lsls	r5, r3, #27
 8000ba4:	d101      	bne.n	8000baa <HAL_PCD_EP_Receive+0x10e>
 8000ba6:	3a01      	subs	r2, #1
 8000ba8:	b292      	uxth	r2, r2
 8000baa:	0292      	lsls	r2, r2, #10
 8000bac:	4d4a      	ldr	r5, [pc, #296]	; (8000cd8 <HAL_PCD_EP_Receive+0x23c>)
 8000bae:	432a      	orrs	r2, r5
 8000bb0:	8022      	strh	r2, [r4, #0]
 8000bb2:	00ca      	lsls	r2, r1, #3
 8000bb4:	1a52      	subs	r2, r2, r1
 8000bb6:	0092      	lsls	r2, r2, #2
 8000bb8:	1882      	adds	r2, r0, r2
 8000bba:	320a      	adds	r2, #10
 8000bbc:	32ff      	adds	r2, #255	; 0xff
 8000bbe:	7812      	ldrb	r2, [r2, #0]
 8000bc0:	2a00      	cmp	r2, #0
 8000bc2:	d171      	bne.n	8000ca8 <HAL_PCD_EP_Receive+0x20c>
 8000bc4:	6805      	ldr	r5, [r0, #0]
 8000bc6:	2250      	movs	r2, #80	; 0x50
 8000bc8:	5aaa      	ldrh	r2, [r5, r2]
 8000bca:	00cc      	lsls	r4, r1, #3
 8000bcc:	1a64      	subs	r4, r4, r1
 8000bce:	00a4      	lsls	r4, r4, #2
 8000bd0:	1904      	adds	r4, r0, r4
 8000bd2:	3409      	adds	r4, #9
 8000bd4:	34ff      	adds	r4, #255	; 0xff
 8000bd6:	7824      	ldrb	r4, [r4, #0]
 8000bd8:	00e4      	lsls	r4, r4, #3
 8000bda:	1912      	adds	r2, r2, r4
 8000bdc:	4c3d      	ldr	r4, [pc, #244]	; (8000cd4 <HAL_PCD_EP_Receive+0x238>)
 8000bde:	46a4      	mov	ip, r4
 8000be0:	4465      	add	r5, ip
 8000be2:	1952      	adds	r2, r2, r5
 8000be4:	095c      	lsrs	r4, r3, #5
 8000be6:	b2a4      	uxth	r4, r4
 8000be8:	06db      	lsls	r3, r3, #27
 8000bea:	d101      	bne.n	8000bf0 <HAL_PCD_EP_Receive+0x154>
 8000bec:	3c01      	subs	r4, #1
 8000bee:	b2a4      	uxth	r4, r4
 8000bf0:	02a4      	lsls	r4, r4, #10
 8000bf2:	4b39      	ldr	r3, [pc, #228]	; (8000cd8 <HAL_PCD_EP_Receive+0x23c>)
 8000bf4:	431c      	orrs	r4, r3
 8000bf6:	8014      	strh	r4, [r2, #0]
 8000bf8:	e799      	b.n	8000b2e <HAL_PCD_EP_Receive+0x92>
 8000bfa:	085a      	lsrs	r2, r3, #1
 8000bfc:	b292      	uxth	r2, r2
 8000bfe:	07dd      	lsls	r5, r3, #31
 8000c00:	d501      	bpl.n	8000c06 <HAL_PCD_EP_Receive+0x16a>
 8000c02:	3201      	adds	r2, #1
 8000c04:	b292      	uxth	r2, r2
 8000c06:	0292      	lsls	r2, r2, #10
 8000c08:	8022      	strh	r2, [r4, #0]
 8000c0a:	00ca      	lsls	r2, r1, #3
 8000c0c:	1a52      	subs	r2, r2, r1
 8000c0e:	0092      	lsls	r2, r2, #2
 8000c10:	1882      	adds	r2, r0, r2
 8000c12:	320a      	adds	r2, #10
 8000c14:	32ff      	adds	r2, #255	; 0xff
 8000c16:	7812      	ldrb	r2, [r2, #0]
 8000c18:	2a00      	cmp	r2, #0
 8000c1a:	d145      	bne.n	8000ca8 <HAL_PCD_EP_Receive+0x20c>
 8000c1c:	6805      	ldr	r5, [r0, #0]
 8000c1e:	2250      	movs	r2, #80	; 0x50
 8000c20:	5aaa      	ldrh	r2, [r5, r2]
 8000c22:	00cc      	lsls	r4, r1, #3
 8000c24:	1a64      	subs	r4, r4, r1
 8000c26:	00a4      	lsls	r4, r4, #2
 8000c28:	1904      	adds	r4, r0, r4
 8000c2a:	3409      	adds	r4, #9
 8000c2c:	34ff      	adds	r4, #255	; 0xff
 8000c2e:	7824      	ldrb	r4, [r4, #0]
 8000c30:	00e4      	lsls	r4, r4, #3
 8000c32:	1912      	adds	r2, r2, r4
 8000c34:	4c27      	ldr	r4, [pc, #156]	; (8000cd4 <HAL_PCD_EP_Receive+0x238>)
 8000c36:	46a4      	mov	ip, r4
 8000c38:	4465      	add	r5, ip
 8000c3a:	1952      	adds	r2, r2, r5
 8000c3c:	085c      	lsrs	r4, r3, #1
 8000c3e:	b2a4      	uxth	r4, r4
 8000c40:	07db      	lsls	r3, r3, #31
 8000c42:	d501      	bpl.n	8000c48 <HAL_PCD_EP_Receive+0x1ac>
 8000c44:	3401      	adds	r4, #1
 8000c46:	b2a4      	uxth	r4, r4
 8000c48:	02a4      	lsls	r4, r4, #10
 8000c4a:	8014      	strh	r4, [r2, #0]
 8000c4c:	e76f      	b.n	8000b2e <HAL_PCD_EP_Receive+0x92>
 8000c4e:	2a01      	cmp	r2, #1
 8000c50:	d000      	beq.n	8000c54 <HAL_PCD_EP_Receive+0x1b8>
 8000c52:	e76c      	b.n	8000b2e <HAL_PCD_EP_Receive+0x92>
 8000c54:	6805      	ldr	r5, [r0, #0]
 8000c56:	324f      	adds	r2, #79	; 0x4f
 8000c58:	5aac      	ldrh	r4, [r5, r2]
 8000c5a:	00ca      	lsls	r2, r1, #3
 8000c5c:	1a52      	subs	r2, r2, r1
 8000c5e:	0092      	lsls	r2, r2, #2
 8000c60:	1882      	adds	r2, r0, r2
 8000c62:	0016      	movs	r6, r2
 8000c64:	3609      	adds	r6, #9
 8000c66:	36ff      	adds	r6, #255	; 0xff
 8000c68:	7836      	ldrb	r6, [r6, #0]
 8000c6a:	00f6      	lsls	r6, r6, #3
 8000c6c:	19ad      	adds	r5, r5, r6
 8000c6e:	1964      	adds	r4, r4, r5
 8000c70:	4d1c      	ldr	r5, [pc, #112]	; (8000ce4 <HAL_PCD_EP_Receive+0x248>)
 8000c72:	46ac      	mov	ip, r5
 8000c74:	4464      	add	r4, ip
 8000c76:	8023      	strh	r3, [r4, #0]
 8000c78:	320a      	adds	r2, #10
 8000c7a:	32ff      	adds	r2, #255	; 0xff
 8000c7c:	7812      	ldrb	r2, [r2, #0]
 8000c7e:	2a00      	cmp	r2, #0
 8000c80:	d112      	bne.n	8000ca8 <HAL_PCD_EP_Receive+0x20c>
 8000c82:	6805      	ldr	r5, [r0, #0]
 8000c84:	3250      	adds	r2, #80	; 0x50
 8000c86:	5aaa      	ldrh	r2, [r5, r2]
 8000c88:	00cc      	lsls	r4, r1, #3
 8000c8a:	1a64      	subs	r4, r4, r1
 8000c8c:	00a4      	lsls	r4, r4, #2
 8000c8e:	1904      	adds	r4, r0, r4
 8000c90:	3409      	adds	r4, #9
 8000c92:	34ff      	adds	r4, #255	; 0xff
 8000c94:	7824      	ldrb	r4, [r4, #0]
 8000c96:	00e4      	lsls	r4, r4, #3
 8000c98:	1912      	adds	r2, r2, r4
 8000c9a:	4c0e      	ldr	r4, [pc, #56]	; (8000cd4 <HAL_PCD_EP_Receive+0x238>)
 8000c9c:	46a4      	mov	ip, r4
 8000c9e:	4465      	add	r5, ip
 8000ca0:	1952      	adds	r2, r2, r5
 8000ca2:	2b3e      	cmp	r3, #62	; 0x3e
 8000ca4:	d89e      	bhi.n	8000be4 <HAL_PCD_EP_Receive+0x148>
 8000ca6:	e7c9      	b.n	8000c3c <HAL_PCD_EP_Receive+0x1a0>
 8000ca8:	2a01      	cmp	r2, #1
 8000caa:	d000      	beq.n	8000cae <HAL_PCD_EP_Receive+0x212>
 8000cac:	e73f      	b.n	8000b2e <HAL_PCD_EP_Receive+0x92>
 8000cae:	6804      	ldr	r4, [r0, #0]
 8000cb0:	324f      	adds	r2, #79	; 0x4f
 8000cb2:	5aa5      	ldrh	r5, [r4, r2]
 8000cb4:	00ca      	lsls	r2, r1, #3
 8000cb6:	1a52      	subs	r2, r2, r1
 8000cb8:	0092      	lsls	r2, r2, #2
 8000cba:	1882      	adds	r2, r0, r2
 8000cbc:	3209      	adds	r2, #9
 8000cbe:	32ff      	adds	r2, #255	; 0xff
 8000cc0:	7812      	ldrb	r2, [r2, #0]
 8000cc2:	00d2      	lsls	r2, r2, #3
 8000cc4:	18a4      	adds	r4, r4, r2
 8000cc6:	192c      	adds	r4, r5, r4
 8000cc8:	4a02      	ldr	r2, [pc, #8]	; (8000cd4 <HAL_PCD_EP_Receive+0x238>)
 8000cca:	4694      	mov	ip, r2
 8000ccc:	4464      	add	r4, ip
 8000cce:	8023      	strh	r3, [r4, #0]
 8000cd0:	e72d      	b.n	8000b2e <HAL_PCD_EP_Receive+0x92>
 8000cd2:	46c0      	nop			; (mov r8, r8)
 8000cd4:	00000406 	.word	0x00000406
 8000cd8:	ffff8000 	.word	0xffff8000
 8000cdc:	ffffbf8f 	.word	0xffffbf8f
 8000ce0:	ffff8080 	.word	0xffff8080
 8000ce4:	00000402 	.word	0x00000402

08000ce8 <HAL_PCD_EP_GetRxCount>:
 8000ce8:	000b      	movs	r3, r1
 8000cea:	217f      	movs	r1, #127	; 0x7f
 8000cec:	4019      	ands	r1, r3
 8000cee:	00cb      	lsls	r3, r1, #3
 8000cf0:	1a59      	subs	r1, r3, r1
 8000cf2:	0089      	lsls	r1, r1, #2
 8000cf4:	1840      	adds	r0, r0, r1
 8000cf6:	3021      	adds	r0, #33	; 0x21
 8000cf8:	30ff      	adds	r0, #255	; 0xff
 8000cfa:	8800      	ldrh	r0, [r0, #0]
 8000cfc:	4770      	bx	lr
	...

08000d00 <HAL_PCD_EP_SetStall>:
 8000d00:	b530      	push	{r4, r5, lr}
 8000d02:	23f4      	movs	r3, #244	; 0xf4
 8000d04:	005b      	lsls	r3, r3, #1
 8000d06:	5cc3      	ldrb	r3, [r0, r3]
 8000d08:	2b01      	cmp	r3, #1
 8000d0a:	d052      	beq.n	8000db2 <HAL_PCD_EP_SetStall+0xb2>
 8000d0c:	23f4      	movs	r3, #244	; 0xf4
 8000d0e:	005b      	lsls	r3, r3, #1
 8000d10:	2201      	movs	r2, #1
 8000d12:	54c2      	strb	r2, [r0, r3]
 8000d14:	b24b      	sxtb	r3, r1
 8000d16:	2b00      	cmp	r3, #0
 8000d18:	db25      	blt.n	8000d66 <HAL_PCD_EP_SetStall+0x66>
 8000d1a:	00cb      	lsls	r3, r1, #3
 8000d1c:	1a5a      	subs	r2, r3, r1
 8000d1e:	0092      	lsls	r2, r2, #2
 8000d20:	1882      	adds	r2, r0, r2
 8000d22:	0014      	movs	r4, r2
 8000d24:	340b      	adds	r4, #11
 8000d26:	34ff      	adds	r4, #255	; 0xff
 8000d28:	2501      	movs	r5, #1
 8000d2a:	7025      	strb	r5, [r4, #0]
 8000d2c:	247f      	movs	r4, #127	; 0x7f
 8000d2e:	400c      	ands	r4, r1
 8000d30:	3209      	adds	r2, #9
 8000d32:	32ff      	adds	r2, #255	; 0xff
 8000d34:	7014      	strb	r4, [r2, #0]
 8000d36:	1a59      	subs	r1, r3, r1
 8000d38:	0089      	lsls	r1, r1, #2
 8000d3a:	1841      	adds	r1, r0, r1
 8000d3c:	310a      	adds	r1, #10
 8000d3e:	31ff      	adds	r1, #255	; 0xff
 8000d40:	2300      	movs	r3, #0
 8000d42:	700b      	strb	r3, [r1, #0]
 8000d44:	2c00      	cmp	r4, #0
 8000d46:	d128      	bne.n	8000d9a <HAL_PCD_EP_SetStall+0x9a>
 8000d48:	6801      	ldr	r1, [r0, #0]
 8000d4a:	880a      	ldrh	r2, [r1, #0]
 8000d4c:	4b1a      	ldr	r3, [pc, #104]	; (8000db8 <HAL_PCD_EP_SetStall+0xb8>)
 8000d4e:	401a      	ands	r2, r3
 8000d50:	4b1a      	ldr	r3, [pc, #104]	; (8000dbc <HAL_PCD_EP_SetStall+0xbc>)
 8000d52:	405a      	eors	r2, r3
 8000d54:	4b1a      	ldr	r3, [pc, #104]	; (8000dc0 <HAL_PCD_EP_SetStall+0xc0>)
 8000d56:	4313      	orrs	r3, r2
 8000d58:	800b      	strh	r3, [r1, #0]
 8000d5a:	23f4      	movs	r3, #244	; 0xf4
 8000d5c:	005b      	lsls	r3, r3, #1
 8000d5e:	2200      	movs	r2, #0
 8000d60:	54c2      	strb	r2, [r0, r3]
 8000d62:	2000      	movs	r0, #0
 8000d64:	bd30      	pop	{r4, r5, pc}
 8000d66:	237f      	movs	r3, #127	; 0x7f
 8000d68:	4019      	ands	r1, r3
 8000d6a:	00cb      	lsls	r3, r1, #3
 8000d6c:	1a5b      	subs	r3, r3, r1
 8000d6e:	009b      	lsls	r3, r3, #2
 8000d70:	18c3      	adds	r3, r0, r3
 8000d72:	001c      	movs	r4, r3
 8000d74:	342a      	adds	r4, #42	; 0x2a
 8000d76:	7022      	strb	r2, [r4, #0]
 8000d78:	3c02      	subs	r4, #2
 8000d7a:	7021      	strb	r1, [r4, #0]
 8000d7c:	3329      	adds	r3, #41	; 0x29
 8000d7e:	701a      	strb	r2, [r3, #0]
 8000d80:	2900      	cmp	r1, #0
 8000d82:	d0e1      	beq.n	8000d48 <HAL_PCD_EP_SetStall+0x48>
 8000d84:	0089      	lsls	r1, r1, #2
 8000d86:	6804      	ldr	r4, [r0, #0]
 8000d88:	5a63      	ldrh	r3, [r4, r1]
 8000d8a:	4a0e      	ldr	r2, [pc, #56]	; (8000dc4 <HAL_PCD_EP_SetStall+0xc4>)
 8000d8c:	4013      	ands	r3, r2
 8000d8e:	2210      	movs	r2, #16
 8000d90:	4053      	eors	r3, r2
 8000d92:	4a0b      	ldr	r2, [pc, #44]	; (8000dc0 <HAL_PCD_EP_SetStall+0xc0>)
 8000d94:	4313      	orrs	r3, r2
 8000d96:	5263      	strh	r3, [r4, r1]
 8000d98:	e7df      	b.n	8000d5a <HAL_PCD_EP_SetStall+0x5a>
 8000d9a:	00a4      	lsls	r4, r4, #2
 8000d9c:	6801      	ldr	r1, [r0, #0]
 8000d9e:	5b0a      	ldrh	r2, [r1, r4]
 8000da0:	4b09      	ldr	r3, [pc, #36]	; (8000dc8 <HAL_PCD_EP_SetStall+0xc8>)
 8000da2:	401a      	ands	r2, r3
 8000da4:	2380      	movs	r3, #128	; 0x80
 8000da6:	015b      	lsls	r3, r3, #5
 8000da8:	405a      	eors	r2, r3
 8000daa:	4b05      	ldr	r3, [pc, #20]	; (8000dc0 <HAL_PCD_EP_SetStall+0xc0>)
 8000dac:	4313      	orrs	r3, r2
 8000dae:	530b      	strh	r3, [r1, r4]
 8000db0:	e7d3      	b.n	8000d5a <HAL_PCD_EP_SetStall+0x5a>
 8000db2:	2002      	movs	r0, #2
 8000db4:	e7d6      	b.n	8000d64 <HAL_PCD_EP_SetStall+0x64>
 8000db6:	46c0      	nop			; (mov r8, r8)
 8000db8:	ffffbfbf 	.word	0xffffbfbf
 8000dbc:	00001010 	.word	0x00001010
 8000dc0:	ffff8080 	.word	0xffff8080
 8000dc4:	ffff8fbf 	.word	0xffff8fbf
 8000dc8:	ffffbf8f 	.word	0xffffbf8f

08000dcc <HAL_PCD_EP_ClrStall>:
 8000dcc:	b510      	push	{r4, lr}
 8000dce:	000c      	movs	r4, r1
 8000dd0:	b24a      	sxtb	r2, r1
 8000dd2:	2a00      	cmp	r2, #0
 8000dd4:	db35      	blt.n	8000e42 <HAL_PCD_EP_ClrStall+0x76>
 8000dd6:	00cb      	lsls	r3, r1, #3
 8000dd8:	1a5b      	subs	r3, r3, r1
 8000dda:	009b      	lsls	r3, r3, #2
 8000ddc:	3309      	adds	r3, #9
 8000dde:	33ff      	adds	r3, #255	; 0xff
 8000de0:	18c3      	adds	r3, r0, r3
 8000de2:	2100      	movs	r1, #0
 8000de4:	7099      	strb	r1, [r3, #2]
 8000de6:	317f      	adds	r1, #127	; 0x7f
 8000de8:	4021      	ands	r1, r4
 8000dea:	7019      	strb	r1, [r3, #0]
 8000dec:	0fd2      	lsrs	r2, r2, #31
 8000dee:	705a      	strb	r2, [r3, #1]
 8000df0:	22f4      	movs	r2, #244	; 0xf4
 8000df2:	0052      	lsls	r2, r2, #1
 8000df4:	5c82      	ldrb	r2, [r0, r2]
 8000df6:	2a01      	cmp	r2, #1
 8000df8:	d044      	beq.n	8000e84 <HAL_PCD_EP_ClrStall+0xb8>
 8000dfa:	22f4      	movs	r2, #244	; 0xf4
 8000dfc:	0052      	lsls	r2, r2, #1
 8000dfe:	2101      	movs	r1, #1
 8000e00:	5481      	strb	r1, [r0, r2]
 8000e02:	785a      	ldrb	r2, [r3, #1]
 8000e04:	2a00      	cmp	r2, #0
 8000e06:	d024      	beq.n	8000e52 <HAL_PCD_EP_ClrStall+0x86>
 8000e08:	781a      	ldrb	r2, [r3, #0]
 8000e0a:	0092      	lsls	r2, r2, #2
 8000e0c:	6801      	ldr	r1, [r0, #0]
 8000e0e:	188c      	adds	r4, r1, r2
 8000e10:	5a8a      	ldrh	r2, [r1, r2]
 8000e12:	0651      	lsls	r1, r2, #25
 8000e14:	d504      	bpl.n	8000e20 <HAL_PCD_EP_ClrStall+0x54>
 8000e16:	491c      	ldr	r1, [pc, #112]	; (8000e88 <HAL_PCD_EP_ClrStall+0xbc>)
 8000e18:	400a      	ands	r2, r1
 8000e1a:	491c      	ldr	r1, [pc, #112]	; (8000e8c <HAL_PCD_EP_ClrStall+0xc0>)
 8000e1c:	430a      	orrs	r2, r1
 8000e1e:	8022      	strh	r2, [r4, #0]
 8000e20:	781a      	ldrb	r2, [r3, #0]
 8000e22:	0092      	lsls	r2, r2, #2
 8000e24:	6804      	ldr	r4, [r0, #0]
 8000e26:	5aa3      	ldrh	r3, [r4, r2]
 8000e28:	4919      	ldr	r1, [pc, #100]	; (8000e90 <HAL_PCD_EP_ClrStall+0xc4>)
 8000e2a:	400b      	ands	r3, r1
 8000e2c:	2130      	movs	r1, #48	; 0x30
 8000e2e:	404b      	eors	r3, r1
 8000e30:	4918      	ldr	r1, [pc, #96]	; (8000e94 <HAL_PCD_EP_ClrStall+0xc8>)
 8000e32:	430b      	orrs	r3, r1
 8000e34:	52a3      	strh	r3, [r4, r2]
 8000e36:	23f4      	movs	r3, #244	; 0xf4
 8000e38:	005b      	lsls	r3, r3, #1
 8000e3a:	2200      	movs	r2, #0
 8000e3c:	54c2      	strb	r2, [r0, r3]
 8000e3e:	2000      	movs	r0, #0
 8000e40:	bd10      	pop	{r4, pc}
 8000e42:	217f      	movs	r1, #127	; 0x7f
 8000e44:	4021      	ands	r1, r4
 8000e46:	00cb      	lsls	r3, r1, #3
 8000e48:	1a5b      	subs	r3, r3, r1
 8000e4a:	009b      	lsls	r3, r3, #2
 8000e4c:	3328      	adds	r3, #40	; 0x28
 8000e4e:	18c3      	adds	r3, r0, r3
 8000e50:	e7c7      	b.n	8000de2 <HAL_PCD_EP_ClrStall+0x16>
 8000e52:	781a      	ldrb	r2, [r3, #0]
 8000e54:	0092      	lsls	r2, r2, #2
 8000e56:	6801      	ldr	r1, [r0, #0]
 8000e58:	188c      	adds	r4, r1, r2
 8000e5a:	5a8a      	ldrh	r2, [r1, r2]
 8000e5c:	0451      	lsls	r1, r2, #17
 8000e5e:	d504      	bpl.n	8000e6a <HAL_PCD_EP_ClrStall+0x9e>
 8000e60:	4909      	ldr	r1, [pc, #36]	; (8000e88 <HAL_PCD_EP_ClrStall+0xbc>)
 8000e62:	400a      	ands	r2, r1
 8000e64:	490c      	ldr	r1, [pc, #48]	; (8000e98 <HAL_PCD_EP_ClrStall+0xcc>)
 8000e66:	430a      	orrs	r2, r1
 8000e68:	8022      	strh	r2, [r4, #0]
 8000e6a:	781b      	ldrb	r3, [r3, #0]
 8000e6c:	009b      	lsls	r3, r3, #2
 8000e6e:	6804      	ldr	r4, [r0, #0]
 8000e70:	5ae1      	ldrh	r1, [r4, r3]
 8000e72:	4a0a      	ldr	r2, [pc, #40]	; (8000e9c <HAL_PCD_EP_ClrStall+0xd0>)
 8000e74:	4011      	ands	r1, r2
 8000e76:	22c0      	movs	r2, #192	; 0xc0
 8000e78:	0192      	lsls	r2, r2, #6
 8000e7a:	4051      	eors	r1, r2
 8000e7c:	4a05      	ldr	r2, [pc, #20]	; (8000e94 <HAL_PCD_EP_ClrStall+0xc8>)
 8000e7e:	430a      	orrs	r2, r1
 8000e80:	52e2      	strh	r2, [r4, r3]
 8000e82:	e7d8      	b.n	8000e36 <HAL_PCD_EP_ClrStall+0x6a>
 8000e84:	2002      	movs	r0, #2
 8000e86:	e7db      	b.n	8000e40 <HAL_PCD_EP_ClrStall+0x74>
 8000e88:	00000f0f 	.word	0x00000f0f
 8000e8c:	ffff80c0 	.word	0xffff80c0
 8000e90:	ffff8fbf 	.word	0xffff8fbf
 8000e94:	ffff8080 	.word	0xffff8080
 8000e98:	ffffc080 	.word	0xffffc080
 8000e9c:	ffffbf8f 	.word	0xffffbf8f

08000ea0 <PCD_WritePMA>:
 8000ea0:	b510      	push	{r4, lr}
 8000ea2:	1c5c      	adds	r4, r3, #1
 8000ea4:	0864      	lsrs	r4, r4, #1
 8000ea6:	2380      	movs	r3, #128	; 0x80
 8000ea8:	00db      	lsls	r3, r3, #3
 8000eaa:	469c      	mov	ip, r3
 8000eac:	4460      	add	r0, ip
 8000eae:	1880      	adds	r0, r0, r2
 8000eb0:	2c00      	cmp	r4, #0
 8000eb2:	d00b      	beq.n	8000ecc <PCD_WritePMA+0x2c>
 8000eb4:	0064      	lsls	r4, r4, #1
 8000eb6:	190c      	adds	r4, r1, r4
 8000eb8:	000b      	movs	r3, r1
 8000eba:	1a40      	subs	r0, r0, r1
 8000ebc:	7859      	ldrb	r1, [r3, #1]
 8000ebe:	0209      	lsls	r1, r1, #8
 8000ec0:	781a      	ldrb	r2, [r3, #0]
 8000ec2:	430a      	orrs	r2, r1
 8000ec4:	52c2      	strh	r2, [r0, r3]
 8000ec6:	3302      	adds	r3, #2
 8000ec8:	429c      	cmp	r4, r3
 8000eca:	d1f7      	bne.n	8000ebc <PCD_WritePMA+0x1c>
 8000ecc:	bd10      	pop	{r4, pc}
	...

08000ed0 <HAL_PCD_EP_Transmit>:
 8000ed0:	b5f8      	push	{r3, r4, r5, r6, r7, lr}
 8000ed2:	0005      	movs	r5, r0
 8000ed4:	247f      	movs	r4, #127	; 0x7f
 8000ed6:	400c      	ands	r4, r1
 8000ed8:	00e1      	lsls	r1, r4, #3
 8000eda:	1b09      	subs	r1, r1, r4
 8000edc:	0089      	lsls	r1, r1, #2
 8000ede:	1841      	adds	r1, r0, r1
 8000ee0:	638a      	str	r2, [r1, #56]	; 0x38
 8000ee2:	63cb      	str	r3, [r1, #60]	; 0x3c
 8000ee4:	2200      	movs	r2, #0
 8000ee6:	640a      	str	r2, [r1, #64]	; 0x40
 8000ee8:	000a      	movs	r2, r1
 8000eea:	3229      	adds	r2, #41	; 0x29
 8000eec:	2001      	movs	r0, #1
 8000eee:	7010      	strb	r0, [r2, #0]
 8000ef0:	3a01      	subs	r2, #1
 8000ef2:	7014      	strb	r4, [r2, #0]
 8000ef4:	6b4a      	ldr	r2, [r1, #52]	; 0x34
 8000ef6:	2100      	movs	r1, #0
 8000ef8:	4293      	cmp	r3, r2
 8000efa:	d901      	bls.n	8000f00 <HAL_PCD_EP_Transmit+0x30>
 8000efc:	1a99      	subs	r1, r3, r2
 8000efe:	0013      	movs	r3, r2
 8000f00:	00e2      	lsls	r2, r4, #3
 8000f02:	1b12      	subs	r2, r2, r4
 8000f04:	0092      	lsls	r2, r2, #2
 8000f06:	18aa      	adds	r2, r5, r2
 8000f08:	63d1      	str	r1, [r2, #60]	; 0x3c
 8000f0a:	3232      	adds	r2, #50	; 0x32
 8000f0c:	7812      	ldrb	r2, [r2, #0]
 8000f0e:	2a00      	cmp	r2, #0
 8000f10:	d028      	beq.n	8000f64 <HAL_PCD_EP_Transmit+0x94>
 8000f12:	6829      	ldr	r1, [r5, #0]
 8000f14:	00e2      	lsls	r2, r4, #3
 8000f16:	1b12      	subs	r2, r2, r4
 8000f18:	0092      	lsls	r2, r2, #2
 8000f1a:	18aa      	adds	r2, r5, r2
 8000f1c:	3228      	adds	r2, #40	; 0x28
 8000f1e:	7810      	ldrb	r0, [r2, #0]
 8000f20:	0082      	lsls	r2, r0, #2
 8000f22:	5a52      	ldrh	r2, [r2, r1]
 8000f24:	0652      	lsls	r2, r2, #25
 8000f26:	d400      	bmi.n	8000f2a <HAL_PCD_EP_Transmit+0x5a>
 8000f28:	e07b      	b.n	8001022 <HAL_PCD_EP_Transmit+0x152>
 8000f2a:	00e2      	lsls	r2, r4, #3
 8000f2c:	1b12      	subs	r2, r2, r4
 8000f2e:	0092      	lsls	r2, r2, #2
 8000f30:	18aa      	adds	r2, r5, r2
 8000f32:	3229      	adds	r2, #41	; 0x29
 8000f34:	7812      	ldrb	r2, [r2, #0]
 8000f36:	2a00      	cmp	r2, #0
 8000f38:	d135      	bne.n	8000fa6 <HAL_PCD_EP_Transmit+0xd6>
 8000f3a:	3250      	adds	r2, #80	; 0x50
 8000f3c:	5a8a      	ldrh	r2, [r1, r2]
 8000f3e:	00c0      	lsls	r0, r0, #3
 8000f40:	1810      	adds	r0, r2, r0
 8000f42:	4a5c      	ldr	r2, [pc, #368]	; (80010b4 <HAL_PCD_EP_Transmit+0x1e4>)
 8000f44:	4694      	mov	ip, r2
 8000f46:	4461      	add	r1, ip
 8000f48:	1840      	adds	r0, r0, r1
 8000f4a:	2b3e      	cmp	r3, #62	; 0x3e
 8000f4c:	d922      	bls.n	8000f94 <HAL_PCD_EP_Transmit+0xc4>
 8000f4e:	095a      	lsrs	r2, r3, #5
 8000f50:	b292      	uxth	r2, r2
 8000f52:	06d9      	lsls	r1, r3, #27
 8000f54:	d101      	bne.n	8000f5a <HAL_PCD_EP_Transmit+0x8a>
 8000f56:	3a01      	subs	r2, #1
 8000f58:	b292      	uxth	r2, r2
 8000f5a:	0292      	lsls	r2, r2, #10
 8000f5c:	4956      	ldr	r1, [pc, #344]	; (80010b8 <HAL_PCD_EP_Transmit+0x1e8>)
 8000f5e:	430a      	orrs	r2, r1
 8000f60:	8002      	strh	r2, [r0, #0]
 8000f62:	e022      	b.n	8000faa <HAL_PCD_EP_Transmit+0xda>
 8000f64:	b29f      	uxth	r7, r3
 8000f66:	00e6      	lsls	r6, r4, #3
 8000f68:	1b36      	subs	r6, r6, r4
 8000f6a:	00b6      	lsls	r6, r6, #2
 8000f6c:	19ae      	adds	r6, r5, r6
 8000f6e:	8db2      	ldrh	r2, [r6, #44]	; 0x2c
 8000f70:	003b      	movs	r3, r7
 8000f72:	6bb1      	ldr	r1, [r6, #56]	; 0x38
 8000f74:	6828      	ldr	r0, [r5, #0]
 8000f76:	f7ff ff93 	bl	8000ea0 <PCD_WritePMA>
 8000f7a:	682a      	ldr	r2, [r5, #0]
 8000f7c:	2350      	movs	r3, #80	; 0x50
 8000f7e:	5ad3      	ldrh	r3, [r2, r3]
 8000f80:	3628      	adds	r6, #40	; 0x28
 8000f82:	7831      	ldrb	r1, [r6, #0]
 8000f84:	00c9      	lsls	r1, r1, #3
 8000f86:	1852      	adds	r2, r2, r1
 8000f88:	189b      	adds	r3, r3, r2
 8000f8a:	4a4c      	ldr	r2, [pc, #304]	; (80010bc <HAL_PCD_EP_Transmit+0x1ec>)
 8000f8c:	4694      	mov	ip, r2
 8000f8e:	4463      	add	r3, ip
 8000f90:	801f      	strh	r7, [r3, #0]
 8000f92:	e02a      	b.n	8000fea <HAL_PCD_EP_Transmit+0x11a>
 8000f94:	085a      	lsrs	r2, r3, #1
 8000f96:	b292      	uxth	r2, r2
 8000f98:	07d9      	lsls	r1, r3, #31
 8000f9a:	d501      	bpl.n	8000fa0 <HAL_PCD_EP_Transmit+0xd0>
 8000f9c:	3201      	adds	r2, #1
 8000f9e:	b292      	uxth	r2, r2
 8000fa0:	0292      	lsls	r2, r2, #10
 8000fa2:	8002      	strh	r2, [r0, #0]
 8000fa4:	e001      	b.n	8000faa <HAL_PCD_EP_Transmit+0xda>
 8000fa6:	2a01      	cmp	r2, #1
 8000fa8:	d031      	beq.n	800100e <HAL_PCD_EP_Transmit+0x13e>
 8000faa:	00e2      	lsls	r2, r4, #3
 8000fac:	1b12      	subs	r2, r2, r4
 8000fae:	0092      	lsls	r2, r2, #2
 8000fb0:	18aa      	adds	r2, r5, r2
 8000fb2:	8e12      	ldrh	r2, [r2, #48]	; 0x30
 8000fb4:	b29b      	uxth	r3, r3
 8000fb6:	00e6      	lsls	r6, r4, #3
 8000fb8:	1b36      	subs	r6, r6, r4
 8000fba:	00b6      	lsls	r6, r6, #2
 8000fbc:	19ae      	adds	r6, r5, r6
 8000fbe:	6bb1      	ldr	r1, [r6, #56]	; 0x38
 8000fc0:	6828      	ldr	r0, [r5, #0]
 8000fc2:	f7ff ff6d 	bl	8000ea0 <PCD_WritePMA>
 8000fc6:	3629      	adds	r6, #41	; 0x29
 8000fc8:	7833      	ldrb	r3, [r6, #0]
 8000fca:	2b00      	cmp	r3, #0
 8000fcc:	d161      	bne.n	8001092 <HAL_PCD_EP_Transmit+0x1c2>
 8000fce:	00e3      	lsls	r3, r4, #3
 8000fd0:	1b1b      	subs	r3, r3, r4
 8000fd2:	009b      	lsls	r3, r3, #2
 8000fd4:	18eb      	adds	r3, r5, r3
 8000fd6:	3328      	adds	r3, #40	; 0x28
 8000fd8:	781b      	ldrb	r3, [r3, #0]
 8000fda:	009b      	lsls	r3, r3, #2
 8000fdc:	6828      	ldr	r0, [r5, #0]
 8000fde:	5ac2      	ldrh	r2, [r0, r3]
 8000fe0:	4937      	ldr	r1, [pc, #220]	; (80010c0 <HAL_PCD_EP_Transmit+0x1f0>)
 8000fe2:	4011      	ands	r1, r2
 8000fe4:	4a37      	ldr	r2, [pc, #220]	; (80010c4 <HAL_PCD_EP_Transmit+0x1f4>)
 8000fe6:	430a      	orrs	r2, r1
 8000fe8:	52c2      	strh	r2, [r0, r3]
 8000fea:	00e1      	lsls	r1, r4, #3
 8000fec:	1b0c      	subs	r4, r1, r4
 8000fee:	00a4      	lsls	r4, r4, #2
 8000ff0:	192c      	adds	r4, r5, r4
 8000ff2:	3428      	adds	r4, #40	; 0x28
 8000ff4:	7822      	ldrb	r2, [r4, #0]
 8000ff6:	0092      	lsls	r2, r2, #2
 8000ff8:	6828      	ldr	r0, [r5, #0]
 8000ffa:	5a83      	ldrh	r3, [r0, r2]
 8000ffc:	4932      	ldr	r1, [pc, #200]	; (80010c8 <HAL_PCD_EP_Transmit+0x1f8>)
 8000ffe:	400b      	ands	r3, r1
 8001000:	2130      	movs	r1, #48	; 0x30
 8001002:	404b      	eors	r3, r1
 8001004:	4931      	ldr	r1, [pc, #196]	; (80010cc <HAL_PCD_EP_Transmit+0x1fc>)
 8001006:	430b      	orrs	r3, r1
 8001008:	5283      	strh	r3, [r0, r2]
 800100a:	2000      	movs	r0, #0
 800100c:	bdf8      	pop	{r3, r4, r5, r6, r7, pc}
 800100e:	324f      	adds	r2, #79	; 0x4f
 8001010:	5a8a      	ldrh	r2, [r1, r2]
 8001012:	00c0      	lsls	r0, r0, #3
 8001014:	1809      	adds	r1, r1, r0
 8001016:	1851      	adds	r1, r2, r1
 8001018:	4a26      	ldr	r2, [pc, #152]	; (80010b4 <HAL_PCD_EP_Transmit+0x1e4>)
 800101a:	4694      	mov	ip, r2
 800101c:	4461      	add	r1, ip
 800101e:	800b      	strh	r3, [r1, #0]
 8001020:	e7c3      	b.n	8000faa <HAL_PCD_EP_Transmit+0xda>
 8001022:	00e2      	lsls	r2, r4, #3
 8001024:	1b12      	subs	r2, r2, r4
 8001026:	0092      	lsls	r2, r2, #2
 8001028:	18aa      	adds	r2, r5, r2
 800102a:	3229      	adds	r2, #41	; 0x29
 800102c:	7812      	ldrb	r2, [r2, #0]
 800102e:	2a00      	cmp	r2, #0
 8001030:	d11d      	bne.n	800106e <HAL_PCD_EP_Transmit+0x19e>
 8001032:	3250      	adds	r2, #80	; 0x50
 8001034:	5a8a      	ldrh	r2, [r1, r2]
 8001036:	00c0      	lsls	r0, r0, #3
 8001038:	1810      	adds	r0, r2, r0
 800103a:	4a20      	ldr	r2, [pc, #128]	; (80010bc <HAL_PCD_EP_Transmit+0x1ec>)
 800103c:	4694      	mov	ip, r2
 800103e:	4461      	add	r1, ip
 8001040:	1840      	adds	r0, r0, r1
 8001042:	2b3e      	cmp	r3, #62	; 0x3e
 8001044:	d90a      	bls.n	800105c <HAL_PCD_EP_Transmit+0x18c>
 8001046:	095a      	lsrs	r2, r3, #5
 8001048:	b292      	uxth	r2, r2
 800104a:	06d9      	lsls	r1, r3, #27
 800104c:	d101      	bne.n	8001052 <HAL_PCD_EP_Transmit+0x182>
 800104e:	3a01      	subs	r2, #1
 8001050:	b292      	uxth	r2, r2
 8001052:	0292      	lsls	r2, r2, #10
 8001054:	4918      	ldr	r1, [pc, #96]	; (80010b8 <HAL_PCD_EP_Transmit+0x1e8>)
 8001056:	430a      	orrs	r2, r1
 8001058:	8002      	strh	r2, [r0, #0]
 800105a:	e00a      	b.n	8001072 <HAL_PCD_EP_Transmit+0x1a2>
 800105c:	085a      	lsrs	r2, r3, #1
 800105e:	b292      	uxth	r2, r2
 8001060:	07d9      	lsls	r1, r3, #31
 8001062:	d501      	bpl.n	8001068 <HAL_PCD_EP_Transmit+0x198>
 8001064:	3201      	adds	r2, #1
 8001066:	b292      	uxth	r2, r2
 8001068:	0292      	lsls	r2, r2, #10
 800106a:	8002      	strh	r2, [r0, #0]
 800106c:	e001      	b.n	8001072 <HAL_PCD_EP_Transmit+0x1a2>
 800106e:	2a01      	cmp	r2, #1
 8001070:	d005      	beq.n	800107e <HAL_PCD_EP_Transmit+0x1ae>
 8001072:	00e2      	lsls	r2, r4, #3
 8001074:	1b12      	subs	r2, r2, r4
 8001076:	0092      	lsls	r2, r2, #2
 8001078:	18aa      	adds	r2, r5, r2
 800107a:	8dd2      	ldrh	r2, [r2, #46]	; 0x2e
 800107c:	e79a      	b.n	8000fb4 <HAL_PCD_EP_Transmit+0xe4>
 800107e:	324f      	adds	r2, #79	; 0x4f
 8001080:	5a8a      	ldrh	r2, [r1, r2]
 8001082:	00c0      	lsls	r0, r0, #3
 8001084:	1809      	adds	r1, r1, r0
 8001086:	1851      	adds	r1, r2, r1
 8001088:	4a0c      	ldr	r2, [pc, #48]	; (80010bc <HAL_PCD_EP_Transmit+0x1ec>)
 800108a:	4694      	mov	ip, r2
 800108c:	4461      	add	r1, ip
 800108e:	800b      	strh	r3, [r1, #0]
 8001090:	e7ef      	b.n	8001072 <HAL_PCD_EP_Transmit+0x1a2>
 8001092:	2b01      	cmp	r3, #1
 8001094:	d1a9      	bne.n	8000fea <HAL_PCD_EP_Transmit+0x11a>
 8001096:	00e3      	lsls	r3, r4, #3
 8001098:	1b1b      	subs	r3, r3, r4
 800109a:	009b      	lsls	r3, r3, #2
 800109c:	18eb      	adds	r3, r5, r3
 800109e:	3328      	adds	r3, #40	; 0x28
 80010a0:	781b      	ldrb	r3, [r3, #0]
 80010a2:	009b      	lsls	r3, r3, #2
 80010a4:	6828      	ldr	r0, [r5, #0]
 80010a6:	5ac2      	ldrh	r2, [r0, r3]
 80010a8:	4905      	ldr	r1, [pc, #20]	; (80010c0 <HAL_PCD_EP_Transmit+0x1f0>)
 80010aa:	4011      	ands	r1, r2
 80010ac:	4a08      	ldr	r2, [pc, #32]	; (80010d0 <HAL_PCD_EP_Transmit+0x200>)
 80010ae:	430a      	orrs	r2, r1
 80010b0:	52c2      	strh	r2, [r0, r3]
 80010b2:	e79a      	b.n	8000fea <HAL_PCD_EP_Transmit+0x11a>
 80010b4:	00000406 	.word	0x00000406
 80010b8:	ffff8000 	.word	0xffff8000
 80010bc:	00000402 	.word	0x00000402
 80010c0:	00000f0f 	.word	0x00000f0f
 80010c4:	ffff80c0 	.word	0xffff80c0
 80010c8:	ffff8fbf 	.word	0xffff8fbf
 80010cc:	ffff8080 	.word	0xffff8080
 80010d0:	ffffc080 	.word	0xffffc080

080010d4 <PCD_ReadPMA>:
 80010d4:	b5f0      	push	{r4, r5, r6, r7, lr}
 80010d6:	46c6      	mov	lr, r8
 80010d8:	b500      	push	{lr}
 80010da:	469c      	mov	ip, r3
 80010dc:	085b      	lsrs	r3, r3, #1
 80010de:	2480      	movs	r4, #128	; 0x80
 80010e0:	00e4      	lsls	r4, r4, #3
 80010e2:	46a0      	mov	r8, r4
 80010e4:	4440      	add	r0, r8
 80010e6:	1882      	adds	r2, r0, r2
 80010e8:	0010      	movs	r0, r2
 80010ea:	2b00      	cmp	r3, #0
 80010ec:	d00d      	beq.n	800110a <PCD_ReadPMA+0x36>
 80010ee:	000c      	movs	r4, r1
 80010f0:	001e      	movs	r6, r3
 80010f2:	1a57      	subs	r7, r2, r1
 80010f4:	5b3d      	ldrh	r5, [r7, r4]
 80010f6:	7025      	strb	r5, [r4, #0]
 80010f8:	0a2d      	lsrs	r5, r5, #8
 80010fa:	7065      	strb	r5, [r4, #1]
 80010fc:	3e01      	subs	r6, #1
 80010fe:	3402      	adds	r4, #2
 8001100:	2e00      	cmp	r6, #0
 8001102:	d1f7      	bne.n	80010f4 <PCD_ReadPMA+0x20>
 8001104:	005b      	lsls	r3, r3, #1
 8001106:	18d0      	adds	r0, r2, r3
 8001108:	18c9      	adds	r1, r1, r3
 800110a:	4663      	mov	r3, ip
 800110c:	07db      	lsls	r3, r3, #31
 800110e:	d501      	bpl.n	8001114 <PCD_ReadPMA+0x40>
 8001110:	8803      	ldrh	r3, [r0, #0]
 8001112:	700b      	strb	r3, [r1, #0]
 8001114:	bc80      	pop	{r7}
 8001116:	46b8      	mov	r8, r7
 8001118:	bdf0      	pop	{r4, r5, r6, r7, pc}
	...

0800111c <HAL_PCD_IRQHandler>:
 800111c:	b5f0      	push	{r4, r5, r6, r7, lr}
 800111e:	46d6      	mov	lr, sl
 8001120:	464f      	mov	r7, r9
 8001122:	4646      	mov	r6, r8
 8001124:	b5c0      	push	{r6, r7, lr}
 8001126:	b082      	sub	sp, #8
 8001128:	0004      	movs	r4, r0
 800112a:	6800      	ldr	r0, [r0, #0]
 800112c:	2344      	movs	r3, #68	; 0x44
 800112e:	5ac3      	ldrh	r3, [r0, r3]
 8001130:	b21b      	sxth	r3, r3
 8001132:	2b00      	cmp	r3, #0
 8001134:	db4f      	blt.n	80011d6 <HAL_PCD_IRQHandler+0xba>
 8001136:	6823      	ldr	r3, [r4, #0]
 8001138:	2244      	movs	r2, #68	; 0x44
 800113a:	5a9a      	ldrh	r2, [r3, r2]
 800113c:	0552      	lsls	r2, r2, #21
 800113e:	d500      	bpl.n	8001142 <HAL_PCD_IRQHandler+0x26>
 8001140:	e2a0      	b.n	8001684 <HAL_PCD_IRQHandler+0x568>
 8001142:	6823      	ldr	r3, [r4, #0]
 8001144:	2244      	movs	r2, #68	; 0x44
 8001146:	5a9a      	ldrh	r2, [r3, r2]
 8001148:	0452      	lsls	r2, r2, #17
 800114a:	d504      	bpl.n	8001156 <HAL_PCD_IRQHandler+0x3a>
 800114c:	2144      	movs	r1, #68	; 0x44
 800114e:	5a5a      	ldrh	r2, [r3, r1]
 8001150:	48c1      	ldr	r0, [pc, #772]	; (8001458 <HAL_PCD_IRQHandler+0x33c>)
 8001152:	4002      	ands	r2, r0
 8001154:	525a      	strh	r2, [r3, r1]
 8001156:	6823      	ldr	r3, [r4, #0]
 8001158:	2244      	movs	r2, #68	; 0x44
 800115a:	5a9a      	ldrh	r2, [r3, r2]
 800115c:	0492      	lsls	r2, r2, #18
 800115e:	d504      	bpl.n	800116a <HAL_PCD_IRQHandler+0x4e>
 8001160:	2144      	movs	r1, #68	; 0x44
 8001162:	5a5a      	ldrh	r2, [r3, r1]
 8001164:	48bd      	ldr	r0, [pc, #756]	; (800145c <HAL_PCD_IRQHandler+0x340>)
 8001166:	4002      	ands	r2, r0
 8001168:	525a      	strh	r2, [r3, r1]
 800116a:	6823      	ldr	r3, [r4, #0]
 800116c:	2244      	movs	r2, #68	; 0x44
 800116e:	5a9a      	ldrh	r2, [r3, r2]
 8001170:	04d2      	lsls	r2, r2, #19
 8001172:	d500      	bpl.n	8001176 <HAL_PCD_IRQHandler+0x5a>
 8001174:	e293      	b.n	800169e <HAL_PCD_IRQHandler+0x582>
 8001176:	6823      	ldr	r3, [r4, #0]
 8001178:	2244      	movs	r2, #68	; 0x44
 800117a:	5a9a      	ldrh	r2, [r3, r2]
 800117c:	0512      	lsls	r2, r2, #20
 800117e:	d514      	bpl.n	80011aa <HAL_PCD_IRQHandler+0x8e>
 8001180:	2244      	movs	r2, #68	; 0x44
 8001182:	5a99      	ldrh	r1, [r3, r2]
 8001184:	48b6      	ldr	r0, [pc, #728]	; (8001460 <HAL_PCD_IRQHandler+0x344>)
 8001186:	4001      	ands	r1, r0
 8001188:	5299      	strh	r1, [r3, r2]
 800118a:	6820      	ldr	r0, [r4, #0]
 800118c:	2340      	movs	r3, #64	; 0x40
 800118e:	5ac1      	ldrh	r1, [r0, r3]
 8001190:	2508      	movs	r5, #8
 8001192:	4329      	orrs	r1, r5
 8001194:	52c1      	strh	r1, [r0, r3]
 8001196:	6820      	ldr	r0, [r4, #0]
 8001198:	5ac1      	ldrh	r1, [r0, r3]
 800119a:	3d04      	subs	r5, #4
 800119c:	4329      	orrs	r1, r5
 800119e:	52c1      	strh	r1, [r0, r3]
 80011a0:	6823      	ldr	r3, [r4, #0]
 80011a2:	5a9b      	ldrh	r3, [r3, r2]
 80011a4:	04db      	lsls	r3, r3, #19
 80011a6:	d400      	bmi.n	80011aa <HAL_PCD_IRQHandler+0x8e>
 80011a8:	e28b      	b.n	80016c2 <HAL_PCD_IRQHandler+0x5a6>
 80011aa:	6823      	ldr	r3, [r4, #0]
 80011ac:	2244      	movs	r2, #68	; 0x44
 80011ae:	5a9a      	ldrh	r2, [r3, r2]
 80011b0:	0592      	lsls	r2, r2, #22
 80011b2:	d500      	bpl.n	80011b6 <HAL_PCD_IRQHandler+0x9a>
 80011b4:	e289      	b.n	80016ca <HAL_PCD_IRQHandler+0x5ae>
 80011b6:	6823      	ldr	r3, [r4, #0]
 80011b8:	2244      	movs	r2, #68	; 0x44
 80011ba:	5a9a      	ldrh	r2, [r3, r2]
 80011bc:	05d2      	lsls	r2, r2, #23
 80011be:	d504      	bpl.n	80011ca <HAL_PCD_IRQHandler+0xae>
 80011c0:	2144      	movs	r1, #68	; 0x44
 80011c2:	5a5a      	ldrh	r2, [r3, r1]
 80011c4:	48a7      	ldr	r0, [pc, #668]	; (8001464 <HAL_PCD_IRQHandler+0x348>)
 80011c6:	4002      	ands	r2, r0
 80011c8:	525a      	strh	r2, [r3, r1]
 80011ca:	b002      	add	sp, #8
 80011cc:	bce0      	pop	{r5, r6, r7}
 80011ce:	46ba      	mov	sl, r7
 80011d0:	46b1      	mov	r9, r6
 80011d2:	46a8      	mov	r8, r5
 80011d4:	bdf0      	pop	{r4, r5, r6, r7, pc}
 80011d6:	466b      	mov	r3, sp
 80011d8:	2200      	movs	r2, #0
 80011da:	80da      	strh	r2, [r3, #6]
 80011dc:	2344      	movs	r3, #68	; 0x44
 80011de:	5ac3      	ldrh	r3, [r0, r3]
 80011e0:	b29b      	uxth	r3, r3
 80011e2:	aa01      	add	r2, sp, #4
 80011e4:	8013      	strh	r3, [r2, #0]
 80011e6:	b21b      	sxth	r3, r3
 80011e8:	2b00      	cmp	r3, #0
 80011ea:	daa4      	bge.n	8001136 <HAL_PCD_IRQHandler+0x1a>
 80011ec:	0017      	movs	r7, r2
 80011ee:	230f      	movs	r3, #15
 80011f0:	4698      	mov	r8, r3
 80011f2:	466b      	mov	r3, sp
 80011f4:	1d9e      	adds	r6, r3, #6
 80011f6:	e1c6      	b.n	8001586 <HAL_PCD_IRQHandler+0x46a>
 80011f8:	8803      	ldrh	r3, [r0, #0]
 80011fa:	4a9b      	ldr	r2, [pc, #620]	; (8001468 <HAL_PCD_IRQHandler+0x34c>)
 80011fc:	4013      	ands	r3, r2
 80011fe:	8003      	strh	r3, [r0, #0]
 8001200:	6821      	ldr	r1, [r4, #0]
 8001202:	2350      	movs	r3, #80	; 0x50
 8001204:	5acb      	ldrh	r3, [r1, r3]
 8001206:	2228      	movs	r2, #40	; 0x28
 8001208:	5ca2      	ldrb	r2, [r4, r2]
 800120a:	00d2      	lsls	r2, r2, #3
 800120c:	188a      	adds	r2, r1, r2
 800120e:	189b      	adds	r3, r3, r2
 8001210:	4a96      	ldr	r2, [pc, #600]	; (800146c <HAL_PCD_IRQHandler+0x350>)
 8001212:	4694      	mov	ip, r2
 8001214:	4463      	add	r3, ip
 8001216:	881b      	ldrh	r3, [r3, #0]
 8001218:	059b      	lsls	r3, r3, #22
 800121a:	0d9b      	lsrs	r3, r3, #22
 800121c:	6423      	str	r3, [r4, #64]	; 0x40
 800121e:	6ba2      	ldr	r2, [r4, #56]	; 0x38
 8001220:	4694      	mov	ip, r2
 8001222:	4463      	add	r3, ip
 8001224:	63a3      	str	r3, [r4, #56]	; 0x38
 8001226:	2100      	movs	r1, #0
 8001228:	0020      	movs	r0, r4
 800122a:	f001 fdef 	bl	8002e0c <HAL_PCD_DataInStageCallback>
 800122e:	2324      	movs	r3, #36	; 0x24
 8001230:	5ce3      	ldrb	r3, [r4, r3]
 8001232:	2b00      	cmp	r3, #0
 8001234:	d100      	bne.n	8001238 <HAL_PCD_IRQHandler+0x11c>
 8001236:	e19d      	b.n	8001574 <HAL_PCD_IRQHandler+0x458>
 8001238:	6be3      	ldr	r3, [r4, #60]	; 0x3c
 800123a:	2b00      	cmp	r3, #0
 800123c:	d000      	beq.n	8001240 <HAL_PCD_IRQHandler+0x124>
 800123e:	e199      	b.n	8001574 <HAL_PCD_IRQHandler+0x458>
 8001240:	2224      	movs	r2, #36	; 0x24
 8001242:	5ca3      	ldrb	r3, [r4, r2]
 8001244:	2180      	movs	r1, #128	; 0x80
 8001246:	430b      	orrs	r3, r1
 8001248:	3934      	subs	r1, #52	; 0x34
 800124a:	6820      	ldr	r0, [r4, #0]
 800124c:	5243      	strh	r3, [r0, r1]
 800124e:	2300      	movs	r3, #0
 8001250:	54a3      	strb	r3, [r4, r2]
 8001252:	e18f      	b.n	8001574 <HAL_PCD_IRQHandler+0x458>
 8001254:	2350      	movs	r3, #80	; 0x50
 8001256:	5ac3      	ldrh	r3, [r0, r3]
 8001258:	2284      	movs	r2, #132	; 0x84
 800125a:	0052      	lsls	r2, r2, #1
 800125c:	5ca2      	ldrb	r2, [r4, r2]
 800125e:	00d2      	lsls	r2, r2, #3
 8001260:	1882      	adds	r2, r0, r2
 8001262:	189b      	adds	r3, r3, r2
 8001264:	4a82      	ldr	r2, [pc, #520]	; (8001470 <HAL_PCD_IRQHandler+0x354>)
 8001266:	4694      	mov	ip, r2
 8001268:	4463      	add	r3, ip
 800126a:	881b      	ldrh	r3, [r3, #0]
 800126c:	059b      	lsls	r3, r3, #22
 800126e:	0d9b      	lsrs	r3, r3, #22
 8001270:	0022      	movs	r2, r4
 8001272:	3209      	adds	r2, #9
 8001274:	32ff      	adds	r2, #255	; 0xff
 8001276:	6193      	str	r3, [r2, #24]
 8001278:	8892      	ldrh	r2, [r2, #4]
 800127a:	0021      	movs	r1, r4
 800127c:	31ed      	adds	r1, #237	; 0xed
 800127e:	31ff      	adds	r1, #255	; 0xff
 8001280:	f7ff ff28 	bl	80010d4 <PCD_ReadPMA>
 8001284:	6822      	ldr	r2, [r4, #0]
 8001286:	8813      	ldrh	r3, [r2, #0]
 8001288:	497a      	ldr	r1, [pc, #488]	; (8001474 <HAL_PCD_IRQHandler+0x358>)
 800128a:	400b      	ands	r3, r1
 800128c:	8013      	strh	r3, [r2, #0]
 800128e:	0020      	movs	r0, r4
 8001290:	f001 fda4 	bl	8002ddc <HAL_PCD_SetupStageCallback>
 8001294:	e16e      	b.n	8001574 <HAL_PCD_IRQHandler+0x458>
 8001296:	0015      	movs	r5, r2
 8001298:	8892      	ldrh	r2, [r2, #4]
 800129a:	6929      	ldr	r1, [r5, #16]
 800129c:	f7ff ff1a 	bl	80010d4 <PCD_ReadPMA>
 80012a0:	692b      	ldr	r3, [r5, #16]
 80012a2:	69aa      	ldr	r2, [r5, #24]
 80012a4:	4694      	mov	ip, r2
 80012a6:	4463      	add	r3, ip
 80012a8:	612b      	str	r3, [r5, #16]
 80012aa:	e19b      	b.n	80015e4 <HAL_PCD_IRQHandler+0x4c8>
 80012ac:	0851      	lsrs	r1, r2, #1
 80012ae:	b289      	uxth	r1, r1
 80012b0:	07d2      	lsls	r2, r2, #31
 80012b2:	d501      	bpl.n	80012b8 <HAL_PCD_IRQHandler+0x19c>
 80012b4:	3101      	adds	r1, #1
 80012b6:	b289      	uxth	r1, r1
 80012b8:	0289      	lsls	r1, r1, #10
 80012ba:	8019      	strh	r1, [r3, #0]
 80012bc:	e1ae      	b.n	800161c <HAL_PCD_IRQHandler+0x500>
 80012be:	00ab      	lsls	r3, r5, #2
 80012c0:	4699      	mov	r9, r3
 80012c2:	18c1      	adds	r1, r0, r3
 80012c4:	5ac2      	ldrh	r2, [r0, r3]
 80012c6:	8032      	strh	r2, [r6, #0]
 80012c8:	8833      	ldrh	r3, [r6, #0]
 80012ca:	b21b      	sxth	r3, r3
 80012cc:	2b00      	cmp	r3, #0
 80012ce:	db2f      	blt.n	8001330 <HAL_PCD_IRQHandler+0x214>
 80012d0:	8833      	ldrh	r3, [r6, #0]
 80012d2:	061b      	lsls	r3, r3, #24
 80012d4:	d400      	bmi.n	80012d8 <HAL_PCD_IRQHandler+0x1bc>
 80012d6:	e14d      	b.n	8001574 <HAL_PCD_IRQHandler+0x458>
 80012d8:	6822      	ldr	r2, [r4, #0]
 80012da:	464b      	mov	r3, r9
 80012dc:	5ad3      	ldrh	r3, [r2, r3]
 80012de:	4962      	ldr	r1, [pc, #392]	; (8001468 <HAL_PCD_IRQHandler+0x34c>)
 80012e0:	400b      	ands	r3, r1
 80012e2:	4649      	mov	r1, r9
 80012e4:	5253      	strh	r3, [r2, r1]
 80012e6:	00eb      	lsls	r3, r5, #3
 80012e8:	1b5b      	subs	r3, r3, r5
 80012ea:	009b      	lsls	r3, r3, #2
 80012ec:	18e3      	adds	r3, r4, r3
 80012ee:	3332      	adds	r3, #50	; 0x32
 80012f0:	781b      	ldrb	r3, [r3, #0]
 80012f2:	2b00      	cmp	r3, #0
 80012f4:	d000      	beq.n	80012f8 <HAL_PCD_IRQHandler+0x1dc>
 80012f6:	e0eb      	b.n	80014d0 <HAL_PCD_IRQHandler+0x3b4>
 80012f8:	6820      	ldr	r0, [r4, #0]
 80012fa:	3350      	adds	r3, #80	; 0x50
 80012fc:	5ac3      	ldrh	r3, [r0, r3]
 80012fe:	00ea      	lsls	r2, r5, #3
 8001300:	1b52      	subs	r2, r2, r5
 8001302:	0092      	lsls	r2, r2, #2
 8001304:	18a2      	adds	r2, r4, r2
 8001306:	0011      	movs	r1, r2
 8001308:	3128      	adds	r1, #40	; 0x28
 800130a:	7809      	ldrb	r1, [r1, #0]
 800130c:	00c9      	lsls	r1, r1, #3
 800130e:	1841      	adds	r1, r0, r1
 8001310:	185b      	adds	r3, r3, r1
 8001312:	4956      	ldr	r1, [pc, #344]	; (800146c <HAL_PCD_IRQHandler+0x350>)
 8001314:	468c      	mov	ip, r1
 8001316:	4463      	add	r3, ip
 8001318:	881b      	ldrh	r3, [r3, #0]
 800131a:	059b      	lsls	r3, r3, #22
 800131c:	0d9b      	lsrs	r3, r3, #22
 800131e:	6413      	str	r3, [r2, #64]	; 0x40
 8001320:	d100      	bne.n	8001324 <HAL_PCD_IRQHandler+0x208>
 8001322:	e102      	b.n	800152a <HAL_PCD_IRQHandler+0x40e>
 8001324:	0011      	movs	r1, r2
 8001326:	8d92      	ldrh	r2, [r2, #44]	; 0x2c
 8001328:	6b89      	ldr	r1, [r1, #56]	; 0x38
 800132a:	f7ff fdb9 	bl	8000ea0 <PCD_WritePMA>
 800132e:	e0fc      	b.n	800152a <HAL_PCD_IRQHandler+0x40e>
 8001330:	4b50      	ldr	r3, [pc, #320]	; (8001474 <HAL_PCD_IRQHandler+0x358>)
 8001332:	401a      	ands	r2, r3
 8001334:	800a      	strh	r2, [r1, #0]
 8001336:	00eb      	lsls	r3, r5, #3
 8001338:	1b5b      	subs	r3, r3, r5
 800133a:	009b      	lsls	r3, r3, #2
 800133c:	18e3      	adds	r3, r4, r3
 800133e:	3313      	adds	r3, #19
 8001340:	33ff      	adds	r3, #255	; 0xff
 8001342:	781b      	ldrb	r3, [r3, #0]
 8001344:	2b00      	cmp	r3, #0
 8001346:	d124      	bne.n	8001392 <HAL_PCD_IRQHandler+0x276>
 8001348:	6820      	ldr	r0, [r4, #0]
 800134a:	3350      	adds	r3, #80	; 0x50
 800134c:	5ac2      	ldrh	r2, [r0, r3]
 800134e:	00eb      	lsls	r3, r5, #3
 8001350:	1b5b      	subs	r3, r3, r5
 8001352:	009b      	lsls	r3, r3, #2
 8001354:	18e3      	adds	r3, r4, r3
 8001356:	3309      	adds	r3, #9
 8001358:	33ff      	adds	r3, #255	; 0xff
 800135a:	781b      	ldrb	r3, [r3, #0]
 800135c:	00db      	lsls	r3, r3, #3
 800135e:	18c3      	adds	r3, r0, r3
 8001360:	18d3      	adds	r3, r2, r3
 8001362:	4a43      	ldr	r2, [pc, #268]	; (8001470 <HAL_PCD_IRQHandler+0x354>)
 8001364:	4694      	mov	ip, r2
 8001366:	4463      	add	r3, ip
 8001368:	881b      	ldrh	r3, [r3, #0]
 800136a:	059b      	lsls	r3, r3, #22
 800136c:	0d9a      	lsrs	r2, r3, #22
 800136e:	4692      	mov	sl, r2
 8001370:	2b00      	cmp	r3, #0
 8001372:	d037      	beq.n	80013e4 <HAL_PCD_IRQHandler+0x2c8>
 8001374:	00eb      	lsls	r3, r5, #3
 8001376:	1b5b      	subs	r3, r3, r5
 8001378:	009b      	lsls	r3, r3, #2
 800137a:	18e3      	adds	r3, r4, r3
 800137c:	001a      	movs	r2, r3
 800137e:	320d      	adds	r2, #13
 8001380:	32ff      	adds	r2, #255	; 0xff
 8001382:	8812      	ldrh	r2, [r2, #0]
 8001384:	3319      	adds	r3, #25
 8001386:	33ff      	adds	r3, #255	; 0xff
 8001388:	6819      	ldr	r1, [r3, #0]
 800138a:	4653      	mov	r3, sl
 800138c:	f7ff fea2 	bl	80010d4 <PCD_ReadPMA>
 8001390:	e028      	b.n	80013e4 <HAL_PCD_IRQHandler+0x2c8>
 8001392:	6820      	ldr	r0, [r4, #0]
 8001394:	00eb      	lsls	r3, r5, #3
 8001396:	1b5b      	subs	r3, r3, r5
 8001398:	009b      	lsls	r3, r3, #2
 800139a:	18e3      	adds	r3, r4, r3
 800139c:	3309      	adds	r3, #9
 800139e:	33ff      	adds	r3, #255	; 0xff
 80013a0:	781b      	ldrb	r3, [r3, #0]
 80013a2:	009a      	lsls	r2, r3, #2
 80013a4:	5a12      	ldrh	r2, [r2, r0]
 80013a6:	0452      	lsls	r2, r2, #17
 80013a8:	d56a      	bpl.n	8001480 <HAL_PCD_IRQHandler+0x364>
 80013aa:	2250      	movs	r2, #80	; 0x50
 80013ac:	5a82      	ldrh	r2, [r0, r2]
 80013ae:	00db      	lsls	r3, r3, #3
 80013b0:	18c3      	adds	r3, r0, r3
 80013b2:	18d3      	adds	r3, r2, r3
 80013b4:	4a2d      	ldr	r2, [pc, #180]	; (800146c <HAL_PCD_IRQHandler+0x350>)
 80013b6:	4694      	mov	ip, r2
 80013b8:	4463      	add	r3, ip
 80013ba:	881b      	ldrh	r3, [r3, #0]
 80013bc:	059b      	lsls	r3, r3, #22
 80013be:	0d9a      	lsrs	r2, r3, #22
 80013c0:	4692      	mov	sl, r2
 80013c2:	2b00      	cmp	r3, #0
 80013c4:	d138      	bne.n	8001438 <HAL_PCD_IRQHandler+0x31c>
 80013c6:	00eb      	lsls	r3, r5, #3
 80013c8:	1b5b      	subs	r3, r3, r5
 80013ca:	009b      	lsls	r3, r3, #2
 80013cc:	18e3      	adds	r3, r4, r3
 80013ce:	3309      	adds	r3, #9
 80013d0:	33ff      	adds	r3, #255	; 0xff
 80013d2:	781b      	ldrb	r3, [r3, #0]
 80013d4:	009b      	lsls	r3, r3, #2
 80013d6:	6821      	ldr	r1, [r4, #0]
 80013d8:	5aca      	ldrh	r2, [r1, r3]
 80013da:	4827      	ldr	r0, [pc, #156]	; (8001478 <HAL_PCD_IRQHandler+0x35c>)
 80013dc:	4010      	ands	r0, r2
 80013de:	4a27      	ldr	r2, [pc, #156]	; (800147c <HAL_PCD_IRQHandler+0x360>)
 80013e0:	4302      	orrs	r2, r0
 80013e2:	52ca      	strh	r2, [r1, r3]
 80013e4:	4650      	mov	r0, sl
 80013e6:	00e9      	lsls	r1, r5, #3
 80013e8:	1b49      	subs	r1, r1, r5
 80013ea:	0089      	lsls	r1, r1, #2
 80013ec:	1861      	adds	r1, r4, r1
 80013ee:	000a      	movs	r2, r1
 80013f0:	3221      	adds	r2, #33	; 0x21
 80013f2:	32ff      	adds	r2, #255	; 0xff
 80013f4:	6813      	ldr	r3, [r2, #0]
 80013f6:	4453      	add	r3, sl
 80013f8:	6013      	str	r3, [r2, #0]
 80013fa:	000b      	movs	r3, r1
 80013fc:	3319      	adds	r3, #25
 80013fe:	33ff      	adds	r3, #255	; 0xff
 8001400:	681a      	ldr	r2, [r3, #0]
 8001402:	4452      	add	r2, sl
 8001404:	601a      	str	r2, [r3, #0]
 8001406:	311d      	adds	r1, #29
 8001408:	31ff      	adds	r1, #255	; 0xff
 800140a:	680b      	ldr	r3, [r1, #0]
 800140c:	2b00      	cmp	r3, #0
 800140e:	d008      	beq.n	8001422 <HAL_PCD_IRQHandler+0x306>
 8001410:	00e9      	lsls	r1, r5, #3
 8001412:	1b49      	subs	r1, r1, r5
 8001414:	0089      	lsls	r1, r1, #2
 8001416:	1861      	adds	r1, r4, r1
 8001418:	3115      	adds	r1, #21
 800141a:	31ff      	adds	r1, #255	; 0xff
 800141c:	6809      	ldr	r1, [r1, #0]
 800141e:	4288      	cmp	r0, r1
 8001420:	d24b      	bcs.n	80014ba <HAL_PCD_IRQHandler+0x39e>
 8001422:	00eb      	lsls	r3, r5, #3
 8001424:	1b5b      	subs	r3, r3, r5
 8001426:	009b      	lsls	r3, r3, #2
 8001428:	18e3      	adds	r3, r4, r3
 800142a:	3309      	adds	r3, #9
 800142c:	33ff      	adds	r3, #255	; 0xff
 800142e:	7819      	ldrb	r1, [r3, #0]
 8001430:	0020      	movs	r0, r4
 8001432:	f001 fcdd 	bl	8002df0 <HAL_PCD_DataOutStageCallback>
 8001436:	e74b      	b.n	80012d0 <HAL_PCD_IRQHandler+0x1b4>
 8001438:	00eb      	lsls	r3, r5, #3
 800143a:	1b5b      	subs	r3, r3, r5
 800143c:	009b      	lsls	r3, r3, #2
 800143e:	18e3      	adds	r3, r4, r3
 8001440:	001a      	movs	r2, r3
 8001442:	320f      	adds	r2, #15
 8001444:	32ff      	adds	r2, #255	; 0xff
 8001446:	8812      	ldrh	r2, [r2, #0]
 8001448:	3319      	adds	r3, #25
 800144a:	33ff      	adds	r3, #255	; 0xff
 800144c:	6819      	ldr	r1, [r3, #0]
 800144e:	4653      	mov	r3, sl
 8001450:	f7ff fe40 	bl	80010d4 <PCD_ReadPMA>
 8001454:	e7b7      	b.n	80013c6 <HAL_PCD_IRQHandler+0x2aa>
 8001456:	46c0      	nop			; (mov r8, r8)
 8001458:	ffffbfff 	.word	0xffffbfff
 800145c:	ffffdfff 	.word	0xffffdfff
 8001460:	fffff7ff 	.word	0xfffff7ff
 8001464:	fffffeff 	.word	0xfffffeff
 8001468:	ffff8f0f 	.word	0xffff8f0f
 800146c:	00000402 	.word	0x00000402
 8001470:	00000406 	.word	0x00000406
 8001474:	00000f8f 	.word	0x00000f8f
 8001478:	00000f0f 	.word	0x00000f0f
 800147c:	ffff80c0 	.word	0xffff80c0
 8001480:	2250      	movs	r2, #80	; 0x50
 8001482:	5a82      	ldrh	r2, [r0, r2]
 8001484:	00db      	lsls	r3, r3, #3
 8001486:	18c3      	adds	r3, r0, r3
 8001488:	18d3      	adds	r3, r2, r3
 800148a:	4a94      	ldr	r2, [pc, #592]	; (80016dc <HAL_PCD_IRQHandler+0x5c0>)
 800148c:	4694      	mov	ip, r2
 800148e:	4463      	add	r3, ip
 8001490:	881b      	ldrh	r3, [r3, #0]
 8001492:	059b      	lsls	r3, r3, #22
 8001494:	0d9a      	lsrs	r2, r3, #22
 8001496:	4692      	mov	sl, r2
 8001498:	2b00      	cmp	r3, #0
 800149a:	d094      	beq.n	80013c6 <HAL_PCD_IRQHandler+0x2aa>
 800149c:	00eb      	lsls	r3, r5, #3
 800149e:	1b5b      	subs	r3, r3, r5
 80014a0:	009b      	lsls	r3, r3, #2
 80014a2:	18e3      	adds	r3, r4, r3
 80014a4:	001a      	movs	r2, r3
 80014a6:	3211      	adds	r2, #17
 80014a8:	32ff      	adds	r2, #255	; 0xff
 80014aa:	8812      	ldrh	r2, [r2, #0]
 80014ac:	3319      	adds	r3, #25
 80014ae:	33ff      	adds	r3, #255	; 0xff
 80014b0:	6819      	ldr	r1, [r3, #0]
 80014b2:	4653      	mov	r3, sl
 80014b4:	f7ff fe0e 	bl	80010d4 <PCD_ReadPMA>
 80014b8:	e785      	b.n	80013c6 <HAL_PCD_IRQHandler+0x2aa>
 80014ba:	00e9      	lsls	r1, r5, #3
 80014bc:	1b49      	subs	r1, r1, r5
 80014be:	0089      	lsls	r1, r1, #2
 80014c0:	1861      	adds	r1, r4, r1
 80014c2:	3109      	adds	r1, #9
 80014c4:	31ff      	adds	r1, #255	; 0xff
 80014c6:	7809      	ldrb	r1, [r1, #0]
 80014c8:	0020      	movs	r0, r4
 80014ca:	f7ff fae7 	bl	8000a9c <HAL_PCD_EP_Receive>
 80014ce:	e6ff      	b.n	80012d0 <HAL_PCD_IRQHandler+0x1b4>
 80014d0:	6820      	ldr	r0, [r4, #0]
 80014d2:	00eb      	lsls	r3, r5, #3
 80014d4:	1b5b      	subs	r3, r3, r5
 80014d6:	009b      	lsls	r3, r3, #2
 80014d8:	18e3      	adds	r3, r4, r3
 80014da:	3328      	adds	r3, #40	; 0x28
 80014dc:	781b      	ldrb	r3, [r3, #0]
 80014de:	009a      	lsls	r2, r3, #2
 80014e0:	5a12      	ldrh	r2, [r2, r0]
 80014e2:	0652      	lsls	r2, r2, #25
 80014e4:	d400      	bmi.n	80014e8 <HAL_PCD_IRQHandler+0x3cc>
 80014e6:	e0aa      	b.n	800163e <HAL_PCD_IRQHandler+0x522>
 80014e8:	2250      	movs	r2, #80	; 0x50
 80014ea:	5a82      	ldrh	r2, [r0, r2]
 80014ec:	00db      	lsls	r3, r3, #3
 80014ee:	18c3      	adds	r3, r0, r3
 80014f0:	18d3      	adds	r3, r2, r3
 80014f2:	4a7b      	ldr	r2, [pc, #492]	; (80016e0 <HAL_PCD_IRQHandler+0x5c4>)
 80014f4:	4694      	mov	ip, r2
 80014f6:	4463      	add	r3, ip
 80014f8:	881b      	ldrh	r3, [r3, #0]
 80014fa:	059b      	lsls	r3, r3, #22
 80014fc:	0d9b      	lsrs	r3, r3, #22
 80014fe:	00ea      	lsls	r2, r5, #3
 8001500:	1b52      	subs	r2, r2, r5
 8001502:	0092      	lsls	r2, r2, #2
 8001504:	18a2      	adds	r2, r4, r2
 8001506:	6413      	str	r3, [r2, #64]	; 0x40
 8001508:	2b00      	cmp	r3, #0
 800150a:	d000      	beq.n	800150e <HAL_PCD_IRQHandler+0x3f2>
 800150c:	e091      	b.n	8001632 <HAL_PCD_IRQHandler+0x516>
 800150e:	00eb      	lsls	r3, r5, #3
 8001510:	1b5b      	subs	r3, r3, r5
 8001512:	009b      	lsls	r3, r3, #2
 8001514:	18e3      	adds	r3, r4, r3
 8001516:	3328      	adds	r3, #40	; 0x28
 8001518:	781b      	ldrb	r3, [r3, #0]
 800151a:	009b      	lsls	r3, r3, #2
 800151c:	6821      	ldr	r1, [r4, #0]
 800151e:	5aca      	ldrh	r2, [r1, r3]
 8001520:	4870      	ldr	r0, [pc, #448]	; (80016e4 <HAL_PCD_IRQHandler+0x5c8>)
 8001522:	4010      	ands	r0, r2
 8001524:	4a70      	ldr	r2, [pc, #448]	; (80016e8 <HAL_PCD_IRQHandler+0x5cc>)
 8001526:	4302      	orrs	r2, r0
 8001528:	52ca      	strh	r2, [r1, r3]
 800152a:	6821      	ldr	r1, [r4, #0]
 800152c:	2350      	movs	r3, #80	; 0x50
 800152e:	5aca      	ldrh	r2, [r1, r3]
 8001530:	00eb      	lsls	r3, r5, #3
 8001532:	1b5b      	subs	r3, r3, r5
 8001534:	009b      	lsls	r3, r3, #2
 8001536:	18e3      	adds	r3, r4, r3
 8001538:	0018      	movs	r0, r3
 800153a:	3028      	adds	r0, #40	; 0x28
 800153c:	7800      	ldrb	r0, [r0, #0]
 800153e:	00c0      	lsls	r0, r0, #3
 8001540:	1809      	adds	r1, r1, r0
 8001542:	1852      	adds	r2, r2, r1
 8001544:	4966      	ldr	r1, [pc, #408]	; (80016e0 <HAL_PCD_IRQHandler+0x5c4>)
 8001546:	468c      	mov	ip, r1
 8001548:	4462      	add	r2, ip
 800154a:	8812      	ldrh	r2, [r2, #0]
 800154c:	0592      	lsls	r2, r2, #22
 800154e:	0d92      	lsrs	r2, r2, #22
 8001550:	641a      	str	r2, [r3, #64]	; 0x40
 8001552:	6b99      	ldr	r1, [r3, #56]	; 0x38
 8001554:	468c      	mov	ip, r1
 8001556:	4462      	add	r2, ip
 8001558:	639a      	str	r2, [r3, #56]	; 0x38
 800155a:	6bdb      	ldr	r3, [r3, #60]	; 0x3c
 800155c:	2b00      	cmp	r3, #0
 800155e:	d000      	beq.n	8001562 <HAL_PCD_IRQHandler+0x446>
 8001560:	e086      	b.n	8001670 <HAL_PCD_IRQHandler+0x554>
 8001562:	00eb      	lsls	r3, r5, #3
 8001564:	1b5d      	subs	r5, r3, r5
 8001566:	00ad      	lsls	r5, r5, #2
 8001568:	1965      	adds	r5, r4, r5
 800156a:	3528      	adds	r5, #40	; 0x28
 800156c:	7829      	ldrb	r1, [r5, #0]
 800156e:	0020      	movs	r0, r4
 8001570:	f001 fc4c 	bl	8002e0c <HAL_PCD_DataInStageCallback>
 8001574:	6820      	ldr	r0, [r4, #0]
 8001576:	2344      	movs	r3, #68	; 0x44
 8001578:	5ac3      	ldrh	r3, [r0, r3]
 800157a:	b29b      	uxth	r3, r3
 800157c:	803b      	strh	r3, [r7, #0]
 800157e:	b21b      	sxth	r3, r3
 8001580:	2b00      	cmp	r3, #0
 8001582:	db00      	blt.n	8001586 <HAL_PCD_IRQHandler+0x46a>
 8001584:	e5d7      	b.n	8001136 <HAL_PCD_IRQHandler+0x1a>
 8001586:	883b      	ldrh	r3, [r7, #0]
 8001588:	4645      	mov	r5, r8
 800158a:	401d      	ands	r5, r3
 800158c:	4642      	mov	r2, r8
 800158e:	4213      	tst	r3, r2
 8001590:	d000      	beq.n	8001594 <HAL_PCD_IRQHandler+0x478>
 8001592:	e694      	b.n	80012be <HAL_PCD_IRQHandler+0x1a2>
 8001594:	883b      	ldrh	r3, [r7, #0]
 8001596:	06db      	lsls	r3, r3, #27
 8001598:	d400      	bmi.n	800159c <HAL_PCD_IRQHandler+0x480>
 800159a:	e62d      	b.n	80011f8 <HAL_PCD_IRQHandler+0xdc>
 800159c:	8803      	ldrh	r3, [r0, #0]
 800159e:	8033      	strh	r3, [r6, #0]
 80015a0:	8833      	ldrh	r3, [r6, #0]
 80015a2:	051b      	lsls	r3, r3, #20
 80015a4:	d500      	bpl.n	80015a8 <HAL_PCD_IRQHandler+0x48c>
 80015a6:	e655      	b.n	8001254 <HAL_PCD_IRQHandler+0x138>
 80015a8:	8833      	ldrh	r3, [r6, #0]
 80015aa:	b21b      	sxth	r3, r3
 80015ac:	2b00      	cmp	r3, #0
 80015ae:	dae1      	bge.n	8001574 <HAL_PCD_IRQHandler+0x458>
 80015b0:	8803      	ldrh	r3, [r0, #0]
 80015b2:	4a4e      	ldr	r2, [pc, #312]	; (80016ec <HAL_PCD_IRQHandler+0x5d0>)
 80015b4:	4013      	ands	r3, r2
 80015b6:	8003      	strh	r3, [r0, #0]
 80015b8:	6820      	ldr	r0, [r4, #0]
 80015ba:	2350      	movs	r3, #80	; 0x50
 80015bc:	5ac3      	ldrh	r3, [r0, r3]
 80015be:	2284      	movs	r2, #132	; 0x84
 80015c0:	0052      	lsls	r2, r2, #1
 80015c2:	5ca2      	ldrb	r2, [r4, r2]
 80015c4:	00d2      	lsls	r2, r2, #3
 80015c6:	1882      	adds	r2, r0, r2
 80015c8:	189b      	adds	r3, r3, r2
 80015ca:	4a44      	ldr	r2, [pc, #272]	; (80016dc <HAL_PCD_IRQHandler+0x5c0>)
 80015cc:	4694      	mov	ip, r2
 80015ce:	4463      	add	r3, ip
 80015d0:	881b      	ldrh	r3, [r3, #0]
 80015d2:	059b      	lsls	r3, r3, #22
 80015d4:	0d9b      	lsrs	r3, r3, #22
 80015d6:	0022      	movs	r2, r4
 80015d8:	3209      	adds	r2, #9
 80015da:	32ff      	adds	r2, #255	; 0xff
 80015dc:	6193      	str	r3, [r2, #24]
 80015de:	2b00      	cmp	r3, #0
 80015e0:	d000      	beq.n	80015e4 <HAL_PCD_IRQHandler+0x4c8>
 80015e2:	e658      	b.n	8001296 <HAL_PCD_IRQHandler+0x17a>
 80015e4:	2100      	movs	r1, #0
 80015e6:	0020      	movs	r0, r4
 80015e8:	f001 fc02 	bl	8002df0 <HAL_PCD_DataOutStageCallback>
 80015ec:	6823      	ldr	r3, [r4, #0]
 80015ee:	2250      	movs	r2, #80	; 0x50
 80015f0:	5a9a      	ldrh	r2, [r3, r2]
 80015f2:	493a      	ldr	r1, [pc, #232]	; (80016dc <HAL_PCD_IRQHandler+0x5c0>)
 80015f4:	468c      	mov	ip, r1
 80015f6:	4463      	add	r3, ip
 80015f8:	189b      	adds	r3, r3, r2
 80015fa:	0022      	movs	r2, r4
 80015fc:	3209      	adds	r2, #9
 80015fe:	32ff      	adds	r2, #255	; 0xff
 8001600:	68d2      	ldr	r2, [r2, #12]
 8001602:	2a3e      	cmp	r2, #62	; 0x3e
 8001604:	d800      	bhi.n	8001608 <HAL_PCD_IRQHandler+0x4ec>
 8001606:	e651      	b.n	80012ac <HAL_PCD_IRQHandler+0x190>
 8001608:	0951      	lsrs	r1, r2, #5
 800160a:	b289      	uxth	r1, r1
 800160c:	06d2      	lsls	r2, r2, #27
 800160e:	d101      	bne.n	8001614 <HAL_PCD_IRQHandler+0x4f8>
 8001610:	3901      	subs	r1, #1
 8001612:	b289      	uxth	r1, r1
 8001614:	0289      	lsls	r1, r1, #10
 8001616:	4a36      	ldr	r2, [pc, #216]	; (80016f0 <HAL_PCD_IRQHandler+0x5d4>)
 8001618:	4311      	orrs	r1, r2
 800161a:	8019      	strh	r1, [r3, #0]
 800161c:	6821      	ldr	r1, [r4, #0]
 800161e:	880a      	ldrh	r2, [r1, #0]
 8001620:	4b34      	ldr	r3, [pc, #208]	; (80016f4 <HAL_PCD_IRQHandler+0x5d8>)
 8001622:	401a      	ands	r2, r3
 8001624:	23c0      	movs	r3, #192	; 0xc0
 8001626:	019b      	lsls	r3, r3, #6
 8001628:	405a      	eors	r2, r3
 800162a:	4b33      	ldr	r3, [pc, #204]	; (80016f8 <HAL_PCD_IRQHandler+0x5dc>)
 800162c:	4313      	orrs	r3, r2
 800162e:	800b      	strh	r3, [r1, #0]
 8001630:	e7a0      	b.n	8001574 <HAL_PCD_IRQHandler+0x458>
 8001632:	0011      	movs	r1, r2
 8001634:	8dd2      	ldrh	r2, [r2, #46]	; 0x2e
 8001636:	6b89      	ldr	r1, [r1, #56]	; 0x38
 8001638:	f7ff fc32 	bl	8000ea0 <PCD_WritePMA>
 800163c:	e767      	b.n	800150e <HAL_PCD_IRQHandler+0x3f2>
 800163e:	2250      	movs	r2, #80	; 0x50
 8001640:	5a82      	ldrh	r2, [r0, r2]
 8001642:	00db      	lsls	r3, r3, #3
 8001644:	18c3      	adds	r3, r0, r3
 8001646:	18d3      	adds	r3, r2, r3
 8001648:	4a24      	ldr	r2, [pc, #144]	; (80016dc <HAL_PCD_IRQHandler+0x5c0>)
 800164a:	4694      	mov	ip, r2
 800164c:	4463      	add	r3, ip
 800164e:	881b      	ldrh	r3, [r3, #0]
 8001650:	059b      	lsls	r3, r3, #22
 8001652:	0d9b      	lsrs	r3, r3, #22
 8001654:	00ea      	lsls	r2, r5, #3
 8001656:	1b52      	subs	r2, r2, r5
 8001658:	0092      	lsls	r2, r2, #2
 800165a:	18a2      	adds	r2, r4, r2
 800165c:	6413      	str	r3, [r2, #64]	; 0x40
 800165e:	2b00      	cmp	r3, #0
 8001660:	d100      	bne.n	8001664 <HAL_PCD_IRQHandler+0x548>
 8001662:	e754      	b.n	800150e <HAL_PCD_IRQHandler+0x3f2>
 8001664:	0011      	movs	r1, r2
 8001666:	8e12      	ldrh	r2, [r2, #48]	; 0x30
 8001668:	6b89      	ldr	r1, [r1, #56]	; 0x38
 800166a:	f7ff fc19 	bl	8000ea0 <PCD_WritePMA>
 800166e:	e74e      	b.n	800150e <HAL_PCD_IRQHandler+0x3f2>
 8001670:	00e9      	lsls	r1, r5, #3
 8001672:	1b4d      	subs	r5, r1, r5
 8001674:	00ad      	lsls	r5, r5, #2
 8001676:	1965      	adds	r5, r4, r5
 8001678:	3528      	adds	r5, #40	; 0x28
 800167a:	7829      	ldrb	r1, [r5, #0]
 800167c:	0020      	movs	r0, r4
 800167e:	f7ff fc27 	bl	8000ed0 <HAL_PCD_EP_Transmit>
 8001682:	e777      	b.n	8001574 <HAL_PCD_IRQHandler+0x458>
 8001684:	2144      	movs	r1, #68	; 0x44
 8001686:	5a5a      	ldrh	r2, [r3, r1]
 8001688:	481c      	ldr	r0, [pc, #112]	; (80016fc <HAL_PCD_IRQHandler+0x5e0>)
 800168a:	4002      	ands	r2, r0
 800168c:	525a      	strh	r2, [r3, r1]
 800168e:	0020      	movs	r0, r4
 8001690:	f001 fbcf 	bl	8002e32 <HAL_PCD_ResetCallback>
 8001694:	2100      	movs	r1, #0
 8001696:	0020      	movs	r0, r4
 8001698:	f7fe ff8b 	bl	80005b2 <HAL_PCD_SetAddress>
 800169c:	e551      	b.n	8001142 <HAL_PCD_IRQHandler+0x26>
 800169e:	2240      	movs	r2, #64	; 0x40
 80016a0:	5a99      	ldrh	r1, [r3, r2]
 80016a2:	2004      	movs	r0, #4
 80016a4:	4381      	bics	r1, r0
 80016a6:	5299      	strh	r1, [r3, r2]
 80016a8:	4b15      	ldr	r3, [pc, #84]	; (8001700 <HAL_PCD_IRQHandler+0x5e4>)
 80016aa:	6821      	ldr	r1, [r4, #0]
 80016ac:	528b      	strh	r3, [r1, r2]
 80016ae:	0020      	movs	r0, r4
 80016b0:	f001 fbe4 	bl	8002e7c <HAL_PCD_ResumeCallback>
 80016b4:	6821      	ldr	r1, [r4, #0]
 80016b6:	2244      	movs	r2, #68	; 0x44
 80016b8:	5a8b      	ldrh	r3, [r1, r2]
 80016ba:	4812      	ldr	r0, [pc, #72]	; (8001704 <HAL_PCD_IRQHandler+0x5e8>)
 80016bc:	4003      	ands	r3, r0
 80016be:	528b      	strh	r3, [r1, r2]
 80016c0:	e559      	b.n	8001176 <HAL_PCD_IRQHandler+0x5a>
 80016c2:	0020      	movs	r0, r4
 80016c4:	f001 fbc8 	bl	8002e58 <HAL_PCD_SuspendCallback>
 80016c8:	e56f      	b.n	80011aa <HAL_PCD_IRQHandler+0x8e>
 80016ca:	2144      	movs	r1, #68	; 0x44
 80016cc:	5a5a      	ldrh	r2, [r3, r1]
 80016ce:	480e      	ldr	r0, [pc, #56]	; (8001708 <HAL_PCD_IRQHandler+0x5ec>)
 80016d0:	4002      	ands	r2, r0
 80016d2:	525a      	strh	r2, [r3, r1]
 80016d4:	0020      	movs	r0, r4
 80016d6:	f001 fba5 	bl	8002e24 <HAL_PCD_SOFCallback>
 80016da:	e56c      	b.n	80011b6 <HAL_PCD_IRQHandler+0x9a>
 80016dc:	00000406 	.word	0x00000406
 80016e0:	00000402 	.word	0x00000402
 80016e4:	00000f0f 	.word	0x00000f0f
 80016e8:	ffffc080 	.word	0xffffc080
 80016ec:	00000f8f 	.word	0x00000f8f
 80016f0:	ffff8000 	.word	0xffff8000
 80016f4:	ffffbf8f 	.word	0xffffbf8f
 80016f8:	ffff8080 	.word	0xffff8080
 80016fc:	fffffbff 	.word	0xfffffbff
 8001700:	ffffbd00 	.word	0xffffbd00
 8001704:	ffffefff 	.word	0xffffefff
 8001708:	fffffdff 	.word	0xfffffdff

0800170c <HAL_PCDEx_PMAConfig>:
 800170c:	b510      	push	{r4, lr}
 800170e:	060c      	lsls	r4, r1, #24
 8001710:	d50c      	bpl.n	800172c <HAL_PCDEx_PMAConfig+0x20>
 8001712:	247f      	movs	r4, #127	; 0x7f
 8001714:	4021      	ands	r1, r4
 8001716:	00cc      	lsls	r4, r1, #3
 8001718:	1a61      	subs	r1, r4, r1
 800171a:	0089      	lsls	r1, r1, #2
 800171c:	3128      	adds	r1, #40	; 0x28
 800171e:	1840      	adds	r0, r0, r1
 8001720:	2a00      	cmp	r2, #0
 8001722:	d10a      	bne.n	800173a <HAL_PCDEx_PMAConfig+0x2e>
 8001724:	7282      	strb	r2, [r0, #10]
 8001726:	8083      	strh	r3, [r0, #4]
 8001728:	2000      	movs	r0, #0
 800172a:	bd10      	pop	{r4, pc}
 800172c:	00cc      	lsls	r4, r1, #3
 800172e:	1a61      	subs	r1, r4, r1
 8001730:	0089      	lsls	r1, r1, #2
 8001732:	3109      	adds	r1, #9
 8001734:	31ff      	adds	r1, #255	; 0xff
 8001736:	1840      	adds	r0, r0, r1
 8001738:	e7f2      	b.n	8001720 <HAL_PCDEx_PMAConfig+0x14>
 800173a:	2201      	movs	r2, #1
 800173c:	7282      	strb	r2, [r0, #10]
 800173e:	80c3      	strh	r3, [r0, #6]
 8001740:	0c1b      	lsrs	r3, r3, #16
 8001742:	8103      	strh	r3, [r0, #8]
 8001744:	e7f0      	b.n	8001728 <HAL_PCDEx_PMAConfig+0x1c>
	...

08001748 <HAL_RCC_GetHCLKFreq>:
 8001748:	4b01      	ldr	r3, [pc, #4]	; (8001750 <HAL_RCC_GetHCLKFreq+0x8>)
 800174a:	6818      	ldr	r0, [r3, #0]
 800174c:	4770      	bx	lr
 800174e:	46c0      	nop			; (mov r8, r8)
 8001750:	20000110 	.word	0x20000110

08001754 <LL_Init1msTick>:
 8001754:	b510      	push	{r4, lr}
 8001756:	21fa      	movs	r1, #250	; 0xfa
 8001758:	0089      	lsls	r1, r1, #2
 800175a:	f7fe fcd5 	bl	8000108 <__udivsi3>
 800175e:	3801      	subs	r0, #1
 8001760:	4b03      	ldr	r3, [pc, #12]	; (8001770 <LL_Init1msTick+0x1c>)
 8001762:	6058      	str	r0, [r3, #4]
 8001764:	2200      	movs	r2, #0
 8001766:	609a      	str	r2, [r3, #8]
 8001768:	3205      	adds	r2, #5
 800176a:	601a      	str	r2, [r3, #0]
 800176c:	bd10      	pop	{r4, pc}
 800176e:	46c0      	nop			; (mov r8, r8)
 8001770:	e000e010 	.word	0xe000e010

08001774 <LL_SetSystemCoreClock>:
 8001774:	4b01      	ldr	r3, [pc, #4]	; (800177c <LL_SetSystemCoreClock+0x8>)
 8001776:	6018      	str	r0, [r3, #0]
 8001778:	4770      	bx	lr
 800177a:	46c0      	nop			; (mov r8, r8)
 800177c:	20000110 	.word	0x20000110

08001780 <USBD_CDC_DataIn>:
 8001780:	2386      	movs	r3, #134	; 0x86
 8001782:	009b      	lsls	r3, r3, #2
 8001784:	58c3      	ldr	r3, [r0, r3]
 8001786:	2b00      	cmp	r3, #0
 8001788:	d005      	beq.n	8001796 <USBD_CDC_DataIn+0x16>
 800178a:	2285      	movs	r2, #133	; 0x85
 800178c:	0092      	lsls	r2, r2, #2
 800178e:	2100      	movs	r1, #0
 8001790:	5099      	str	r1, [r3, r2]
 8001792:	2000      	movs	r0, #0
 8001794:	4770      	bx	lr
 8001796:	2002      	movs	r0, #2
 8001798:	e7fc      	b.n	8001794 <USBD_CDC_DataIn+0x14>
	...

0800179c <USBD_CDC_EP0_RxReady>:
 800179c:	b510      	push	{r4, lr}
 800179e:	2387      	movs	r3, #135	; 0x87
 80017a0:	009b      	lsls	r3, r3, #2
 80017a2:	58c3      	ldr	r3, [r0, r3]
 80017a4:	2b00      	cmp	r3, #0
 80017a6:	d00f      	beq.n	80017c8 <USBD_CDC_EP0_RxReady+0x2c>
 80017a8:	2286      	movs	r2, #134	; 0x86
 80017aa:	0092      	lsls	r2, r2, #2
 80017ac:	5884      	ldr	r4, [r0, r2]
 80017ae:	3a18      	subs	r2, #24
 80017b0:	5ca0      	ldrb	r0, [r4, r2]
 80017b2:	28ff      	cmp	r0, #255	; 0xff
 80017b4:	d008      	beq.n	80017c8 <USBD_CDC_EP0_RxReady+0x2c>
 80017b6:	4a05      	ldr	r2, [pc, #20]	; (80017cc <USBD_CDC_EP0_RxReady+0x30>)
 80017b8:	5ca2      	ldrb	r2, [r4, r2]
 80017ba:	689b      	ldr	r3, [r3, #8]
 80017bc:	0021      	movs	r1, r4
 80017be:	4798      	blx	r3
 80017c0:	2380      	movs	r3, #128	; 0x80
 80017c2:	009b      	lsls	r3, r3, #2
 80017c4:	22ff      	movs	r2, #255	; 0xff
 80017c6:	54e2      	strb	r2, [r4, r3]
 80017c8:	2000      	movs	r0, #0
 80017ca:	bd10      	pop	{r4, pc}
 80017cc:	00000201 	.word	0x00000201

080017d0 <USBD_CDC_GetFSCfgDesc>:
 80017d0:	2343      	movs	r3, #67	; 0x43
 80017d2:	8003      	strh	r3, [r0, #0]
 80017d4:	4800      	ldr	r0, [pc, #0]	; (80017d8 <USBD_CDC_GetFSCfgDesc+0x8>)
 80017d6:	4770      	bx	lr
 80017d8:	20000038 	.word	0x20000038

080017dc <USBD_CDC_GetHSCfgDesc>:
 80017dc:	2343      	movs	r3, #67	; 0x43
 80017de:	8003      	strh	r3, [r0, #0]
 80017e0:	4800      	ldr	r0, [pc, #0]	; (80017e4 <USBD_CDC_GetHSCfgDesc+0x8>)
 80017e2:	4770      	bx	lr
 80017e4:	2000007c 	.word	0x2000007c

080017e8 <USBD_CDC_GetOtherSpeedCfgDesc>:
 80017e8:	2343      	movs	r3, #67	; 0x43
 80017ea:	8003      	strh	r3, [r0, #0]
 80017ec:	4800      	ldr	r0, [pc, #0]	; (80017f0 <USBD_CDC_GetOtherSpeedCfgDesc+0x8>)
 80017ee:	4770      	bx	lr
 80017f0:	200000cc 	.word	0x200000cc

080017f4 <USBD_CDC_GetDeviceQualifierDescriptor>:
 80017f4:	230a      	movs	r3, #10
 80017f6:	8003      	strh	r3, [r0, #0]
 80017f8:	4800      	ldr	r0, [pc, #0]	; (80017fc <USBD_CDC_GetDeviceQualifierDescriptor+0x8>)
 80017fa:	4770      	bx	lr
 80017fc:	200000c0 	.word	0x200000c0

08001800 <USBD_CDC_DataOut>:
 8001800:	b570      	push	{r4, r5, r6, lr}
 8001802:	0004      	movs	r4, r0
 8001804:	2686      	movs	r6, #134	; 0x86
 8001806:	00b6      	lsls	r6, r6, #2
 8001808:	5985      	ldr	r5, [r0, r6]
 800180a:	f001 fbf3 	bl	8002ff4 <USBD_LL_GetRxDataSize>
 800180e:	2383      	movs	r3, #131	; 0x83
 8001810:	009b      	lsls	r3, r3, #2
 8001812:	50e8      	str	r0, [r5, r3]
 8001814:	59a3      	ldr	r3, [r4, r6]
 8001816:	2b00      	cmp	r3, #0
 8001818:	d00a      	beq.n	8001830 <USBD_CDC_DataOut+0x30>
 800181a:	2383      	movs	r3, #131	; 0x83
 800181c:	009b      	lsls	r3, r3, #2
 800181e:	18e9      	adds	r1, r5, r3
 8001820:	3b08      	subs	r3, #8
 8001822:	58e8      	ldr	r0, [r5, r3]
 8001824:	3318      	adds	r3, #24
 8001826:	58e3      	ldr	r3, [r4, r3]
 8001828:	68db      	ldr	r3, [r3, #12]
 800182a:	4798      	blx	r3
 800182c:	2000      	movs	r0, #0
 800182e:	bd70      	pop	{r4, r5, r6, pc}
 8001830:	2002      	movs	r0, #2
 8001832:	e7fc      	b.n	800182e <USBD_CDC_DataOut+0x2e>

08001834 <USBD_CDC_Setup>:
 8001834:	b570      	push	{r4, r5, r6, lr}
 8001836:	0005      	movs	r5, r0
 8001838:	000c      	movs	r4, r1
 800183a:	780b      	ldrb	r3, [r1, #0]
 800183c:	2260      	movs	r2, #96	; 0x60
 800183e:	0011      	movs	r1, r2
 8001840:	4019      	ands	r1, r3
 8001842:	421a      	tst	r2, r3
 8001844:	d02c      	beq.n	80018a0 <USBD_CDC_Setup+0x6c>
 8001846:	2920      	cmp	r1, #32
 8001848:	d12d      	bne.n	80018a6 <USBD_CDC_Setup+0x72>
 800184a:	88e2      	ldrh	r2, [r4, #6]
 800184c:	2a00      	cmp	r2, #0
 800184e:	d01e      	beq.n	800188e <USBD_CDC_Setup+0x5a>
 8001850:	31f9      	adds	r1, #249	; 0xf9
 8001852:	31ff      	adds	r1, #255	; 0xff
 8001854:	5846      	ldr	r6, [r0, r1]
 8001856:	b25b      	sxtb	r3, r3
 8001858:	2b00      	cmp	r3, #0
 800185a:	da0c      	bge.n	8001876 <USBD_CDC_Setup+0x42>
 800185c:	7860      	ldrb	r0, [r4, #1]
 800185e:	2387      	movs	r3, #135	; 0x87
 8001860:	009b      	lsls	r3, r3, #2
 8001862:	58eb      	ldr	r3, [r5, r3]
 8001864:	689b      	ldr	r3, [r3, #8]
 8001866:	0031      	movs	r1, r6
 8001868:	4798      	blx	r3
 800186a:	88e2      	ldrh	r2, [r4, #6]
 800186c:	0031      	movs	r1, r6
 800186e:	0028      	movs	r0, r5
 8001870:	f000 fcb8 	bl	80021e4 <USBD_CtlSendData>
 8001874:	e017      	b.n	80018a6 <USBD_CDC_Setup+0x72>
 8001876:	7862      	ldrb	r2, [r4, #1]
 8001878:	2380      	movs	r3, #128	; 0x80
 800187a:	009b      	lsls	r3, r3, #2
 800187c:	54f2      	strb	r2, [r6, r3]
 800187e:	88e2      	ldrh	r2, [r4, #6]
 8001880:	4b0c      	ldr	r3, [pc, #48]	; (80018b4 <USBD_CDC_Setup+0x80>)
 8001882:	54f2      	strb	r2, [r6, r3]
 8001884:	88e2      	ldrh	r2, [r4, #6]
 8001886:	0031      	movs	r1, r6
 8001888:	f000 fcc2 	bl	8002210 <USBD_CtlPrepareRx>
 800188c:	e00b      	b.n	80018a6 <USBD_CDC_Setup+0x72>
 800188e:	7860      	ldrb	r0, [r4, #1]
 8001890:	2387      	movs	r3, #135	; 0x87
 8001892:	009b      	lsls	r3, r3, #2
 8001894:	58eb      	ldr	r3, [r5, r3]
 8001896:	689b      	ldr	r3, [r3, #8]
 8001898:	2200      	movs	r2, #0
 800189a:	0021      	movs	r1, r4
 800189c:	4798      	blx	r3
 800189e:	e002      	b.n	80018a6 <USBD_CDC_Setup+0x72>
 80018a0:	7863      	ldrb	r3, [r4, #1]
 80018a2:	2b0a      	cmp	r3, #10
 80018a4:	d001      	beq.n	80018aa <USBD_CDC_Setup+0x76>
 80018a6:	2000      	movs	r0, #0
 80018a8:	bd70      	pop	{r4, r5, r6, pc}
 80018aa:	2201      	movs	r2, #1
 80018ac:	4902      	ldr	r1, [pc, #8]	; (80018b8 <USBD_CDC_Setup+0x84>)
 80018ae:	f000 fc99 	bl	80021e4 <USBD_CtlSendData>
 80018b2:	e7f8      	b.n	80018a6 <USBD_CDC_Setup+0x72>
 80018b4:	00000201 	.word	0x00000201
 80018b8:	20000190 	.word	0x20000190

080018bc <USBD_CDC_DeInit>:
 80018bc:	b570      	push	{r4, r5, r6, lr}
 80018be:	0004      	movs	r4, r0
 80018c0:	2181      	movs	r1, #129	; 0x81
 80018c2:	f001 fb48 	bl	8002f56 <USBD_LL_CloseEP>
 80018c6:	2101      	movs	r1, #1
 80018c8:	0020      	movs	r0, r4
 80018ca:	f001 fb44 	bl	8002f56 <USBD_LL_CloseEP>
 80018ce:	2182      	movs	r1, #130	; 0x82
 80018d0:	0020      	movs	r0, r4
 80018d2:	f001 fb40 	bl	8002f56 <USBD_LL_CloseEP>
 80018d6:	2386      	movs	r3, #134	; 0x86
 80018d8:	009b      	lsls	r3, r3, #2
 80018da:	58e3      	ldr	r3, [r4, r3]
 80018dc:	2b00      	cmp	r3, #0
 80018de:	d00b      	beq.n	80018f8 <USBD_CDC_DeInit+0x3c>
 80018e0:	2387      	movs	r3, #135	; 0x87
 80018e2:	009b      	lsls	r3, r3, #2
 80018e4:	58e3      	ldr	r3, [r4, r3]
 80018e6:	685b      	ldr	r3, [r3, #4]
 80018e8:	4798      	blx	r3
 80018ea:	2586      	movs	r5, #134	; 0x86
 80018ec:	00ad      	lsls	r5, r5, #2
 80018ee:	5960      	ldr	r0, [r4, r5]
 80018f0:	f001 fb8c 	bl	800300c <USBD_static_free>
 80018f4:	2300      	movs	r3, #0
 80018f6:	5163      	str	r3, [r4, r5]
 80018f8:	2000      	movs	r0, #0
 80018fa:	bd70      	pop	{r4, r5, r6, pc}

080018fc <USBD_CDC_Init>:
 80018fc:	b570      	push	{r4, r5, r6, lr}
 80018fe:	0004      	movs	r4, r0
 8001900:	7c03      	ldrb	r3, [r0, #16]
 8001902:	2b00      	cmp	r3, #0
 8001904:	d133      	bne.n	800196e <USBD_CDC_Init+0x72>
 8001906:	2580      	movs	r5, #128	; 0x80
 8001908:	00ad      	lsls	r5, r5, #2
 800190a:	002b      	movs	r3, r5
 800190c:	2202      	movs	r2, #2
 800190e:	2181      	movs	r1, #129	; 0x81
 8001910:	f001 fb15 	bl	8002f3e <USBD_LL_OpenEP>
 8001914:	002b      	movs	r3, r5
 8001916:	2202      	movs	r2, #2
 8001918:	2101      	movs	r1, #1
 800191a:	0020      	movs	r0, r4
 800191c:	f001 fb0f 	bl	8002f3e <USBD_LL_OpenEP>
 8001920:	2308      	movs	r3, #8
 8001922:	2203      	movs	r2, #3
 8001924:	2182      	movs	r1, #130	; 0x82
 8001926:	0020      	movs	r0, r4
 8001928:	f001 fb09 	bl	8002f3e <USBD_LL_OpenEP>
 800192c:	2087      	movs	r0, #135	; 0x87
 800192e:	0080      	lsls	r0, r0, #2
 8001930:	f001 fb68 	bl	8003004 <USBD_static_malloc>
 8001934:	0005      	movs	r5, r0
 8001936:	2386      	movs	r3, #134	; 0x86
 8001938:	009b      	lsls	r3, r3, #2
 800193a:	50e0      	str	r0, [r4, r3]
 800193c:	2800      	cmp	r0, #0
 800193e:	d02d      	beq.n	800199c <USBD_CDC_Init+0xa0>
 8001940:	3304      	adds	r3, #4
 8001942:	58e3      	ldr	r3, [r4, r3]
 8001944:	681b      	ldr	r3, [r3, #0]
 8001946:	4798      	blx	r3
 8001948:	2300      	movs	r3, #0
 800194a:	2285      	movs	r2, #133	; 0x85
 800194c:	0092      	lsls	r2, r2, #2
 800194e:	50ab      	str	r3, [r5, r2]
 8001950:	3204      	adds	r2, #4
 8001952:	50ab      	str	r3, [r5, r2]
 8001954:	7c26      	ldrb	r6, [r4, #16]
 8001956:	2e00      	cmp	r6, #0
 8001958:	d115      	bne.n	8001986 <USBD_CDC_Init+0x8a>
 800195a:	3380      	adds	r3, #128	; 0x80
 800195c:	3a14      	subs	r2, #20
 800195e:	58aa      	ldr	r2, [r5, r2]
 8001960:	009b      	lsls	r3, r3, #2
 8001962:	2101      	movs	r1, #1
 8001964:	0020      	movs	r0, r4
 8001966:	f001 fb3c 	bl	8002fe2 <USBD_LL_PrepareReceive>
 800196a:	0030      	movs	r0, r6
 800196c:	bd70      	pop	{r4, r5, r6, pc}
 800196e:	2340      	movs	r3, #64	; 0x40
 8001970:	2202      	movs	r2, #2
 8001972:	2181      	movs	r1, #129	; 0x81
 8001974:	f001 fae3 	bl	8002f3e <USBD_LL_OpenEP>
 8001978:	2340      	movs	r3, #64	; 0x40
 800197a:	2202      	movs	r2, #2
 800197c:	2101      	movs	r1, #1
 800197e:	0020      	movs	r0, r4
 8001980:	f001 fadd 	bl	8002f3e <USBD_LL_OpenEP>
 8001984:	e7cc      	b.n	8001920 <USBD_CDC_Init+0x24>
 8001986:	2381      	movs	r3, #129	; 0x81
 8001988:	009b      	lsls	r3, r3, #2
 800198a:	58ea      	ldr	r2, [r5, r3]
 800198c:	3bc5      	subs	r3, #197	; 0xc5
 800198e:	3bff      	subs	r3, #255	; 0xff
 8001990:	2101      	movs	r1, #1
 8001992:	0020      	movs	r0, r4
 8001994:	f001 fb25 	bl	8002fe2 <USBD_LL_PrepareReceive>
 8001998:	2600      	movs	r6, #0
 800199a:	e7e6      	b.n	800196a <USBD_CDC_Init+0x6e>
 800199c:	2601      	movs	r6, #1
 800199e:	e7e4      	b.n	800196a <USBD_CDC_Init+0x6e>

080019a0 <USBD_CDC_RegisterInterface>:
 80019a0:	2900      	cmp	r1, #0
 80019a2:	d004      	beq.n	80019ae <USBD_CDC_RegisterInterface+0xe>
 80019a4:	2387      	movs	r3, #135	; 0x87
 80019a6:	009b      	lsls	r3, r3, #2
 80019a8:	50c1      	str	r1, [r0, r3]
 80019aa:	2000      	movs	r0, #0
 80019ac:	4770      	bx	lr
 80019ae:	2002      	movs	r0, #2
 80019b0:	e7fc      	b.n	80019ac <USBD_CDC_RegisterInterface+0xc>

080019b2 <USBD_CDC_SetTxBuffer>:
 80019b2:	2386      	movs	r3, #134	; 0x86
 80019b4:	009b      	lsls	r3, r3, #2
 80019b6:	58c3      	ldr	r3, [r0, r3]
 80019b8:	2082      	movs	r0, #130	; 0x82
 80019ba:	0080      	lsls	r0, r0, #2
 80019bc:	5019      	str	r1, [r3, r0]
 80019be:	2184      	movs	r1, #132	; 0x84
 80019c0:	0089      	lsls	r1, r1, #2
 80019c2:	505a      	str	r2, [r3, r1]
 80019c4:	2000      	movs	r0, #0
 80019c6:	4770      	bx	lr

080019c8 <USBD_CDC_SetRxBuffer>:
 80019c8:	2386      	movs	r3, #134	; 0x86
 80019ca:	009b      	lsls	r3, r3, #2
 80019cc:	58c2      	ldr	r2, [r0, r3]
 80019ce:	3b14      	subs	r3, #20
 80019d0:	50d1      	str	r1, [r2, r3]
 80019d2:	2000      	movs	r0, #0
 80019d4:	4770      	bx	lr

080019d6 <USBD_CDC_TransmitPacket>:
 80019d6:	b510      	push	{r4, lr}
 80019d8:	0004      	movs	r4, r0
 80019da:	2386      	movs	r3, #134	; 0x86
 80019dc:	009b      	lsls	r3, r3, #2
 80019de:	58c2      	ldr	r2, [r0, r3]
 80019e0:	2a00      	cmp	r2, #0
 80019e2:	d015      	beq.n	8001a10 <USBD_CDC_TransmitPacket+0x3a>
 80019e4:	3b04      	subs	r3, #4
 80019e6:	58d3      	ldr	r3, [r2, r3]
 80019e8:	2001      	movs	r0, #1
 80019ea:	2b00      	cmp	r3, #0
 80019ec:	d000      	beq.n	80019f0 <USBD_CDC_TransmitPacket+0x1a>
 80019ee:	bd10      	pop	{r4, pc}
 80019f0:	2385      	movs	r3, #133	; 0x85
 80019f2:	009b      	lsls	r3, r3, #2
 80019f4:	2101      	movs	r1, #1
 80019f6:	50d1      	str	r1, [r2, r3]
 80019f8:	3b04      	subs	r3, #4
 80019fa:	5ad3      	ldrh	r3, [r2, r3]
 80019fc:	2182      	movs	r1, #130	; 0x82
 80019fe:	0089      	lsls	r1, r1, #2
 8001a00:	5852      	ldr	r2, [r2, r1]
 8001a02:	3988      	subs	r1, #136	; 0x88
 8001a04:	39ff      	subs	r1, #255	; 0xff
 8001a06:	0020      	movs	r0, r4
 8001a08:	f001 fae2 	bl	8002fd0 <USBD_LL_Transmit>
 8001a0c:	2000      	movs	r0, #0
 8001a0e:	e7ee      	b.n	80019ee <USBD_CDC_TransmitPacket+0x18>
 8001a10:	2002      	movs	r0, #2
 8001a12:	e7ec      	b.n	80019ee <USBD_CDC_TransmitPacket+0x18>

08001a14 <USBD_CDC_ReceivePacket>:
 8001a14:	b510      	push	{r4, lr}
 8001a16:	2386      	movs	r3, #134	; 0x86
 8001a18:	009b      	lsls	r3, r3, #2
 8001a1a:	58c2      	ldr	r2, [r0, r3]
 8001a1c:	2a00      	cmp	r2, #0
 8001a1e:	d017      	beq.n	8001a50 <USBD_CDC_ReceivePacket+0x3c>
 8001a20:	7c04      	ldrb	r4, [r0, #16]
 8001a22:	2c00      	cmp	r4, #0
 8001a24:	d10a      	bne.n	8001a3c <USBD_CDC_ReceivePacket+0x28>
 8001a26:	3b99      	subs	r3, #153	; 0x99
 8001a28:	3bff      	subs	r3, #255	; 0xff
 8001a2a:	2181      	movs	r1, #129	; 0x81
 8001a2c:	0089      	lsls	r1, r1, #2
 8001a2e:	5852      	ldr	r2, [r2, r1]
 8001a30:	009b      	lsls	r3, r3, #2
 8001a32:	2101      	movs	r1, #1
 8001a34:	f001 fad5 	bl	8002fe2 <USBD_LL_PrepareReceive>
 8001a38:	0020      	movs	r0, r4
 8001a3a:	bd10      	pop	{r4, pc}
 8001a3c:	2381      	movs	r3, #129	; 0x81
 8001a3e:	009b      	lsls	r3, r3, #2
 8001a40:	58d2      	ldr	r2, [r2, r3]
 8001a42:	3bc5      	subs	r3, #197	; 0xc5
 8001a44:	3bff      	subs	r3, #255	; 0xff
 8001a46:	2101      	movs	r1, #1
 8001a48:	f001 facb 	bl	8002fe2 <USBD_LL_PrepareReceive>
 8001a4c:	2400      	movs	r4, #0
 8001a4e:	e7f3      	b.n	8001a38 <USBD_CDC_ReceivePacket+0x24>
 8001a50:	2402      	movs	r4, #2
 8001a52:	e7f1      	b.n	8001a38 <USBD_CDC_ReceivePacket+0x24>

08001a54 <USBD_Init>:
 8001a54:	b510      	push	{r4, lr}
 8001a56:	2800      	cmp	r0, #0
 8001a58:	d016      	beq.n	8001a88 <USBD_Init+0x34>
 8001a5a:	2385      	movs	r3, #133	; 0x85
 8001a5c:	009b      	lsls	r3, r3, #2
 8001a5e:	58c3      	ldr	r3, [r0, r3]
 8001a60:	2b00      	cmp	r3, #0
 8001a62:	d003      	beq.n	8001a6c <USBD_Init+0x18>
 8001a64:	2385      	movs	r3, #133	; 0x85
 8001a66:	009b      	lsls	r3, r3, #2
 8001a68:	2400      	movs	r4, #0
 8001a6a:	50c4      	str	r4, [r0, r3]
 8001a6c:	2900      	cmp	r1, #0
 8001a6e:	d002      	beq.n	8001a76 <USBD_Init+0x22>
 8001a70:	2384      	movs	r3, #132	; 0x84
 8001a72:	009b      	lsls	r3, r3, #2
 8001a74:	50c1      	str	r1, [r0, r3]
 8001a76:	23fe      	movs	r3, #254	; 0xfe
 8001a78:	005b      	lsls	r3, r3, #1
 8001a7a:	2101      	movs	r1, #1
 8001a7c:	54c1      	strb	r1, [r0, r3]
 8001a7e:	7002      	strb	r2, [r0, #0]
 8001a80:	f001 fa12 	bl	8002ea8 <USBD_LL_Init>
 8001a84:	2000      	movs	r0, #0
 8001a86:	bd10      	pop	{r4, pc}
 8001a88:	2002      	movs	r0, #2
 8001a8a:	e7fc      	b.n	8001a86 <USBD_Init+0x32>

08001a8c <USBD_RegisterClass>:
 8001a8c:	2900      	cmp	r1, #0
 8001a8e:	d004      	beq.n	8001a9a <USBD_RegisterClass+0xe>
 8001a90:	2385      	movs	r3, #133	; 0x85
 8001a92:	009b      	lsls	r3, r3, #2
 8001a94:	50c1      	str	r1, [r0, r3]
 8001a96:	2000      	movs	r0, #0
 8001a98:	4770      	bx	lr
 8001a9a:	2002      	movs	r0, #2
 8001a9c:	e7fc      	b.n	8001a98 <USBD_RegisterClass+0xc>

08001a9e <USBD_Start>:
 8001a9e:	b510      	push	{r4, lr}
 8001aa0:	f001 fa44 	bl	8002f2c <USBD_LL_Start>
 8001aa4:	2000      	movs	r0, #0
 8001aa6:	bd10      	pop	{r4, pc}

08001aa8 <USBD_SetClassConfig>:
 8001aa8:	b510      	push	{r4, lr}
 8001aaa:	2385      	movs	r3, #133	; 0x85
 8001aac:	009b      	lsls	r3, r3, #2
 8001aae:	58c3      	ldr	r3, [r0, r3]
 8001ab0:	2b00      	cmp	r3, #0
 8001ab2:	d004      	beq.n	8001abe <USBD_SetClassConfig+0x16>
 8001ab4:	681b      	ldr	r3, [r3, #0]
 8001ab6:	4798      	blx	r3
 8001ab8:	2800      	cmp	r0, #0
 8001aba:	d102      	bne.n	8001ac2 <USBD_SetClassConfig+0x1a>
 8001abc:	bd10      	pop	{r4, pc}
 8001abe:	2002      	movs	r0, #2
 8001ac0:	e7fc      	b.n	8001abc <USBD_SetClassConfig+0x14>
 8001ac2:	2002      	movs	r0, #2
 8001ac4:	e7fa      	b.n	8001abc <USBD_SetClassConfig+0x14>

08001ac6 <USBD_ClrClassConfig>:
 8001ac6:	b510      	push	{r4, lr}
 8001ac8:	2385      	movs	r3, #133	; 0x85
 8001aca:	009b      	lsls	r3, r3, #2
 8001acc:	58c3      	ldr	r3, [r0, r3]
 8001ace:	685b      	ldr	r3, [r3, #4]
 8001ad0:	4798      	blx	r3
 8001ad2:	2000      	movs	r0, #0
 8001ad4:	bd10      	pop	{r4, pc}
	...

08001ad8 <USBD_LL_SetupStage>:
 8001ad8:	b570      	push	{r4, r5, r6, lr}
 8001ada:	0004      	movs	r4, r0
 8001adc:	2382      	movs	r3, #130	; 0x82
 8001ade:	009b      	lsls	r3, r3, #2
 8001ae0:	18c5      	adds	r5, r0, r3
 8001ae2:	0028      	movs	r0, r5
 8001ae4:	f000 f913 	bl	8001d0e <USBD_ParseSetupRequest>
 8001ae8:	23fa      	movs	r3, #250	; 0xfa
 8001aea:	005b      	lsls	r3, r3, #1
 8001aec:	2201      	movs	r2, #1
 8001aee:	50e2      	str	r2, [r4, r3]
 8001af0:	4b12      	ldr	r3, [pc, #72]	; (8001b3c <USBD_LL_SetupStage+0x64>)
 8001af2:	5ae2      	ldrh	r2, [r4, r3]
 8001af4:	3b16      	subs	r3, #22
 8001af6:	50e2      	str	r2, [r4, r3]
 8001af8:	3310      	adds	r3, #16
 8001afa:	5ce1      	ldrb	r1, [r4, r3]
 8001afc:	3bea      	subs	r3, #234	; 0xea
 8001afe:	3bff      	subs	r3, #255	; 0xff
 8001b00:	400b      	ands	r3, r1
 8001b02:	2b01      	cmp	r3, #1
 8001b04:	d00f      	beq.n	8001b26 <USBD_LL_SetupStage+0x4e>
 8001b06:	2b02      	cmp	r3, #2
 8001b08:	d012      	beq.n	8001b30 <USBD_LL_SetupStage+0x58>
 8001b0a:	2b00      	cmp	r3, #0
 8001b0c:	d005      	beq.n	8001b1a <USBD_LL_SetupStage+0x42>
 8001b0e:	237f      	movs	r3, #127	; 0x7f
 8001b10:	4399      	bics	r1, r3
 8001b12:	0020      	movs	r0, r4
 8001b14:	f001 fa28 	bl	8002f68 <USBD_LL_StallEP>
 8001b18:	e003      	b.n	8001b22 <USBD_LL_SetupStage+0x4a>
 8001b1a:	0029      	movs	r1, r5
 8001b1c:	0020      	movs	r0, r4
 8001b1e:	f000 f915 	bl	8001d4c <USBD_StdDevReq>
 8001b22:	2000      	movs	r0, #0
 8001b24:	bd70      	pop	{r4, r5, r6, pc}
 8001b26:	0029      	movs	r1, r5
 8001b28:	0020      	movs	r0, r4
 8001b2a:	f000 faab 	bl	8002084 <USBD_StdItfReq>
 8001b2e:	e7f8      	b.n	8001b22 <USBD_LL_SetupStage+0x4a>
 8001b30:	0029      	movs	r1, r5
 8001b32:	0020      	movs	r0, r4
 8001b34:	f000 fac4 	bl	80020c0 <USBD_StdEPReq>
 8001b38:	e7f3      	b.n	8001b22 <USBD_LL_SetupStage+0x4a>
 8001b3a:	46c0      	nop			; (mov r8, r8)
 8001b3c:	0000020e 	.word	0x0000020e

08001b40 <USBD_LL_DataOutStage>:
 8001b40:	b510      	push	{r4, lr}
 8001b42:	0004      	movs	r4, r0
 8001b44:	0013      	movs	r3, r2
 8001b46:	2900      	cmp	r1, #0
 8001b48:	d12a      	bne.n	8001ba0 <USBD_LL_DataOutStage+0x60>
 8001b4a:	22fa      	movs	r2, #250	; 0xfa
 8001b4c:	0052      	lsls	r2, r2, #1
 8001b4e:	5882      	ldr	r2, [r0, r2]
 8001b50:	2a03      	cmp	r2, #3
 8001b52:	d001      	beq.n	8001b58 <USBD_LL_DataOutStage+0x18>
 8001b54:	2000      	movs	r0, #0
 8001b56:	bd10      	pop	{r4, pc}
 8001b58:	1d42      	adds	r2, r0, #5
 8001b5a:	32ff      	adds	r2, #255	; 0xff
 8001b5c:	6891      	ldr	r1, [r2, #8]
 8001b5e:	68d2      	ldr	r2, [r2, #12]
 8001b60:	4291      	cmp	r1, r2
 8001b62:	d80e      	bhi.n	8001b82 <USBD_LL_DataOutStage+0x42>
 8001b64:	2385      	movs	r3, #133	; 0x85
 8001b66:	009b      	lsls	r3, r3, #2
 8001b68:	58c3      	ldr	r3, [r0, r3]
 8001b6a:	691b      	ldr	r3, [r3, #16]
 8001b6c:	2b00      	cmp	r3, #0
 8001b6e:	d004      	beq.n	8001b7a <USBD_LL_DataOutStage+0x3a>
 8001b70:	22fe      	movs	r2, #254	; 0xfe
 8001b72:	0052      	lsls	r2, r2, #1
 8001b74:	5c82      	ldrb	r2, [r0, r2]
 8001b76:	2a03      	cmp	r2, #3
 8001b78:	d010      	beq.n	8001b9c <USBD_LL_DataOutStage+0x5c>
 8001b7a:	0020      	movs	r0, r4
 8001b7c:	f000 fb60 	bl	8002240 <USBD_CtlSendStatus>
 8001b80:	e7e8      	b.n	8001b54 <USBD_LL_DataOutStage+0x14>
 8001b82:	1a89      	subs	r1, r1, r2
 8001b84:	3005      	adds	r0, #5
 8001b86:	30ff      	adds	r0, #255	; 0xff
 8001b88:	6081      	str	r1, [r0, #8]
 8001b8a:	428a      	cmp	r2, r1
 8001b8c:	d900      	bls.n	8001b90 <USBD_LL_DataOutStage+0x50>
 8001b8e:	000a      	movs	r2, r1
 8001b90:	b292      	uxth	r2, r2
 8001b92:	0019      	movs	r1, r3
 8001b94:	0020      	movs	r0, r4
 8001b96:	f000 fb4b 	bl	8002230 <USBD_CtlContinueRx>
 8001b9a:	e7db      	b.n	8001b54 <USBD_LL_DataOutStage+0x14>
 8001b9c:	4798      	blx	r3
 8001b9e:	e7ec      	b.n	8001b7a <USBD_LL_DataOutStage+0x3a>
 8001ba0:	2385      	movs	r3, #133	; 0x85
 8001ba2:	009b      	lsls	r3, r3, #2
 8001ba4:	58c3      	ldr	r3, [r0, r3]
 8001ba6:	699b      	ldr	r3, [r3, #24]
 8001ba8:	2b00      	cmp	r3, #0
 8001baa:	d0d3      	beq.n	8001b54 <USBD_LL_DataOutStage+0x14>
 8001bac:	22fe      	movs	r2, #254	; 0xfe
 8001bae:	0052      	lsls	r2, r2, #1
 8001bb0:	5c82      	ldrb	r2, [r0, r2]
 8001bb2:	2a03      	cmp	r2, #3
 8001bb4:	d1ce      	bne.n	8001b54 <USBD_LL_DataOutStage+0x14>
 8001bb6:	4798      	blx	r3
 8001bb8:	e7cc      	b.n	8001b54 <USBD_LL_DataOutStage+0x14>

08001bba <USBD_LL_DataInStage>:
 8001bba:	b570      	push	{r4, r5, r6, lr}
 8001bbc:	0004      	movs	r4, r0
 8001bbe:	0013      	movs	r3, r2
 8001bc0:	2900      	cmp	r1, #0
 8001bc2:	d14f      	bne.n	8001c64 <USBD_LL_DataInStage+0xaa>
 8001bc4:	22fa      	movs	r2, #250	; 0xfa
 8001bc6:	0052      	lsls	r2, r2, #1
 8001bc8:	5882      	ldr	r2, [r0, r2]
 8001bca:	2a02      	cmp	r2, #2
 8001bcc:	d006      	beq.n	8001bdc <USBD_LL_DataInStage+0x22>
 8001bce:	2380      	movs	r3, #128	; 0x80
 8001bd0:	009b      	lsls	r3, r3, #2
 8001bd2:	5ce3      	ldrb	r3, [r4, r3]
 8001bd4:	2b01      	cmp	r3, #1
 8001bd6:	d040      	beq.n	8001c5a <USBD_LL_DataInStage+0xa0>
 8001bd8:	2000      	movs	r0, #0
 8001bda:	bd70      	pop	{r4, r5, r6, pc}
 8001bdc:	69c2      	ldr	r2, [r0, #28]
 8001bde:	6a05      	ldr	r5, [r0, #32]
 8001be0:	42aa      	cmp	r2, r5
 8001be2:	d81c      	bhi.n	8001c1e <USBD_LL_DataInStage+0x64>
 8001be4:	6986      	ldr	r6, [r0, #24]
 8001be6:	0029      	movs	r1, r5
 8001be8:	0030      	movs	r0, r6
 8001bea:	f7fe fb13 	bl	8000214 <__aeabi_uidivmod>
 8001bee:	2900      	cmp	r1, #0
 8001bf0:	d106      	bne.n	8001c00 <USBD_LL_DataInStage+0x46>
 8001bf2:	42b5      	cmp	r5, r6
 8001bf4:	d804      	bhi.n	8001c00 <USBD_LL_DataInStage+0x46>
 8001bf6:	23fc      	movs	r3, #252	; 0xfc
 8001bf8:	005b      	lsls	r3, r3, #1
 8001bfa:	58e3      	ldr	r3, [r4, r3]
 8001bfc:	429e      	cmp	r6, r3
 8001bfe:	d31b      	bcc.n	8001c38 <USBD_LL_DataInStage+0x7e>
 8001c00:	2385      	movs	r3, #133	; 0x85
 8001c02:	009b      	lsls	r3, r3, #2
 8001c04:	58e3      	ldr	r3, [r4, r3]
 8001c06:	68db      	ldr	r3, [r3, #12]
 8001c08:	2b00      	cmp	r3, #0
 8001c0a:	d004      	beq.n	8001c16 <USBD_LL_DataInStage+0x5c>
 8001c0c:	22fe      	movs	r2, #254	; 0xfe
 8001c0e:	0052      	lsls	r2, r2, #1
 8001c10:	5ca2      	ldrb	r2, [r4, r2]
 8001c12:	2a03      	cmp	r2, #3
 8001c14:	d01e      	beq.n	8001c54 <USBD_LL_DataInStage+0x9a>
 8001c16:	0020      	movs	r0, r4
 8001c18:	f000 fb1e 	bl	8002258 <USBD_CtlReceiveStatus>
 8001c1c:	e7d7      	b.n	8001bce <USBD_LL_DataInStage+0x14>
 8001c1e:	1b52      	subs	r2, r2, r5
 8001c20:	61c2      	str	r2, [r0, #28]
 8001c22:	b292      	uxth	r2, r2
 8001c24:	0019      	movs	r1, r3
 8001c26:	f000 faeb 	bl	8002200 <USBD_CtlContinueSendData>
 8001c2a:	2300      	movs	r3, #0
 8001c2c:	2200      	movs	r2, #0
 8001c2e:	2100      	movs	r1, #0
 8001c30:	0020      	movs	r0, r4
 8001c32:	f001 f9d6 	bl	8002fe2 <USBD_LL_PrepareReceive>
 8001c36:	e7ca      	b.n	8001bce <USBD_LL_DataInStage+0x14>
 8001c38:	2200      	movs	r2, #0
 8001c3a:	0020      	movs	r0, r4
 8001c3c:	f000 fae0 	bl	8002200 <USBD_CtlContinueSendData>
 8001c40:	23fc      	movs	r3, #252	; 0xfc
 8001c42:	005b      	lsls	r3, r3, #1
 8001c44:	2200      	movs	r2, #0
 8001c46:	50e2      	str	r2, [r4, r3]
 8001c48:	2300      	movs	r3, #0
 8001c4a:	2100      	movs	r1, #0
 8001c4c:	0020      	movs	r0, r4
 8001c4e:	f001 f9c8 	bl	8002fe2 <USBD_LL_PrepareReceive>
 8001c52:	e7bc      	b.n	8001bce <USBD_LL_DataInStage+0x14>
 8001c54:	0020      	movs	r0, r4
 8001c56:	4798      	blx	r3
 8001c58:	e7dd      	b.n	8001c16 <USBD_LL_DataInStage+0x5c>
 8001c5a:	2380      	movs	r3, #128	; 0x80
 8001c5c:	009b      	lsls	r3, r3, #2
 8001c5e:	2200      	movs	r2, #0
 8001c60:	54e2      	strb	r2, [r4, r3]
 8001c62:	e7b9      	b.n	8001bd8 <USBD_LL_DataInStage+0x1e>
 8001c64:	2385      	movs	r3, #133	; 0x85
 8001c66:	009b      	lsls	r3, r3, #2
 8001c68:	58c3      	ldr	r3, [r0, r3]
 8001c6a:	695b      	ldr	r3, [r3, #20]
 8001c6c:	2b00      	cmp	r3, #0
 8001c6e:	d0b3      	beq.n	8001bd8 <USBD_LL_DataInStage+0x1e>
 8001c70:	22fe      	movs	r2, #254	; 0xfe
 8001c72:	0052      	lsls	r2, r2, #1
 8001c74:	5c82      	ldrb	r2, [r0, r2]
 8001c76:	2a03      	cmp	r2, #3
 8001c78:	d1ae      	bne.n	8001bd8 <USBD_LL_DataInStage+0x1e>
 8001c7a:	4798      	blx	r3
 8001c7c:	e7ac      	b.n	8001bd8 <USBD_LL_DataInStage+0x1e>

08001c7e <USBD_LL_Reset>:
 8001c7e:	b570      	push	{r4, r5, r6, lr}
 8001c80:	0004      	movs	r4, r0
 8001c82:	2340      	movs	r3, #64	; 0x40
 8001c84:	2200      	movs	r2, #0
 8001c86:	2100      	movs	r1, #0
 8001c88:	f001 f959 	bl	8002f3e <USBD_LL_OpenEP>
 8001c8c:	2540      	movs	r5, #64	; 0x40
 8001c8e:	2388      	movs	r3, #136	; 0x88
 8001c90:	005b      	lsls	r3, r3, #1
 8001c92:	50e5      	str	r5, [r4, r3]
 8001c94:	3bd0      	subs	r3, #208	; 0xd0
 8001c96:	2200      	movs	r2, #0
 8001c98:	2180      	movs	r1, #128	; 0x80
 8001c9a:	0020      	movs	r0, r4
 8001c9c:	f001 f94f 	bl	8002f3e <USBD_LL_OpenEP>
 8001ca0:	6225      	str	r5, [r4, #32]
 8001ca2:	23fe      	movs	r3, #254	; 0xfe
 8001ca4:	005b      	lsls	r3, r3, #1
 8001ca6:	2201      	movs	r2, #1
 8001ca8:	54e2      	strb	r2, [r4, r3]
 8001caa:	331c      	adds	r3, #28
 8001cac:	58e3      	ldr	r3, [r4, r3]
 8001cae:	2b00      	cmp	r3, #0
 8001cb0:	d006      	beq.n	8001cc0 <USBD_LL_Reset+0x42>
 8001cb2:	7921      	ldrb	r1, [r4, #4]
 8001cb4:	2385      	movs	r3, #133	; 0x85
 8001cb6:	009b      	lsls	r3, r3, #2
 8001cb8:	58e3      	ldr	r3, [r4, r3]
 8001cba:	685b      	ldr	r3, [r3, #4]
 8001cbc:	0020      	movs	r0, r4
 8001cbe:	4798      	blx	r3
 8001cc0:	2000      	movs	r0, #0
 8001cc2:	bd70      	pop	{r4, r5, r6, pc}

08001cc4 <USBD_LL_SetSpeed>:
 8001cc4:	7401      	strb	r1, [r0, #16]
 8001cc6:	2000      	movs	r0, #0
 8001cc8:	4770      	bx	lr

08001cca <USBD_LL_Suspend>:
 8001cca:	23fe      	movs	r3, #254	; 0xfe
 8001ccc:	005b      	lsls	r3, r3, #1
 8001cce:	5cc1      	ldrb	r1, [r0, r3]
 8001cd0:	22fe      	movs	r2, #254	; 0xfe
 8001cd2:	32ff      	adds	r2, #255	; 0xff
 8001cd4:	5481      	strb	r1, [r0, r2]
 8001cd6:	3afa      	subs	r2, #250	; 0xfa
 8001cd8:	3aff      	subs	r2, #255	; 0xff
 8001cda:	54c2      	strb	r2, [r0, r3]
 8001cdc:	2000      	movs	r0, #0
 8001cde:	4770      	bx	lr

08001ce0 <USBD_LL_Resume>:
 8001ce0:	23fe      	movs	r3, #254	; 0xfe
 8001ce2:	33ff      	adds	r3, #255	; 0xff
 8001ce4:	5cc2      	ldrb	r2, [r0, r3]
 8001ce6:	3b01      	subs	r3, #1
 8001ce8:	54c2      	strb	r2, [r0, r3]
 8001cea:	2000      	movs	r0, #0
 8001cec:	4770      	bx	lr

08001cee <USBD_LL_SOF>:
 8001cee:	b510      	push	{r4, lr}
 8001cf0:	23fe      	movs	r3, #254	; 0xfe
 8001cf2:	005b      	lsls	r3, r3, #1
 8001cf4:	5cc3      	ldrb	r3, [r0, r3]
 8001cf6:	2b03      	cmp	r3, #3
 8001cf8:	d001      	beq.n	8001cfe <USBD_LL_SOF+0x10>
 8001cfa:	2000      	movs	r0, #0
 8001cfc:	bd10      	pop	{r4, pc}
 8001cfe:	2385      	movs	r3, #133	; 0x85
 8001d00:	009b      	lsls	r3, r3, #2
 8001d02:	58c3      	ldr	r3, [r0, r3]
 8001d04:	69db      	ldr	r3, [r3, #28]
 8001d06:	2b00      	cmp	r3, #0
 8001d08:	d0f7      	beq.n	8001cfa <USBD_LL_SOF+0xc>
 8001d0a:	4798      	blx	r3
 8001d0c:	e7f5      	b.n	8001cfa <USBD_LL_SOF+0xc>

08001d0e <USBD_ParseSetupRequest>:
 8001d0e:	780b      	ldrb	r3, [r1, #0]
 8001d10:	7003      	strb	r3, [r0, #0]
 8001d12:	784b      	ldrb	r3, [r1, #1]
 8001d14:	7043      	strb	r3, [r0, #1]
 8001d16:	78ca      	ldrb	r2, [r1, #3]
 8001d18:	0212      	lsls	r2, r2, #8
 8001d1a:	788b      	ldrb	r3, [r1, #2]
 8001d1c:	189b      	adds	r3, r3, r2
 8001d1e:	8043      	strh	r3, [r0, #2]
 8001d20:	794a      	ldrb	r2, [r1, #5]
 8001d22:	0212      	lsls	r2, r2, #8
 8001d24:	790b      	ldrb	r3, [r1, #4]
 8001d26:	189b      	adds	r3, r3, r2
 8001d28:	8083      	strh	r3, [r0, #4]
 8001d2a:	79ca      	ldrb	r2, [r1, #7]
 8001d2c:	0212      	lsls	r2, r2, #8
 8001d2e:	798b      	ldrb	r3, [r1, #6]
 8001d30:	189b      	adds	r3, r3, r2
 8001d32:	80c3      	strh	r3, [r0, #6]
 8001d34:	4770      	bx	lr

08001d36 <USBD_CtlError>:
 8001d36:	b510      	push	{r4, lr}
 8001d38:	0004      	movs	r4, r0
 8001d3a:	2180      	movs	r1, #128	; 0x80
 8001d3c:	f001 f914 	bl	8002f68 <USBD_LL_StallEP>
 8001d40:	2100      	movs	r1, #0
 8001d42:	0020      	movs	r0, r4
 8001d44:	f001 f910 	bl	8002f68 <USBD_LL_StallEP>
 8001d48:	bd10      	pop	{r4, pc}
	...

08001d4c <USBD_StdDevReq>:
 8001d4c:	b530      	push	{r4, r5, lr}
 8001d4e:	b083      	sub	sp, #12
 8001d50:	0005      	movs	r5, r0
 8001d52:	000c      	movs	r4, r1
 8001d54:	784b      	ldrb	r3, [r1, #1]
 8001d56:	2b09      	cmp	r3, #9
 8001d58:	d900      	bls.n	8001d5c <USBD_StdDevReq+0x10>
 8001d5a:	e18b      	b.n	8002074 <USBD_StdDevReq+0x328>
 8001d5c:	009b      	lsls	r3, r3, #2
 8001d5e:	4ac1      	ldr	r2, [pc, #772]	; (8002064 <USBD_StdDevReq+0x318>)
 8001d60:	58d3      	ldr	r3, [r2, r3]
 8001d62:	469f      	mov	pc, r3
 8001d64:	884b      	ldrh	r3, [r1, #2]
 8001d66:	0a1a      	lsrs	r2, r3, #8
 8001d68:	2a07      	cmp	r2, #7
 8001d6a:	d900      	bls.n	8001d6e <USBD_StdDevReq+0x22>
 8001d6c:	e099      	b.n	8001ea2 <USBD_StdDevReq+0x156>
 8001d6e:	0092      	lsls	r2, r2, #2
 8001d70:	49bd      	ldr	r1, [pc, #756]	; (8002068 <USBD_StdDevReq+0x31c>)
 8001d72:	588a      	ldr	r2, [r1, r2]
 8001d74:	4697      	mov	pc, r2
 8001d76:	7c00      	ldrb	r0, [r0, #16]
 8001d78:	2384      	movs	r3, #132	; 0x84
 8001d7a:	009b      	lsls	r3, r3, #2
 8001d7c:	58eb      	ldr	r3, [r5, r3]
 8001d7e:	681b      	ldr	r3, [r3, #0]
 8001d80:	466a      	mov	r2, sp
 8001d82:	1d91      	adds	r1, r2, #6
 8001d84:	4798      	blx	r3
 8001d86:	466b      	mov	r3, sp
 8001d88:	3306      	adds	r3, #6
 8001d8a:	881b      	ldrh	r3, [r3, #0]
 8001d8c:	2b00      	cmp	r3, #0
 8001d8e:	d100      	bne.n	8001d92 <USBD_StdDevReq+0x46>
 8001d90:	e174      	b.n	800207c <USBD_StdDevReq+0x330>
 8001d92:	88e2      	ldrh	r2, [r4, #6]
 8001d94:	2a00      	cmp	r2, #0
 8001d96:	d100      	bne.n	8001d9a <USBD_StdDevReq+0x4e>
 8001d98:	e170      	b.n	800207c <USBD_StdDevReq+0x330>
 8001d9a:	1c19      	adds	r1, r3, #0
 8001d9c:	4293      	cmp	r3, r2
 8001d9e:	d900      	bls.n	8001da2 <USBD_StdDevReq+0x56>
 8001da0:	1c11      	adds	r1, r2, #0
 8001da2:	b28a      	uxth	r2, r1
 8001da4:	466b      	mov	r3, sp
 8001da6:	80d9      	strh	r1, [r3, #6]
 8001da8:	0001      	movs	r1, r0
 8001daa:	0028      	movs	r0, r5
 8001dac:	f000 fa1a 	bl	80021e4 <USBD_CtlSendData>
 8001db0:	e164      	b.n	800207c <USBD_StdDevReq+0x330>
 8001db2:	7c03      	ldrb	r3, [r0, #16]
 8001db4:	2b00      	cmp	r3, #0
 8001db6:	d109      	bne.n	8001dcc <USBD_StdDevReq+0x80>
 8001db8:	2385      	movs	r3, #133	; 0x85
 8001dba:	009b      	lsls	r3, r3, #2
 8001dbc:	58c3      	ldr	r3, [r0, r3]
 8001dbe:	6a9b      	ldr	r3, [r3, #40]	; 0x28
 8001dc0:	466a      	mov	r2, sp
 8001dc2:	1d90      	adds	r0, r2, #6
 8001dc4:	4798      	blx	r3
 8001dc6:	2302      	movs	r3, #2
 8001dc8:	7043      	strb	r3, [r0, #1]
 8001dca:	e7dc      	b.n	8001d86 <USBD_StdDevReq+0x3a>
 8001dcc:	2385      	movs	r3, #133	; 0x85
 8001dce:	009b      	lsls	r3, r3, #2
 8001dd0:	58c3      	ldr	r3, [r0, r3]
 8001dd2:	6adb      	ldr	r3, [r3, #44]	; 0x2c
 8001dd4:	466a      	mov	r2, sp
 8001dd6:	1d90      	adds	r0, r2, #6
 8001dd8:	4798      	blx	r3
 8001dda:	2302      	movs	r3, #2
 8001ddc:	7043      	strb	r3, [r0, #1]
 8001dde:	e7d2      	b.n	8001d86 <USBD_StdDevReq+0x3a>
 8001de0:	b2da      	uxtb	r2, r3
 8001de2:	2a05      	cmp	r2, #5
 8001de4:	d839      	bhi.n	8001e5a <USBD_StdDevReq+0x10e>
 8001de6:	0093      	lsls	r3, r2, #2
 8001de8:	4aa0      	ldr	r2, [pc, #640]	; (800206c <USBD_StdDevReq+0x320>)
 8001dea:	58d3      	ldr	r3, [r2, r3]
 8001dec:	469f      	mov	pc, r3
 8001dee:	7c00      	ldrb	r0, [r0, #16]
 8001df0:	2384      	movs	r3, #132	; 0x84
 8001df2:	009b      	lsls	r3, r3, #2
 8001df4:	58eb      	ldr	r3, [r5, r3]
 8001df6:	685b      	ldr	r3, [r3, #4]
 8001df8:	466a      	mov	r2, sp
 8001dfa:	1d91      	adds	r1, r2, #6
 8001dfc:	4798      	blx	r3
 8001dfe:	e7c2      	b.n	8001d86 <USBD_StdDevReq+0x3a>
 8001e00:	7c00      	ldrb	r0, [r0, #16]
 8001e02:	2384      	movs	r3, #132	; 0x84
 8001e04:	009b      	lsls	r3, r3, #2
 8001e06:	58eb      	ldr	r3, [r5, r3]
 8001e08:	689b      	ldr	r3, [r3, #8]
 8001e0a:	466a      	mov	r2, sp
 8001e0c:	1d91      	adds	r1, r2, #6
 8001e0e:	4798      	blx	r3
 8001e10:	e7b9      	b.n	8001d86 <USBD_StdDevReq+0x3a>
 8001e12:	7c00      	ldrb	r0, [r0, #16]
 8001e14:	2384      	movs	r3, #132	; 0x84
 8001e16:	009b      	lsls	r3, r3, #2
 8001e18:	58eb      	ldr	r3, [r5, r3]
 8001e1a:	68db      	ldr	r3, [r3, #12]
 8001e1c:	466a      	mov	r2, sp
 8001e1e:	1d91      	adds	r1, r2, #6
 8001e20:	4798      	blx	r3
 8001e22:	e7b0      	b.n	8001d86 <USBD_StdDevReq+0x3a>
 8001e24:	7c00      	ldrb	r0, [r0, #16]
 8001e26:	2384      	movs	r3, #132	; 0x84
 8001e28:	009b      	lsls	r3, r3, #2
 8001e2a:	58eb      	ldr	r3, [r5, r3]
 8001e2c:	691b      	ldr	r3, [r3, #16]
 8001e2e:	466a      	mov	r2, sp
 8001e30:	1d91      	adds	r1, r2, #6
 8001e32:	4798      	blx	r3
 8001e34:	e7a7      	b.n	8001d86 <USBD_StdDevReq+0x3a>
 8001e36:	7c00      	ldrb	r0, [r0, #16]
 8001e38:	2384      	movs	r3, #132	; 0x84
 8001e3a:	009b      	lsls	r3, r3, #2
 8001e3c:	58eb      	ldr	r3, [r5, r3]
 8001e3e:	695b      	ldr	r3, [r3, #20]
 8001e40:	466a      	mov	r2, sp
 8001e42:	1d91      	adds	r1, r2, #6
 8001e44:	4798      	blx	r3
 8001e46:	e79e      	b.n	8001d86 <USBD_StdDevReq+0x3a>
 8001e48:	7c00      	ldrb	r0, [r0, #16]
 8001e4a:	2384      	movs	r3, #132	; 0x84
 8001e4c:	009b      	lsls	r3, r3, #2
 8001e4e:	58eb      	ldr	r3, [r5, r3]
 8001e50:	699b      	ldr	r3, [r3, #24]
 8001e52:	466a      	mov	r2, sp
 8001e54:	1d91      	adds	r1, r2, #6
 8001e56:	4798      	blx	r3
 8001e58:	e795      	b.n	8001d86 <USBD_StdDevReq+0x3a>
 8001e5a:	0021      	movs	r1, r4
 8001e5c:	f7ff ff6b 	bl	8001d36 <USBD_CtlError>
 8001e60:	e10c      	b.n	800207c <USBD_StdDevReq+0x330>
 8001e62:	7c03      	ldrb	r3, [r0, #16]
 8001e64:	2b00      	cmp	r3, #0
 8001e66:	d107      	bne.n	8001e78 <USBD_StdDevReq+0x12c>
 8001e68:	2385      	movs	r3, #133	; 0x85
 8001e6a:	009b      	lsls	r3, r3, #2
 8001e6c:	58c3      	ldr	r3, [r0, r3]
 8001e6e:	6b5b      	ldr	r3, [r3, #52]	; 0x34
 8001e70:	466a      	mov	r2, sp
 8001e72:	1d90      	adds	r0, r2, #6
 8001e74:	4798      	blx	r3
 8001e76:	e786      	b.n	8001d86 <USBD_StdDevReq+0x3a>
 8001e78:	0021      	movs	r1, r4
 8001e7a:	f7ff ff5c 	bl	8001d36 <USBD_CtlError>
 8001e7e:	e0fd      	b.n	800207c <USBD_StdDevReq+0x330>
 8001e80:	7c03      	ldrb	r3, [r0, #16]
 8001e82:	2b00      	cmp	r3, #0
 8001e84:	d109      	bne.n	8001e9a <USBD_StdDevReq+0x14e>
 8001e86:	2385      	movs	r3, #133	; 0x85
 8001e88:	009b      	lsls	r3, r3, #2
 8001e8a:	58c3      	ldr	r3, [r0, r3]
 8001e8c:	6b1b      	ldr	r3, [r3, #48]	; 0x30
 8001e8e:	466a      	mov	r2, sp
 8001e90:	1d90      	adds	r0, r2, #6
 8001e92:	4798      	blx	r3
 8001e94:	2307      	movs	r3, #7
 8001e96:	7043      	strb	r3, [r0, #1]
 8001e98:	e775      	b.n	8001d86 <USBD_StdDevReq+0x3a>
 8001e9a:	0021      	movs	r1, r4
 8001e9c:	f7ff ff4b 	bl	8001d36 <USBD_CtlError>
 8001ea0:	e0ec      	b.n	800207c <USBD_StdDevReq+0x330>
 8001ea2:	0021      	movs	r1, r4
 8001ea4:	0028      	movs	r0, r5
 8001ea6:	f7ff ff46 	bl	8001d36 <USBD_CtlError>
 8001eaa:	e0e7      	b.n	800207c <USBD_StdDevReq+0x330>
 8001eac:	888b      	ldrh	r3, [r1, #4]
 8001eae:	2b00      	cmp	r3, #0
 8001eb0:	d122      	bne.n	8001ef8 <USBD_StdDevReq+0x1ac>
 8001eb2:	88cb      	ldrh	r3, [r1, #6]
 8001eb4:	2b00      	cmp	r3, #0
 8001eb6:	d11f      	bne.n	8001ef8 <USBD_StdDevReq+0x1ac>
 8001eb8:	33fd      	adds	r3, #253	; 0xfd
 8001eba:	33ff      	adds	r3, #255	; 0xff
 8001ebc:	5cc3      	ldrb	r3, [r0, r3]
 8001ebe:	2b03      	cmp	r3, #3
 8001ec0:	d012      	beq.n	8001ee8 <USBD_StdDevReq+0x19c>
 8001ec2:	884b      	ldrh	r3, [r1, #2]
 8001ec4:	247f      	movs	r4, #127	; 0x7f
 8001ec6:	401c      	ands	r4, r3
 8001ec8:	23ff      	movs	r3, #255	; 0xff
 8001eca:	005b      	lsls	r3, r3, #1
 8001ecc:	54c4      	strb	r4, [r0, r3]
 8001ece:	0021      	movs	r1, r4
 8001ed0:	f001 f875 	bl	8002fbe <USBD_LL_SetUSBAddress>
 8001ed4:	0028      	movs	r0, r5
 8001ed6:	f000 f9b3 	bl	8002240 <USBD_CtlSendStatus>
 8001eda:	2c00      	cmp	r4, #0
 8001edc:	d007      	beq.n	8001eee <USBD_StdDevReq+0x1a2>
 8001ede:	23fe      	movs	r3, #254	; 0xfe
 8001ee0:	005b      	lsls	r3, r3, #1
 8001ee2:	2202      	movs	r2, #2
 8001ee4:	54ea      	strb	r2, [r5, r3]
 8001ee6:	e0c9      	b.n	800207c <USBD_StdDevReq+0x330>
 8001ee8:	f7ff ff25 	bl	8001d36 <USBD_CtlError>
 8001eec:	e0c6      	b.n	800207c <USBD_StdDevReq+0x330>
 8001eee:	23fe      	movs	r3, #254	; 0xfe
 8001ef0:	005b      	lsls	r3, r3, #1
 8001ef2:	2201      	movs	r2, #1
 8001ef4:	54ea      	strb	r2, [r5, r3]
 8001ef6:	e0c1      	b.n	800207c <USBD_StdDevReq+0x330>
 8001ef8:	0021      	movs	r1, r4
 8001efa:	0028      	movs	r0, r5
 8001efc:	f7ff ff1b 	bl	8001d36 <USBD_CtlError>
 8001f00:	e0bc      	b.n	800207c <USBD_StdDevReq+0x330>
 8001f02:	788b      	ldrb	r3, [r1, #2]
 8001f04:	4a5a      	ldr	r2, [pc, #360]	; (8002070 <USBD_StdDevReq+0x324>)
 8001f06:	7013      	strb	r3, [r2, #0]
 8001f08:	2b01      	cmp	r3, #1
 8001f0a:	d809      	bhi.n	8001f20 <USBD_StdDevReq+0x1d4>
 8001f0c:	22fe      	movs	r2, #254	; 0xfe
 8001f0e:	0052      	lsls	r2, r2, #1
 8001f10:	5c82      	ldrb	r2, [r0, r2]
 8001f12:	2a02      	cmp	r2, #2
 8001f14:	d007      	beq.n	8001f26 <USBD_StdDevReq+0x1da>
 8001f16:	2a03      	cmp	r2, #3
 8001f18:	d01e      	beq.n	8001f58 <USBD_StdDevReq+0x20c>
 8001f1a:	f7ff ff0c 	bl	8001d36 <USBD_CtlError>
 8001f1e:	e0ad      	b.n	800207c <USBD_StdDevReq+0x330>
 8001f20:	f7ff ff09 	bl	8001d36 <USBD_CtlError>
 8001f24:	e0aa      	b.n	800207c <USBD_StdDevReq+0x330>
 8001f26:	2b00      	cmp	r3, #0
 8001f28:	d013      	beq.n	8001f52 <USBD_StdDevReq+0x206>
 8001f2a:	2301      	movs	r3, #1
 8001f2c:	6043      	str	r3, [r0, #4]
 8001f2e:	33fc      	adds	r3, #252	; 0xfc
 8001f30:	33ff      	adds	r3, #255	; 0xff
 8001f32:	2203      	movs	r2, #3
 8001f34:	54c2      	strb	r2, [r0, r3]
 8001f36:	2101      	movs	r1, #1
 8001f38:	f7ff fdb6 	bl	8001aa8 <USBD_SetClassConfig>
 8001f3c:	2802      	cmp	r0, #2
 8001f3e:	d003      	beq.n	8001f48 <USBD_StdDevReq+0x1fc>
 8001f40:	0028      	movs	r0, r5
 8001f42:	f000 f97d 	bl	8002240 <USBD_CtlSendStatus>
 8001f46:	e099      	b.n	800207c <USBD_StdDevReq+0x330>
 8001f48:	0021      	movs	r1, r4
 8001f4a:	0028      	movs	r0, r5
 8001f4c:	f7ff fef3 	bl	8001d36 <USBD_CtlError>
 8001f50:	e094      	b.n	800207c <USBD_StdDevReq+0x330>
 8001f52:	f000 f975 	bl	8002240 <USBD_CtlSendStatus>
 8001f56:	e091      	b.n	800207c <USBD_StdDevReq+0x330>
 8001f58:	2b00      	cmp	r3, #0
 8001f5a:	d011      	beq.n	8001f80 <USBD_StdDevReq+0x234>
 8001f5c:	6841      	ldr	r1, [r0, #4]
 8001f5e:	2901      	cmp	r1, #1
 8001f60:	d020      	beq.n	8001fa4 <USBD_StdDevReq+0x258>
 8001f62:	b2c9      	uxtb	r1, r1
 8001f64:	f7ff fdaf 	bl	8001ac6 <USBD_ClrClassConfig>
 8001f68:	4b41      	ldr	r3, [pc, #260]	; (8002070 <USBD_StdDevReq+0x324>)
 8001f6a:	7819      	ldrb	r1, [r3, #0]
 8001f6c:	6069      	str	r1, [r5, #4]
 8001f6e:	0028      	movs	r0, r5
 8001f70:	f7ff fd9a 	bl	8001aa8 <USBD_SetClassConfig>
 8001f74:	2802      	cmp	r0, #2
 8001f76:	d010      	beq.n	8001f9a <USBD_StdDevReq+0x24e>
 8001f78:	0028      	movs	r0, r5
 8001f7a:	f000 f961 	bl	8002240 <USBD_CtlSendStatus>
 8001f7e:	e07d      	b.n	800207c <USBD_StdDevReq+0x330>
 8001f80:	33fd      	adds	r3, #253	; 0xfd
 8001f82:	33ff      	adds	r3, #255	; 0xff
 8001f84:	2202      	movs	r2, #2
 8001f86:	54c2      	strb	r2, [r0, r3]
 8001f88:	2300      	movs	r3, #0
 8001f8a:	6043      	str	r3, [r0, #4]
 8001f8c:	2100      	movs	r1, #0
 8001f8e:	f7ff fd9a 	bl	8001ac6 <USBD_ClrClassConfig>
 8001f92:	0028      	movs	r0, r5
 8001f94:	f000 f954 	bl	8002240 <USBD_CtlSendStatus>
 8001f98:	e070      	b.n	800207c <USBD_StdDevReq+0x330>
 8001f9a:	0021      	movs	r1, r4
 8001f9c:	0028      	movs	r0, r5
 8001f9e:	f7ff feca 	bl	8001d36 <USBD_CtlError>
 8001fa2:	e06b      	b.n	800207c <USBD_StdDevReq+0x330>
 8001fa4:	f000 f94c 	bl	8002240 <USBD_CtlSendStatus>
 8001fa8:	e068      	b.n	800207c <USBD_StdDevReq+0x330>
 8001faa:	88cb      	ldrh	r3, [r1, #6]
 8001fac:	2b01      	cmp	r3, #1
 8001fae:	d109      	bne.n	8001fc4 <USBD_StdDevReq+0x278>
 8001fb0:	23fe      	movs	r3, #254	; 0xfe
 8001fb2:	005b      	lsls	r3, r3, #1
 8001fb4:	5cc3      	ldrb	r3, [r0, r3]
 8001fb6:	2b02      	cmp	r3, #2
 8001fb8:	d007      	beq.n	8001fca <USBD_StdDevReq+0x27e>
 8001fba:	2b03      	cmp	r3, #3
 8001fbc:	d00d      	beq.n	8001fda <USBD_StdDevReq+0x28e>
 8001fbe:	f7ff feba 	bl	8001d36 <USBD_CtlError>
 8001fc2:	e05b      	b.n	800207c <USBD_StdDevReq+0x330>
 8001fc4:	f7ff feb7 	bl	8001d36 <USBD_CtlError>
 8001fc8:	e058      	b.n	800207c <USBD_StdDevReq+0x330>
 8001fca:	2300      	movs	r3, #0
 8001fcc:	6083      	str	r3, [r0, #8]
 8001fce:	0001      	movs	r1, r0
 8001fd0:	3108      	adds	r1, #8
 8001fd2:	2201      	movs	r2, #1
 8001fd4:	f000 f906 	bl	80021e4 <USBD_CtlSendData>
 8001fd8:	e050      	b.n	800207c <USBD_StdDevReq+0x330>
 8001fda:	1d01      	adds	r1, r0, #4
 8001fdc:	2201      	movs	r2, #1
 8001fde:	f000 f901 	bl	80021e4 <USBD_CtlSendData>
 8001fe2:	e04b      	b.n	800207c <USBD_StdDevReq+0x330>
 8001fe4:	23fe      	movs	r3, #254	; 0xfe
 8001fe6:	005b      	lsls	r3, r3, #1
 8001fe8:	5cc3      	ldrb	r3, [r0, r3]
 8001fea:	3b02      	subs	r3, #2
 8001fec:	2b01      	cmp	r3, #1
 8001fee:	d80f      	bhi.n	8002010 <USBD_StdDevReq+0x2c4>
 8001ff0:	2301      	movs	r3, #1
 8001ff2:	60c3      	str	r3, [r0, #12]
 8001ff4:	2381      	movs	r3, #129	; 0x81
 8001ff6:	009b      	lsls	r3, r3, #2
 8001ff8:	58c3      	ldr	r3, [r0, r3]
 8001ffa:	2b00      	cmp	r3, #0
 8001ffc:	d001      	beq.n	8002002 <USBD_StdDevReq+0x2b6>
 8001ffe:	2303      	movs	r3, #3
 8002000:	60c3      	str	r3, [r0, #12]
 8002002:	0029      	movs	r1, r5
 8002004:	310c      	adds	r1, #12
 8002006:	2202      	movs	r2, #2
 8002008:	0028      	movs	r0, r5
 800200a:	f000 f8eb 	bl	80021e4 <USBD_CtlSendData>
 800200e:	e035      	b.n	800207c <USBD_StdDevReq+0x330>
 8002010:	f7ff fe91 	bl	8001d36 <USBD_CtlError>
 8002014:	e032      	b.n	800207c <USBD_StdDevReq+0x330>
 8002016:	884b      	ldrh	r3, [r1, #2]
 8002018:	2b01      	cmp	r3, #1
 800201a:	d12f      	bne.n	800207c <USBD_StdDevReq+0x330>
 800201c:	2381      	movs	r3, #129	; 0x81
 800201e:	009b      	lsls	r3, r3, #2
 8002020:	2201      	movs	r2, #1
 8002022:	50c2      	str	r2, [r0, r3]
 8002024:	3310      	adds	r3, #16
 8002026:	58c3      	ldr	r3, [r0, r3]
 8002028:	689b      	ldr	r3, [r3, #8]
 800202a:	4798      	blx	r3
 800202c:	0028      	movs	r0, r5
 800202e:	f000 f907 	bl	8002240 <USBD_CtlSendStatus>
 8002032:	e023      	b.n	800207c <USBD_StdDevReq+0x330>
 8002034:	23fe      	movs	r3, #254	; 0xfe
 8002036:	005b      	lsls	r3, r3, #1
 8002038:	5cc3      	ldrb	r3, [r0, r3]
 800203a:	3b02      	subs	r3, #2
 800203c:	2b01      	cmp	r3, #1
 800203e:	d80e      	bhi.n	800205e <USBD_StdDevReq+0x312>
 8002040:	884b      	ldrh	r3, [r1, #2]
 8002042:	2b01      	cmp	r3, #1
 8002044:	d11a      	bne.n	800207c <USBD_StdDevReq+0x330>
 8002046:	2381      	movs	r3, #129	; 0x81
 8002048:	009b      	lsls	r3, r3, #2
 800204a:	2200      	movs	r2, #0
 800204c:	50c2      	str	r2, [r0, r3]
 800204e:	3310      	adds	r3, #16
 8002050:	58c3      	ldr	r3, [r0, r3]
 8002052:	689b      	ldr	r3, [r3, #8]
 8002054:	4798      	blx	r3
 8002056:	0028      	movs	r0, r5
 8002058:	f000 f8f2 	bl	8002240 <USBD_CtlSendStatus>
 800205c:	e00e      	b.n	800207c <USBD_StdDevReq+0x330>
 800205e:	f7ff fe6a 	bl	8001d36 <USBD_CtlError>
 8002062:	e00b      	b.n	800207c <USBD_StdDevReq+0x330>
 8002064:	080031ac 	.word	0x080031ac
 8002068:	080031d4 	.word	0x080031d4
 800206c:	080031f4 	.word	0x080031f4
 8002070:	20000191 	.word	0x20000191
 8002074:	0021      	movs	r1, r4
 8002076:	0028      	movs	r0, r5
 8002078:	f7ff fe5d 	bl	8001d36 <USBD_CtlError>
 800207c:	2000      	movs	r0, #0
 800207e:	b003      	add	sp, #12
 8002080:	bd30      	pop	{r4, r5, pc}
 8002082:	46c0      	nop			; (mov r8, r8)

08002084 <USBD_StdItfReq>:
 8002084:	b570      	push	{r4, r5, r6, lr}
 8002086:	0004      	movs	r4, r0
 8002088:	000d      	movs	r5, r1
 800208a:	23fe      	movs	r3, #254	; 0xfe
 800208c:	005b      	lsls	r3, r3, #1
 800208e:	5cc3      	ldrb	r3, [r0, r3]
 8002090:	2b03      	cmp	r3, #3
 8002092:	d111      	bne.n	80020b8 <USBD_StdItfReq+0x34>
 8002094:	790b      	ldrb	r3, [r1, #4]
 8002096:	2b01      	cmp	r3, #1
 8002098:	d80b      	bhi.n	80020b2 <USBD_StdItfReq+0x2e>
 800209a:	2385      	movs	r3, #133	; 0x85
 800209c:	009b      	lsls	r3, r3, #2
 800209e:	58c3      	ldr	r3, [r0, r3]
 80020a0:	689b      	ldr	r3, [r3, #8]
 80020a2:	4798      	blx	r3
 80020a4:	88eb      	ldrh	r3, [r5, #6]
 80020a6:	2b00      	cmp	r3, #0
 80020a8:	d108      	bne.n	80020bc <USBD_StdItfReq+0x38>
 80020aa:	0020      	movs	r0, r4
 80020ac:	f000 f8c8 	bl	8002240 <USBD_CtlSendStatus>
 80020b0:	e004      	b.n	80020bc <USBD_StdItfReq+0x38>
 80020b2:	f7ff fe40 	bl	8001d36 <USBD_CtlError>
 80020b6:	e001      	b.n	80020bc <USBD_StdItfReq+0x38>
 80020b8:	f7ff fe3d 	bl	8001d36 <USBD_CtlError>
 80020bc:	2000      	movs	r0, #0
 80020be:	bd70      	pop	{r4, r5, r6, pc}

080020c0 <USBD_StdEPReq>:
 80020c0:	b570      	push	{r4, r5, r6, lr}
 80020c2:	0005      	movs	r5, r0
 80020c4:	000c      	movs	r4, r1
 80020c6:	8888      	ldrh	r0, [r1, #4]
 80020c8:	7909      	ldrb	r1, [r1, #4]
 80020ca:	7822      	ldrb	r2, [r4, #0]
 80020cc:	2360      	movs	r3, #96	; 0x60
 80020ce:	4013      	ands	r3, r2
 80020d0:	2b20      	cmp	r3, #32
 80020d2:	d008      	beq.n	80020e6 <USBD_StdEPReq+0x26>
 80020d4:	7863      	ldrb	r3, [r4, #1]
 80020d6:	2b01      	cmp	r3, #1
 80020d8:	d032      	beq.n	8002140 <USBD_StdEPReq+0x80>
 80020da:	2b03      	cmp	r3, #3
 80020dc:	d00b      	beq.n	80020f6 <USBD_StdEPReq+0x36>
 80020de:	2b00      	cmp	r3, #0
 80020e0:	d054      	beq.n	800218c <USBD_StdEPReq+0xcc>
 80020e2:	2000      	movs	r0, #0
 80020e4:	bd70      	pop	{r4, r5, r6, pc}
 80020e6:	33f5      	adds	r3, #245	; 0xf5
 80020e8:	33ff      	adds	r3, #255	; 0xff
 80020ea:	58eb      	ldr	r3, [r5, r3]
 80020ec:	689b      	ldr	r3, [r3, #8]
 80020ee:	0021      	movs	r1, r4
 80020f0:	0028      	movs	r0, r5
 80020f2:	4798      	blx	r3
 80020f4:	e7f5      	b.n	80020e2 <USBD_StdEPReq+0x22>
 80020f6:	23fe      	movs	r3, #254	; 0xfe
 80020f8:	005b      	lsls	r3, r3, #1
 80020fa:	5ceb      	ldrb	r3, [r5, r3]
 80020fc:	2b02      	cmp	r3, #2
 80020fe:	d006      	beq.n	800210e <USBD_StdEPReq+0x4e>
 8002100:	2b03      	cmp	r3, #3
 8002102:	d00a      	beq.n	800211a <USBD_StdEPReq+0x5a>
 8002104:	0021      	movs	r1, r4
 8002106:	0028      	movs	r0, r5
 8002108:	f7ff fe15 	bl	8001d36 <USBD_CtlError>
 800210c:	e7e9      	b.n	80020e2 <USBD_StdEPReq+0x22>
 800210e:	064b      	lsls	r3, r1, #25
 8002110:	d0e7      	beq.n	80020e2 <USBD_StdEPReq+0x22>
 8002112:	0028      	movs	r0, r5
 8002114:	f000 ff28 	bl	8002f68 <USBD_LL_StallEP>
 8002118:	e7e3      	b.n	80020e2 <USBD_StdEPReq+0x22>
 800211a:	8863      	ldrh	r3, [r4, #2]
 800211c:	2b00      	cmp	r3, #0
 800211e:	d104      	bne.n	800212a <USBD_StdEPReq+0x6a>
 8002120:	064b      	lsls	r3, r1, #25
 8002122:	d002      	beq.n	800212a <USBD_StdEPReq+0x6a>
 8002124:	0028      	movs	r0, r5
 8002126:	f000 ff1f 	bl	8002f68 <USBD_LL_StallEP>
 800212a:	2385      	movs	r3, #133	; 0x85
 800212c:	009b      	lsls	r3, r3, #2
 800212e:	58eb      	ldr	r3, [r5, r3]
 8002130:	689b      	ldr	r3, [r3, #8]
 8002132:	0021      	movs	r1, r4
 8002134:	0028      	movs	r0, r5
 8002136:	4798      	blx	r3
 8002138:	0028      	movs	r0, r5
 800213a:	f000 f881 	bl	8002240 <USBD_CtlSendStatus>
 800213e:	e7d0      	b.n	80020e2 <USBD_StdEPReq+0x22>
 8002140:	23fe      	movs	r3, #254	; 0xfe
 8002142:	005b      	lsls	r3, r3, #1
 8002144:	5ceb      	ldrb	r3, [r5, r3]
 8002146:	2b02      	cmp	r3, #2
 8002148:	d006      	beq.n	8002158 <USBD_StdEPReq+0x98>
 800214a:	2b03      	cmp	r3, #3
 800214c:	d00a      	beq.n	8002164 <USBD_StdEPReq+0xa4>
 800214e:	0021      	movs	r1, r4
 8002150:	0028      	movs	r0, r5
 8002152:	f7ff fdf0 	bl	8001d36 <USBD_CtlError>
 8002156:	e7c4      	b.n	80020e2 <USBD_StdEPReq+0x22>
 8002158:	064b      	lsls	r3, r1, #25
 800215a:	d0c2      	beq.n	80020e2 <USBD_StdEPReq+0x22>
 800215c:	0028      	movs	r0, r5
 800215e:	f000 ff03 	bl	8002f68 <USBD_LL_StallEP>
 8002162:	e7be      	b.n	80020e2 <USBD_StdEPReq+0x22>
 8002164:	8863      	ldrh	r3, [r4, #2]
 8002166:	2b00      	cmp	r3, #0
 8002168:	d1bb      	bne.n	80020e2 <USBD_StdEPReq+0x22>
 800216a:	064b      	lsls	r3, r1, #25
 800216c:	d103      	bne.n	8002176 <USBD_StdEPReq+0xb6>
 800216e:	0028      	movs	r0, r5
 8002170:	f000 f866 	bl	8002240 <USBD_CtlSendStatus>
 8002174:	e7b5      	b.n	80020e2 <USBD_StdEPReq+0x22>
 8002176:	0028      	movs	r0, r5
 8002178:	f000 feff 	bl	8002f7a <USBD_LL_ClearStallEP>
 800217c:	2385      	movs	r3, #133	; 0x85
 800217e:	009b      	lsls	r3, r3, #2
 8002180:	58eb      	ldr	r3, [r5, r3]
 8002182:	689b      	ldr	r3, [r3, #8]
 8002184:	0021      	movs	r1, r4
 8002186:	0028      	movs	r0, r5
 8002188:	4798      	blx	r3
 800218a:	e7f0      	b.n	800216e <USBD_StdEPReq+0xae>
 800218c:	23fe      	movs	r3, #254	; 0xfe
 800218e:	005b      	lsls	r3, r3, #1
 8002190:	5ceb      	ldrb	r3, [r5, r3]
 8002192:	2b02      	cmp	r3, #2
 8002194:	d006      	beq.n	80021a4 <USBD_StdEPReq+0xe4>
 8002196:	2b03      	cmp	r3, #3
 8002198:	d00a      	beq.n	80021b0 <USBD_StdEPReq+0xf0>
 800219a:	0021      	movs	r1, r4
 800219c:	0028      	movs	r0, r5
 800219e:	f7ff fdca 	bl	8001d36 <USBD_CtlError>
 80021a2:	e79e      	b.n	80020e2 <USBD_StdEPReq+0x22>
 80021a4:	064b      	lsls	r3, r1, #25
 80021a6:	d09c      	beq.n	80020e2 <USBD_StdEPReq+0x22>
 80021a8:	0028      	movs	r0, r5
 80021aa:	f000 fedd 	bl	8002f68 <USBD_LL_StallEP>
 80021ae:	e798      	b.n	80020e2 <USBD_StdEPReq+0x22>
 80021b0:	0603      	lsls	r3, r0, #24
 80021b2:	d411      	bmi.n	80021d8 <USBD_StdEPReq+0x118>
 80021b4:	247f      	movs	r4, #127	; 0x7f
 80021b6:	400c      	ands	r4, r1
 80021b8:	0124      	lsls	r4, r4, #4
 80021ba:	3405      	adds	r4, #5
 80021bc:	34ff      	adds	r4, #255	; 0xff
 80021be:	192c      	adds	r4, r5, r4
 80021c0:	0028      	movs	r0, r5
 80021c2:	f000 fee3 	bl	8002f8c <USBD_LL_IsStallEP>
 80021c6:	1e43      	subs	r3, r0, #1
 80021c8:	4198      	sbcs	r0, r3
 80021ca:	6020      	str	r0, [r4, #0]
 80021cc:	2202      	movs	r2, #2
 80021ce:	0021      	movs	r1, r4
 80021d0:	0028      	movs	r0, r5
 80021d2:	f000 f807 	bl	80021e4 <USBD_CtlSendData>
 80021d6:	e784      	b.n	80020e2 <USBD_StdEPReq+0x22>
 80021d8:	247f      	movs	r4, #127	; 0x7f
 80021da:	400c      	ands	r4, r1
 80021dc:	0124      	lsls	r4, r4, #4
 80021de:	3414      	adds	r4, #20
 80021e0:	192c      	adds	r4, r5, r4
 80021e2:	e7ed      	b.n	80021c0 <USBD_StdEPReq+0x100>

080021e4 <USBD_CtlSendData>:
 80021e4:	b510      	push	{r4, lr}
 80021e6:	0013      	movs	r3, r2
 80021e8:	22fa      	movs	r2, #250	; 0xfa
 80021ea:	0052      	lsls	r2, r2, #1
 80021ec:	2402      	movs	r4, #2
 80021ee:	5084      	str	r4, [r0, r2]
 80021f0:	6183      	str	r3, [r0, #24]
 80021f2:	61c3      	str	r3, [r0, #28]
 80021f4:	000a      	movs	r2, r1
 80021f6:	2100      	movs	r1, #0
 80021f8:	f000 feea 	bl	8002fd0 <USBD_LL_Transmit>
 80021fc:	2000      	movs	r0, #0
 80021fe:	bd10      	pop	{r4, pc}

08002200 <USBD_CtlContinueSendData>:
 8002200:	b510      	push	{r4, lr}
 8002202:	0013      	movs	r3, r2
 8002204:	000a      	movs	r2, r1
 8002206:	2100      	movs	r1, #0
 8002208:	f000 fee2 	bl	8002fd0 <USBD_LL_Transmit>
 800220c:	2000      	movs	r0, #0
 800220e:	bd10      	pop	{r4, pc}

08002210 <USBD_CtlPrepareRx>:
 8002210:	b510      	push	{r4, lr}
 8002212:	0013      	movs	r3, r2
 8002214:	22fa      	movs	r2, #250	; 0xfa
 8002216:	0052      	lsls	r2, r2, #1
 8002218:	2403      	movs	r4, #3
 800221a:	5084      	str	r4, [r0, r2]
 800221c:	3aec      	subs	r2, #236	; 0xec
 800221e:	5083      	str	r3, [r0, r2]
 8002220:	3204      	adds	r2, #4
 8002222:	5083      	str	r3, [r0, r2]
 8002224:	000a      	movs	r2, r1
 8002226:	2100      	movs	r1, #0
 8002228:	f000 fedb 	bl	8002fe2 <USBD_LL_PrepareReceive>
 800222c:	2000      	movs	r0, #0
 800222e:	bd10      	pop	{r4, pc}

08002230 <USBD_CtlContinueRx>:
 8002230:	b510      	push	{r4, lr}
 8002232:	0013      	movs	r3, r2
 8002234:	000a      	movs	r2, r1
 8002236:	2100      	movs	r1, #0
 8002238:	f000 fed3 	bl	8002fe2 <USBD_LL_PrepareReceive>
 800223c:	2000      	movs	r0, #0
 800223e:	bd10      	pop	{r4, pc}

08002240 <USBD_CtlSendStatus>:
 8002240:	b510      	push	{r4, lr}
 8002242:	23fa      	movs	r3, #250	; 0xfa
 8002244:	005b      	lsls	r3, r3, #1
 8002246:	2204      	movs	r2, #4
 8002248:	50c2      	str	r2, [r0, r3]
 800224a:	2300      	movs	r3, #0
 800224c:	2200      	movs	r2, #0
 800224e:	2100      	movs	r1, #0
 8002250:	f000 febe 	bl	8002fd0 <USBD_LL_Transmit>
 8002254:	2000      	movs	r0, #0
 8002256:	bd10      	pop	{r4, pc}

08002258 <USBD_CtlReceiveStatus>:
 8002258:	b510      	push	{r4, lr}
 800225a:	23fa      	movs	r3, #250	; 0xfa
 800225c:	005b      	lsls	r3, r3, #1
 800225e:	2205      	movs	r2, #5
 8002260:	50c2      	str	r2, [r0, r3]
 8002262:	2300      	movs	r3, #0
 8002264:	2200      	movs	r2, #0
 8002266:	2100      	movs	r1, #0
 8002268:	f000 febb 	bl	8002fe2 <USBD_LL_PrepareReceive>
 800226c:	2000      	movs	r0, #0
 800226e:	bd10      	pop	{r4, pc}

08002270 <MX_GPIO_Init>:
 8002270:	b570      	push	{r4, r5, r6, lr}
 8002272:	b088      	sub	sp, #32
 8002274:	4b1d      	ldr	r3, [pc, #116]	; (80022ec <MX_GPIO_Init+0x7c>)
 8002276:	6959      	ldr	r1, [r3, #20]
 8002278:	2080      	movs	r0, #128	; 0x80
 800227a:	03c0      	lsls	r0, r0, #15
 800227c:	4301      	orrs	r1, r0
 800227e:	6159      	str	r1, [r3, #20]
 8002280:	695a      	ldr	r2, [r3, #20]
 8002282:	4002      	ands	r2, r0
 8002284:	9202      	str	r2, [sp, #8]
 8002286:	9a02      	ldr	r2, [sp, #8]
 8002288:	695a      	ldr	r2, [r3, #20]
 800228a:	2180      	movs	r1, #128	; 0x80
 800228c:	0289      	lsls	r1, r1, #10
 800228e:	430a      	orrs	r2, r1
 8002290:	615a      	str	r2, [r3, #20]
 8002292:	695b      	ldr	r3, [r3, #20]
 8002294:	400b      	ands	r3, r1
 8002296:	9301      	str	r3, [sp, #4]
 8002298:	9b01      	ldr	r3, [sp, #4]
 800229a:	2310      	movs	r3, #16
 800229c:	9303      	str	r3, [sp, #12]
 800229e:	2500      	movs	r5, #0
 80022a0:	9506      	str	r5, [sp, #24]
 80022a2:	9504      	str	r5, [sp, #16]
 80022a4:	2601      	movs	r6, #1
 80022a6:	9605      	str	r6, [sp, #20]
 80022a8:	2490      	movs	r4, #144	; 0x90
 80022aa:	05e4      	lsls	r4, r4, #23
 80022ac:	a903      	add	r1, sp, #12
 80022ae:	0020      	movs	r0, r4
 80022b0:	f7fe f838 	bl	8000324 <HAL_GPIO_Init>
 80022b4:	2340      	movs	r3, #64	; 0x40
 80022b6:	9303      	str	r3, [sp, #12]
 80022b8:	9506      	str	r5, [sp, #24]
 80022ba:	3b3e      	subs	r3, #62	; 0x3e
 80022bc:	9304      	str	r3, [sp, #16]
 80022be:	9607      	str	r6, [sp, #28]
 80022c0:	a903      	add	r1, sp, #12
 80022c2:	0020      	movs	r0, r4
 80022c4:	f7fe f82e 	bl	8000324 <HAL_GPIO_Init>
 80022c8:	2180      	movs	r1, #128	; 0x80
 80022ca:	2201      	movs	r2, #1
 80022cc:	0189      	lsls	r1, r1, #6
 80022ce:	0020      	movs	r0, r4
 80022d0:	f7fe f90e 	bl	80004f0 <HAL_GPIO_WritePin>
 80022d4:	2320      	movs	r3, #32
 80022d6:	9303      	str	r3, [sp, #12]
 80022d8:	9506      	str	r5, [sp, #24]
 80022da:	3b1d      	subs	r3, #29
 80022dc:	9304      	str	r3, [sp, #16]
 80022de:	a903      	add	r1, sp, #12
 80022e0:	0020      	movs	r0, r4
 80022e2:	f7fe f81f 	bl	8000324 <HAL_GPIO_Init>
 80022e6:	b008      	add	sp, #32
 80022e8:	bd70      	pop	{r4, r5, r6, pc}
 80022ea:	46c0      	nop			; (mov r8, r8)
 80022ec:	40021000 	.word	0x40021000

080022f0 <IRStop>:
 80022f0:	4b0a      	ldr	r3, [pc, #40]	; (800231c <IRStop+0x2c>)
 80022f2:	699a      	ldr	r2, [r3, #24]
 80022f4:	490a      	ldr	r1, [pc, #40]	; (8002320 <IRStop+0x30>)
 80022f6:	400a      	ands	r2, r1
 80022f8:	619a      	str	r2, [r3, #24]
 80022fa:	681a      	ldr	r2, [r3, #0]
 80022fc:	2101      	movs	r1, #1
 80022fe:	438a      	bics	r2, r1
 8002300:	601a      	str	r2, [r3, #0]
 8002302:	4b08      	ldr	r3, [pc, #32]	; (8002324 <IRStop+0x34>)
 8002304:	2200      	movs	r2, #0
 8002306:	701a      	strb	r2, [r3, #0]
 8002308:	4b07      	ldr	r3, [pc, #28]	; (8002328 <IRStop+0x38>)
 800230a:	781a      	ldrb	r2, [r3, #0]
 800230c:	2304      	movs	r3, #4
 800230e:	4293      	cmp	r3, r2
 8002310:	419b      	sbcs	r3, r3
 8002312:	425b      	negs	r3, r3
 8002314:	021b      	lsls	r3, r3, #8
 8002316:	4a05      	ldr	r2, [pc, #20]	; (800232c <IRStop+0x3c>)
 8002318:	6353      	str	r3, [r2, #52]	; 0x34
 800231a:	4770      	bx	lr
 800231c:	40014400 	.word	0x40014400
 8002320:	0000ffef 	.word	0x0000ffef
 8002324:	2000029c 	.word	0x2000029c
 8002328:	2000029d 	.word	0x2000029d
 800232c:	40000400 	.word	0x40000400

08002330 <TIM16_IRQHandler>:
 8002330:	b510      	push	{r4, lr}
 8002332:	4b6a      	ldr	r3, [pc, #424]	; (80024dc <TIM16_IRQHandler+0x1ac>)
 8002334:	781b      	ldrb	r3, [r3, #0]
 8002336:	2b00      	cmp	r3, #0
 8002338:	d100      	bne.n	800233c <TIM16_IRQHandler+0xc>
 800233a:	e0c9      	b.n	80024d0 <TIM16_IRQHandler+0x1a0>
 800233c:	4b68      	ldr	r3, [pc, #416]	; (80024e0 <TIM16_IRQHandler+0x1b0>)
 800233e:	681b      	ldr	r3, [r3, #0]
 8002340:	2b00      	cmp	r3, #0
 8002342:	d000      	beq.n	8002346 <TIM16_IRQHandler+0x16>
 8002344:	e0c0      	b.n	80024c8 <TIM16_IRQHandler+0x198>
 8002346:	4b67      	ldr	r3, [pc, #412]	; (80024e4 <TIM16_IRQHandler+0x1b4>)
 8002348:	681b      	ldr	r3, [r3, #0]
 800234a:	2b00      	cmp	r3, #0
 800234c:	d149      	bne.n	80023e2 <TIM16_IRQHandler+0xb2>
 800234e:	4a66      	ldr	r2, [pc, #408]	; (80024e8 <TIM16_IRQHandler+0x1b8>)
 8002350:	6993      	ldr	r3, [r2, #24]
 8002352:	2110      	movs	r1, #16
 8002354:	430b      	orrs	r3, r1
 8002356:	6193      	str	r3, [r2, #24]
 8002358:	4b64      	ldr	r3, [pc, #400]	; (80024ec <TIM16_IRQHandler+0x1bc>)
 800235a:	681a      	ldr	r2, [r3, #0]
 800235c:	4b60      	ldr	r3, [pc, #384]	; (80024e0 <TIM16_IRQHandler+0x1b0>)
 800235e:	601a      	str	r2, [r3, #0]
 8002360:	4b63      	ldr	r3, [pc, #396]	; (80024f0 <TIM16_IRQHandler+0x1c0>)
 8002362:	781b      	ldrb	r3, [r3, #0]
 8002364:	2b00      	cmp	r3, #0
 8002366:	d01f      	beq.n	80023a8 <TIM16_IRQHandler+0x78>
 8002368:	4b62      	ldr	r3, [pc, #392]	; (80024f4 <TIM16_IRQHandler+0x1c4>)
 800236a:	681b      	ldr	r3, [r3, #0]
 800236c:	07db      	lsls	r3, r3, #31
 800236e:	d40a      	bmi.n	8002386 <TIM16_IRQHandler+0x56>
 8002370:	4b61      	ldr	r3, [pc, #388]	; (80024f8 <TIM16_IRQHandler+0x1c8>)
 8002372:	681b      	ldr	r3, [r3, #0]
 8002374:	4961      	ldr	r1, [pc, #388]	; (80024fc <TIM16_IRQHandler+0x1cc>)
 8002376:	680a      	ldr	r2, [r1, #0]
 8002378:	1c50      	adds	r0, r2, #1
 800237a:	6008      	str	r0, [r1, #0]
 800237c:	189b      	adds	r3, r3, r2
 800237e:	781b      	ldrb	r3, [r3, #0]
 8002380:	b2db      	uxtb	r3, r3
 8002382:	4a5f      	ldr	r2, [pc, #380]	; (8002500 <TIM16_IRQHandler+0x1d0>)
 8002384:	7013      	strb	r3, [r2, #0]
 8002386:	4b5e      	ldr	r3, [pc, #376]	; (8002500 <TIM16_IRQHandler+0x1d0>)
 8002388:	781a      	ldrb	r2, [r3, #0]
 800238a:	210f      	movs	r1, #15
 800238c:	400a      	ands	r2, r1
 800238e:	495d      	ldr	r1, [pc, #372]	; (8002504 <TIM16_IRQHandler+0x1d4>)
 8002390:	700a      	strb	r2, [r1, #0]
 8002392:	781a      	ldrb	r2, [r3, #0]
 8002394:	0912      	lsrs	r2, r2, #4
 8002396:	701a      	strb	r2, [r3, #0]
 8002398:	4a56      	ldr	r2, [pc, #344]	; (80024f4 <TIM16_IRQHandler+0x1c4>)
 800239a:	6813      	ldr	r3, [r2, #0]
 800239c:	3301      	adds	r3, #1
 800239e:	6013      	str	r3, [r2, #0]
 80023a0:	4b50      	ldr	r3, [pc, #320]	; (80024e4 <TIM16_IRQHandler+0x1b4>)
 80023a2:	2201      	movs	r2, #1
 80023a4:	601a      	str	r2, [r3, #0]
 80023a6:	e093      	b.n	80024d0 <TIM16_IRQHandler+0x1a0>
 80023a8:	4b52      	ldr	r3, [pc, #328]	; (80024f4 <TIM16_IRQHandler+0x1c4>)
 80023aa:	681b      	ldr	r3, [r3, #0]
 80023ac:	079b      	lsls	r3, r3, #30
 80023ae:	d10a      	bne.n	80023c6 <TIM16_IRQHandler+0x96>
 80023b0:	4b51      	ldr	r3, [pc, #324]	; (80024f8 <TIM16_IRQHandler+0x1c8>)
 80023b2:	681b      	ldr	r3, [r3, #0]
 80023b4:	4951      	ldr	r1, [pc, #324]	; (80024fc <TIM16_IRQHandler+0x1cc>)
 80023b6:	680a      	ldr	r2, [r1, #0]
 80023b8:	1c50      	adds	r0, r2, #1
 80023ba:	6008      	str	r0, [r1, #0]
 80023bc:	189b      	adds	r3, r3, r2
 80023be:	781b      	ldrb	r3, [r3, #0]
 80023c0:	b2db      	uxtb	r3, r3
 80023c2:	4a4f      	ldr	r2, [pc, #316]	; (8002500 <TIM16_IRQHandler+0x1d0>)
 80023c4:	7013      	strb	r3, [r2, #0]
 80023c6:	4b4e      	ldr	r3, [pc, #312]	; (8002500 <TIM16_IRQHandler+0x1d0>)
 80023c8:	781a      	ldrb	r2, [r3, #0]
 80023ca:	2103      	movs	r1, #3
 80023cc:	400a      	ands	r2, r1
 80023ce:	494d      	ldr	r1, [pc, #308]	; (8002504 <TIM16_IRQHandler+0x1d4>)
 80023d0:	700a      	strb	r2, [r1, #0]
 80023d2:	781a      	ldrb	r2, [r3, #0]
 80023d4:	0892      	lsrs	r2, r2, #2
 80023d6:	701a      	strb	r2, [r3, #0]
 80023d8:	4a46      	ldr	r2, [pc, #280]	; (80024f4 <TIM16_IRQHandler+0x1c4>)
 80023da:	6813      	ldr	r3, [r2, #0]
 80023dc:	3301      	adds	r3, #1
 80023de:	6013      	str	r3, [r2, #0]
 80023e0:	e7de      	b.n	80023a0 <TIM16_IRQHandler+0x70>
 80023e2:	4a41      	ldr	r2, [pc, #260]	; (80024e8 <TIM16_IRQHandler+0x1b8>)
 80023e4:	6993      	ldr	r3, [r2, #24]
 80023e6:	4948      	ldr	r1, [pc, #288]	; (8002508 <TIM16_IRQHandler+0x1d8>)
 80023e8:	400b      	ands	r3, r1
 80023ea:	6193      	str	r3, [r2, #24]
 80023ec:	4b3d      	ldr	r3, [pc, #244]	; (80024e4 <TIM16_IRQHandler+0x1b4>)
 80023ee:	2200      	movs	r2, #0
 80023f0:	601a      	str	r2, [r3, #0]
 80023f2:	4b3f      	ldr	r3, [pc, #252]	; (80024f0 <TIM16_IRQHandler+0x1c0>)
 80023f4:	781b      	ldrb	r3, [r3, #0]
 80023f6:	2b00      	cmp	r3, #0
 80023f8:	d04f      	beq.n	800249a <TIM16_IRQHandler+0x16a>
 80023fa:	4b42      	ldr	r3, [pc, #264]	; (8002504 <TIM16_IRQHandler+0x1d4>)
 80023fc:	781b      	ldrb	r3, [r3, #0]
 80023fe:	009b      	lsls	r3, r3, #2
 8002400:	4a42      	ldr	r2, [pc, #264]	; (800250c <TIM16_IRQHandler+0x1dc>)
 8002402:	589a      	ldr	r2, [r3, r2]
 8002404:	4b36      	ldr	r3, [pc, #216]	; (80024e0 <TIM16_IRQHandler+0x1b0>)
 8002406:	601a      	str	r2, [r3, #0]
 8002408:	4b39      	ldr	r3, [pc, #228]	; (80024f0 <TIM16_IRQHandler+0x1c0>)
 800240a:	781b      	ldrb	r3, [r3, #0]
 800240c:	1e5a      	subs	r2, r3, #1
 800240e:	4193      	sbcs	r3, r2
 8002410:	425b      	negs	r3, r3
 8002412:	4a3f      	ldr	r2, [pc, #252]	; (8002510 <TIM16_IRQHandler+0x1e0>)
 8002414:	4013      	ands	r3, r2
 8002416:	22fa      	movs	r2, #250	; 0xfa
 8002418:	0092      	lsls	r2, r2, #2
 800241a:	4694      	mov	ip, r2
 800241c:	4463      	add	r3, ip
 800241e:	4a3d      	ldr	r2, [pc, #244]	; (8002514 <TIM16_IRQHandler+0x1e4>)
 8002420:	6812      	ldr	r2, [r2, #0]
 8002422:	429a      	cmp	r2, r3
 8002424:	d309      	bcc.n	800243a <TIM16_IRQHandler+0x10a>
 8002426:	4a2e      	ldr	r2, [pc, #184]	; (80024e0 <TIM16_IRQHandler+0x1b0>)
 8002428:	6813      	ldr	r3, [r2, #0]
 800242a:	3301      	adds	r3, #1
 800242c:	6013      	str	r3, [r2, #0]
 800242e:	4a39      	ldr	r2, [pc, #228]	; (8002514 <TIM16_IRQHandler+0x1e4>)
 8002430:	6813      	ldr	r3, [r2, #0]
 8002432:	4939      	ldr	r1, [pc, #228]	; (8002518 <TIM16_IRQHandler+0x1e8>)
 8002434:	468c      	mov	ip, r1
 8002436:	4463      	add	r3, ip
 8002438:	6013      	str	r3, [r2, #0]
 800243a:	4b2d      	ldr	r3, [pc, #180]	; (80024f0 <TIM16_IRQHandler+0x1c0>)
 800243c:	781b      	ldrb	r3, [r3, #0]
 800243e:	2b00      	cmp	r3, #0
 8002440:	d031      	beq.n	80024a6 <TIM16_IRQHandler+0x176>
 8002442:	4b30      	ldr	r3, [pc, #192]	; (8002504 <TIM16_IRQHandler+0x1d4>)
 8002444:	781b      	ldrb	r3, [r3, #0]
 8002446:	009b      	lsls	r3, r3, #2
 8002448:	4a34      	ldr	r2, [pc, #208]	; (800251c <TIM16_IRQHandler+0x1ec>)
 800244a:	5899      	ldr	r1, [r3, r2]
 800244c:	4a31      	ldr	r2, [pc, #196]	; (8002514 <TIM16_IRQHandler+0x1e4>)
 800244e:	6813      	ldr	r3, [r2, #0]
 8002450:	185b      	adds	r3, r3, r1
 8002452:	6013      	str	r3, [r2, #0]
 8002454:	4b29      	ldr	r3, [pc, #164]	; (80024fc <TIM16_IRQHandler+0x1cc>)
 8002456:	681a      	ldr	r2, [r3, #0]
 8002458:	4b31      	ldr	r3, [pc, #196]	; (8002520 <TIM16_IRQHandler+0x1f0>)
 800245a:	681b      	ldr	r3, [r3, #0]
 800245c:	429a      	cmp	r2, r3
 800245e:	d937      	bls.n	80024d0 <TIM16_IRQHandler+0x1a0>
 8002460:	4b30      	ldr	r3, [pc, #192]	; (8002524 <TIM16_IRQHandler+0x1f4>)
 8002462:	681b      	ldr	r3, [r3, #0]
 8002464:	2b00      	cmp	r3, #0
 8002466:	d024      	beq.n	80024b2 <TIM16_IRQHandler+0x182>
 8002468:	4a2e      	ldr	r2, [pc, #184]	; (8002524 <TIM16_IRQHandler+0x1f4>)
 800246a:	6813      	ldr	r3, [r2, #0]
 800246c:	3b01      	subs	r3, #1
 800246e:	6013      	str	r3, [r2, #0]
 8002470:	2300      	movs	r3, #0
 8002472:	4a22      	ldr	r2, [pc, #136]	; (80024fc <TIM16_IRQHandler+0x1cc>)
 8002474:	6013      	str	r3, [r2, #0]
 8002476:	4a1f      	ldr	r2, [pc, #124]	; (80024f4 <TIM16_IRQHandler+0x1c4>)
 8002478:	6013      	str	r3, [r2, #0]
 800247a:	4a26      	ldr	r2, [pc, #152]	; (8002514 <TIM16_IRQHandler+0x1e4>)
 800247c:	6013      	str	r3, [r2, #0]
 800247e:	4b1c      	ldr	r3, [pc, #112]	; (80024f0 <TIM16_IRQHandler+0x1c0>)
 8002480:	781b      	ldrb	r3, [r3, #0]
 8002482:	1e5a      	subs	r2, r3, #1
 8002484:	4193      	sbcs	r3, r2
 8002486:	425a      	negs	r2, r3
 8002488:	234b      	movs	r3, #75	; 0x4b
 800248a:	4013      	ands	r3, r2
 800248c:	3332      	adds	r3, #50	; 0x32
 800248e:	4a26      	ldr	r2, [pc, #152]	; (8002528 <TIM16_IRQHandler+0x1f8>)
 8002490:	6812      	ldr	r2, [r2, #0]
 8002492:	4353      	muls	r3, r2
 8002494:	4a12      	ldr	r2, [pc, #72]	; (80024e0 <TIM16_IRQHandler+0x1b0>)
 8002496:	6013      	str	r3, [r2, #0]
 8002498:	e01a      	b.n	80024d0 <TIM16_IRQHandler+0x1a0>
 800249a:	4b1a      	ldr	r3, [pc, #104]	; (8002504 <TIM16_IRQHandler+0x1d4>)
 800249c:	781b      	ldrb	r3, [r3, #0]
 800249e:	009b      	lsls	r3, r3, #2
 80024a0:	4a22      	ldr	r2, [pc, #136]	; (800252c <TIM16_IRQHandler+0x1fc>)
 80024a2:	589a      	ldr	r2, [r3, r2]
 80024a4:	e7ae      	b.n	8002404 <TIM16_IRQHandler+0xd4>
 80024a6:	4b17      	ldr	r3, [pc, #92]	; (8002504 <TIM16_IRQHandler+0x1d4>)
 80024a8:	781b      	ldrb	r3, [r3, #0]
 80024aa:	009b      	lsls	r3, r3, #2
 80024ac:	4a20      	ldr	r2, [pc, #128]	; (8002530 <TIM16_IRQHandler+0x200>)
 80024ae:	5899      	ldr	r1, [r3, r2]
 80024b0:	e7cc      	b.n	800244c <TIM16_IRQHandler+0x11c>
 80024b2:	f7ff ff1d 	bl	80022f0 <IRStop>
 80024b6:	4b1f      	ldr	r3, [pc, #124]	; (8002534 <TIM16_IRQHandler+0x204>)
 80024b8:	681b      	ldr	r3, [r3, #0]
 80024ba:	2b00      	cmp	r3, #0
 80024bc:	d108      	bne.n	80024d0 <TIM16_IRQHandler+0x1a0>
 80024be:	2101      	movs	r1, #1
 80024c0:	481d      	ldr	r0, [pc, #116]	; (8002538 <TIM16_IRQHandler+0x208>)
 80024c2:	f000 fc4b 	bl	8002d5c <CDC_Transmit_FS>
 80024c6:	e003      	b.n	80024d0 <TIM16_IRQHandler+0x1a0>
 80024c8:	4a05      	ldr	r2, [pc, #20]	; (80024e0 <TIM16_IRQHandler+0x1b0>)
 80024ca:	6813      	ldr	r3, [r2, #0]
 80024cc:	3b01      	subs	r3, #1
 80024ce:	6013      	str	r3, [r2, #0]
 80024d0:	4a05      	ldr	r2, [pc, #20]	; (80024e8 <TIM16_IRQHandler+0x1b8>)
 80024d2:	6913      	ldr	r3, [r2, #16]
 80024d4:	4919      	ldr	r1, [pc, #100]	; (800253c <TIM16_IRQHandler+0x20c>)
 80024d6:	400b      	ands	r3, r1
 80024d8:	6113      	str	r3, [r2, #16]
 80024da:	bd10      	pop	{r4, pc}
 80024dc:	2000029c 	.word	0x2000029c
 80024e0:	200004dc 	.word	0x200004dc
 80024e4:	200008f8 	.word	0x200008f8
 80024e8:	40014400 	.word	0x40014400
 80024ec:	200004d8 	.word	0x200004d8
 80024f0:	200004d0 	.word	0x200004d0
 80024f4:	200004e8 	.word	0x200004e8
 80024f8:	200004f0 	.word	0x200004f0
 80024fc:	200004e0 	.word	0x200004e0
 8002500:	200004e4 	.word	0x200004e4
 8002504:	200004d1 	.word	0x200004d1
 8002508:	0000ffef 	.word	0x0000ffef
 800250c:	08003264 	.word	0x08003264
 8002510:	fffffda8 	.word	0xfffffda8
 8002514:	200004ec 	.word	0x200004ec
 8002518:	fffffc18 	.word	0xfffffc18
 800251c:	08003224 	.word	0x08003224
 8002520:	200008f4 	.word	0x200008f4
 8002524:	200004d4 	.word	0x200004d4
 8002528:	200002a4 	.word	0x200002a4
 800252c:	080032b4 	.word	0x080032b4
 8002530:	080032a4 	.word	0x080032a4
 8002534:	200002a8 	.word	0x200002a8
 8002538:	0800320c 	.word	0x0800320c
 800253c:	0000fffe 	.word	0x0000fffe

08002540 <TIM14_IRQHandler>:
 8002540:	4b04      	ldr	r3, [pc, #16]	; (8002554 <TIM14_IRQHandler+0x14>)
 8002542:	2201      	movs	r2, #1
 8002544:	601a      	str	r2, [r3, #0]
 8002546:	4a04      	ldr	r2, [pc, #16]	; (8002558 <TIM14_IRQHandler+0x18>)
 8002548:	6913      	ldr	r3, [r2, #16]
 800254a:	4904      	ldr	r1, [pc, #16]	; (800255c <TIM14_IRQHandler+0x1c>)
 800254c:	400b      	ands	r3, r1
 800254e:	6113      	str	r3, [r2, #16]
 8002550:	4770      	bx	lr
 8002552:	46c0      	nop			; (mov r8, r8)
 8002554:	200002a0 	.word	0x200002a0
 8002558:	40002000 	.word	0x40002000
 800255c:	0000fffe 	.word	0x0000fffe

08002560 <IRTX>:
 8002560:	b510      	push	{r4, lr}
 8002562:	4c1c      	ldr	r4, [pc, #112]	; (80025d4 <IRTX+0x74>)
 8002564:	6020      	str	r0, [r4, #0]
 8002566:	2000      	movs	r0, #0
 8002568:	4c1b      	ldr	r4, [pc, #108]	; (80025d8 <IRTX+0x78>)
 800256a:	6020      	str	r0, [r4, #0]
 800256c:	4c1b      	ldr	r4, [pc, #108]	; (80025dc <IRTX+0x7c>)
 800256e:	6022      	str	r2, [r4, #0]
 8002570:	4a1b      	ldr	r2, [pc, #108]	; (80025e0 <IRTX+0x80>)
 8002572:	6010      	str	r0, [r2, #0]
 8002574:	4a1b      	ldr	r2, [pc, #108]	; (80025e4 <IRTX+0x84>)
 8002576:	6010      	str	r0, [r2, #0]
 8002578:	4a1b      	ldr	r2, [pc, #108]	; (80025e8 <IRTX+0x88>)
 800257a:	6010      	str	r0, [r2, #0]
 800257c:	4a1b      	ldr	r2, [pc, #108]	; (80025ec <IRTX+0x8c>)
 800257e:	6013      	str	r3, [r2, #0]
 8002580:	4b1b      	ldr	r3, [pc, #108]	; (80025f0 <IRTX+0x90>)
 8002582:	6018      	str	r0, [r3, #0]
 8002584:	2401      	movs	r4, #1
 8002586:	4b1b      	ldr	r3, [pc, #108]	; (80025f4 <IRTX+0x94>)
 8002588:	701c      	strb	r4, [r3, #0]
 800258a:	b2ca      	uxtb	r2, r1
 800258c:	4b1a      	ldr	r3, [pc, #104]	; (80025f8 <IRTX+0x98>)
 800258e:	701a      	strb	r2, [r3, #0]
 8002590:	4b1a      	ldr	r3, [pc, #104]	; (80025fc <IRTX+0x9c>)
 8002592:	681a      	ldr	r2, [r3, #0]
 8002594:	43a2      	bics	r2, r4
 8002596:	601a      	str	r2, [r3, #0]
 8002598:	6258      	str	r0, [r3, #36]	; 0x24
 800259a:	2900      	cmp	r1, #0
 800259c:	d011      	beq.n	80025c2 <IRTX+0x62>
 800259e:	22bf      	movs	r2, #191	; 0xbf
 80025a0:	62da      	str	r2, [r3, #44]	; 0x2c
 80025a2:	4b17      	ldr	r3, [pc, #92]	; (8002600 <IRTX+0xa0>)
 80025a4:	3abb      	subs	r2, #187	; 0xbb
 80025a6:	601a      	str	r2, [r3, #0]
 80025a8:	4b16      	ldr	r3, [pc, #88]	; (8002604 <IRTX+0xa4>)
 80025aa:	2280      	movs	r2, #128	; 0x80
 80025ac:	01d2      	lsls	r2, r2, #7
 80025ae:	635a      	str	r2, [r3, #52]	; 0x34
 80025b0:	4b12      	ldr	r3, [pc, #72]	; (80025fc <IRTX+0x9c>)
 80025b2:	68d9      	ldr	r1, [r3, #12]
 80025b4:	2001      	movs	r0, #1
 80025b6:	4301      	orrs	r1, r0
 80025b8:	60d9      	str	r1, [r3, #12]
 80025ba:	681a      	ldr	r2, [r3, #0]
 80025bc:	4302      	orrs	r2, r0
 80025be:	601a      	str	r2, [r3, #0]
 80025c0:	bd10      	pop	{r4, pc}
 80025c2:	4b0e      	ldr	r3, [pc, #56]	; (80025fc <IRTX+0x9c>)
 80025c4:	22e4      	movs	r2, #228	; 0xe4
 80025c6:	32ff      	adds	r2, #255	; 0xff
 80025c8:	62da      	str	r2, [r3, #44]	; 0x2c
 80025ca:	4b0d      	ldr	r3, [pc, #52]	; (8002600 <IRTX+0xa0>)
 80025cc:	3ae1      	subs	r2, #225	; 0xe1
 80025ce:	3aff      	subs	r2, #255	; 0xff
 80025d0:	601a      	str	r2, [r3, #0]
 80025d2:	e7e9      	b.n	80025a8 <IRTX+0x48>
 80025d4:	200004f0 	.word	0x200004f0
 80025d8:	200004e0 	.word	0x200004e0
 80025dc:	200008f4 	.word	0x200008f4
 80025e0:	200004dc 	.word	0x200004dc
 80025e4:	200008f8 	.word	0x200008f8
 80025e8:	200004e8 	.word	0x200004e8
 80025ec:	200004d4 	.word	0x200004d4
 80025f0:	200004ec 	.word	0x200004ec
 80025f4:	2000029c 	.word	0x2000029c
 80025f8:	200004d0 	.word	0x200004d0
 80025fc:	40014400 	.word	0x40014400
 8002600:	200004d8 	.word	0x200004d8
 8002604:	40000400 	.word	0x40000400

08002608 <adc_read>:
 8002608:	4b09      	ldr	r3, [pc, #36]	; (8002630 <adc_read+0x28>)
 800260a:	2201      	movs	r2, #1
 800260c:	609a      	str	r2, [r3, #8]
 800260e:	0019      	movs	r1, r3
 8002610:	680b      	ldr	r3, [r1, #0]
 8002612:	421a      	tst	r2, r3
 8002614:	d0fc      	beq.n	8002610 <adc_read+0x8>
 8002616:	4a06      	ldr	r2, [pc, #24]	; (8002630 <adc_read+0x28>)
 8002618:	6893      	ldr	r3, [r2, #8]
 800261a:	2104      	movs	r1, #4
 800261c:	430b      	orrs	r3, r1
 800261e:	6093      	str	r3, [r2, #8]
 8002620:	0011      	movs	r1, r2
 8002622:	2204      	movs	r2, #4
 8002624:	680b      	ldr	r3, [r1, #0]
 8002626:	421a      	tst	r2, r3
 8002628:	d0fc      	beq.n	8002624 <adc_read+0x1c>
 800262a:	4b01      	ldr	r3, [pc, #4]	; (8002630 <adc_read+0x28>)
 800262c:	6c18      	ldr	r0, [r3, #64]	; 0x40
 800262e:	4770      	bx	lr
 8002630:	40012400 	.word	0x40012400

08002634 <SystemClock_Config>:
 8002634:	b510      	push	{r4, lr}
 8002636:	4b28      	ldr	r3, [pc, #160]	; (80026d8 <SystemClock_Config+0xa4>)
 8002638:	681a      	ldr	r2, [r3, #0]
 800263a:	2101      	movs	r1, #1
 800263c:	430a      	orrs	r2, r1
 800263e:	601a      	str	r2, [r3, #0]
 8002640:	681b      	ldr	r3, [r3, #0]
 8002642:	4a26      	ldr	r2, [pc, #152]	; (80026dc <SystemClock_Config+0xa8>)
 8002644:	6811      	ldr	r1, [r2, #0]
 8002646:	2380      	movs	r3, #128	; 0x80
 8002648:	025b      	lsls	r3, r3, #9
 800264a:	430b      	orrs	r3, r1
 800264c:	6013      	str	r3, [r2, #0]
 800264e:	0011      	movs	r1, r2
 8002650:	2280      	movs	r2, #128	; 0x80
 8002652:	0292      	lsls	r2, r2, #10
 8002654:	680b      	ldr	r3, [r1, #0]
 8002656:	4213      	tst	r3, r2
 8002658:	d0fc      	beq.n	8002654 <SystemClock_Config+0x20>
 800265a:	4b20      	ldr	r3, [pc, #128]	; (80026dc <SystemClock_Config+0xa8>)
 800265c:	685a      	ldr	r2, [r3, #4]
 800265e:	4920      	ldr	r1, [pc, #128]	; (80026e0 <SystemClock_Config+0xac>)
 8002660:	4011      	ands	r1, r2
 8002662:	2288      	movs	r2, #136	; 0x88
 8002664:	0352      	lsls	r2, r2, #13
 8002666:	430a      	orrs	r2, r1
 8002668:	605a      	str	r2, [r3, #4]
 800266a:	6ada      	ldr	r2, [r3, #44]	; 0x2c
 800266c:	210f      	movs	r1, #15
 800266e:	438a      	bics	r2, r1
 8002670:	62da      	str	r2, [r3, #44]	; 0x2c
 8002672:	6819      	ldr	r1, [r3, #0]
 8002674:	2280      	movs	r2, #128	; 0x80
 8002676:	0452      	lsls	r2, r2, #17
 8002678:	430a      	orrs	r2, r1
 800267a:	601a      	str	r2, [r3, #0]
 800267c:	0019      	movs	r1, r3
 800267e:	2280      	movs	r2, #128	; 0x80
 8002680:	0492      	lsls	r2, r2, #18
 8002682:	680b      	ldr	r3, [r1, #0]
 8002684:	4213      	tst	r3, r2
 8002686:	d0fc      	beq.n	8002682 <SystemClock_Config+0x4e>
 8002688:	4b14      	ldr	r3, [pc, #80]	; (80026dc <SystemClock_Config+0xa8>)
 800268a:	685a      	ldr	r2, [r3, #4]
 800268c:	21f0      	movs	r1, #240	; 0xf0
 800268e:	438a      	bics	r2, r1
 8002690:	605a      	str	r2, [r3, #4]
 8002692:	685a      	ldr	r2, [r3, #4]
 8002694:	4913      	ldr	r1, [pc, #76]	; (80026e4 <SystemClock_Config+0xb0>)
 8002696:	400a      	ands	r2, r1
 8002698:	605a      	str	r2, [r3, #4]
 800269a:	685a      	ldr	r2, [r3, #4]
 800269c:	2103      	movs	r1, #3
 800269e:	438a      	bics	r2, r1
 80026a0:	3901      	subs	r1, #1
 80026a2:	430a      	orrs	r2, r1
 80026a4:	605a      	str	r2, [r3, #4]
 80026a6:	0019      	movs	r1, r3
 80026a8:	220c      	movs	r2, #12
 80026aa:	684b      	ldr	r3, [r1, #4]
 80026ac:	4013      	ands	r3, r2
 80026ae:	2b08      	cmp	r3, #8
 80026b0:	d1fb      	bne.n	80026aa <SystemClock_Config+0x76>
 80026b2:	4c0d      	ldr	r4, [pc, #52]	; (80026e8 <SystemClock_Config+0xb4>)
 80026b4:	0020      	movs	r0, r4
 80026b6:	f7ff f84d 	bl	8001754 <LL_Init1msTick>
 80026ba:	4a0c      	ldr	r2, [pc, #48]	; (80026ec <SystemClock_Config+0xb8>)
 80026bc:	6813      	ldr	r3, [r2, #0]
 80026be:	2104      	movs	r1, #4
 80026c0:	430b      	orrs	r3, r1
 80026c2:	6013      	str	r3, [r2, #0]
 80026c4:	0020      	movs	r0, r4
 80026c6:	f7ff f855 	bl	8001774 <LL_SetSystemCoreClock>
 80026ca:	4a04      	ldr	r2, [pc, #16]	; (80026dc <SystemClock_Config+0xa8>)
 80026cc:	6b13      	ldr	r3, [r2, #48]	; 0x30
 80026ce:	2180      	movs	r1, #128	; 0x80
 80026d0:	430b      	orrs	r3, r1
 80026d2:	6313      	str	r3, [r2, #48]	; 0x30
 80026d4:	bd10      	pop	{r4, pc}
 80026d6:	46c0      	nop			; (mov r8, r8)
 80026d8:	40022000 	.word	0x40022000
 80026dc:	40021000 	.word	0x40021000
 80026e0:	ffc27fff 	.word	0xffc27fff
 80026e4:	fffff8ff 	.word	0xfffff8ff
 80026e8:	02dc6c00 	.word	0x02dc6c00
 80026ec:	e000e010 	.word	0xe000e010

080026f0 <main>:
 80026f0:	b5f0      	push	{r4, r5, r6, r7, lr}
 80026f2:	46de      	mov	lr, fp
 80026f4:	4657      	mov	r7, sl
 80026f6:	464e      	mov	r6, r9
 80026f8:	4645      	mov	r5, r8
 80026fa:	b5e0      	push	{r5, r6, r7, lr}
 80026fc:	b0cf      	sub	sp, #316	; 0x13c
 80026fe:	f7fd fda1 	bl	8000244 <HAL_Init>
 8002702:	f7ff ff97 	bl	8002634 <SystemClock_Config>
 8002706:	f7ff fdb3 	bl	8002270 <MX_GPIO_Init>
 800270a:	f000 fab3 	bl	8002c74 <MX_USB_DEVICE_Init>
 800270e:	4bd6      	ldr	r3, [pc, #856]	; (8002a68 <main+0x378>)
 8002710:	69d9      	ldr	r1, [r3, #28]
 8002712:	2202      	movs	r2, #2
 8002714:	4311      	orrs	r1, r2
 8002716:	61d9      	str	r1, [r3, #28]
 8002718:	69d9      	ldr	r1, [r3, #28]
 800271a:	4011      	ands	r1, r2
 800271c:	9108      	str	r1, [sp, #32]
 800271e:	9908      	ldr	r1, [sp, #32]
 8002720:	69d8      	ldr	r0, [r3, #28]
 8002722:	2480      	movs	r4, #128	; 0x80
 8002724:	0064      	lsls	r4, r4, #1
 8002726:	4320      	orrs	r0, r4
 8002728:	61d8      	str	r0, [r3, #28]
 800272a:	69d9      	ldr	r1, [r3, #28]
 800272c:	4021      	ands	r1, r4
 800272e:	9107      	str	r1, [sp, #28]
 8002730:	9907      	ldr	r1, [sp, #28]
 8002732:	6998      	ldr	r0, [r3, #24]
 8002734:	3401      	adds	r4, #1
 8002736:	34ff      	adds	r4, #255	; 0xff
 8002738:	4320      	orrs	r0, r4
 800273a:	6198      	str	r0, [r3, #24]
 800273c:	6999      	ldr	r1, [r3, #24]
 800273e:	4021      	ands	r1, r4
 8002740:	9106      	str	r1, [sp, #24]
 8002742:	9906      	ldr	r1, [sp, #24]
 8002744:	6998      	ldr	r0, [r3, #24]
 8002746:	2480      	movs	r4, #128	; 0x80
 8002748:	02a4      	lsls	r4, r4, #10
 800274a:	4320      	orrs	r0, r4
 800274c:	6198      	str	r0, [r3, #24]
 800274e:	6999      	ldr	r1, [r3, #24]
 8002750:	4021      	ands	r1, r4
 8002752:	9105      	str	r1, [sp, #20]
 8002754:	9905      	ldr	r1, [sp, #20]
 8002756:	6998      	ldr	r0, [r3, #24]
 8002758:	2480      	movs	r4, #128	; 0x80
 800275a:	02e4      	lsls	r4, r4, #11
 800275c:	4320      	orrs	r0, r4
 800275e:	6198      	str	r0, [r3, #24]
 8002760:	6999      	ldr	r1, [r3, #24]
 8002762:	4021      	ands	r1, r4
 8002764:	9104      	str	r1, [sp, #16]
 8002766:	9904      	ldr	r1, [sp, #16]
 8002768:	6999      	ldr	r1, [r3, #24]
 800276a:	2401      	movs	r4, #1
 800276c:	4321      	orrs	r1, r4
 800276e:	6199      	str	r1, [r3, #24]
 8002770:	699b      	ldr	r3, [r3, #24]
 8002772:	4023      	ands	r3, r4
 8002774:	9303      	str	r3, [sp, #12]
 8002776:	9b03      	ldr	r3, [sp, #12]
 8002778:	2380      	movs	r3, #128	; 0x80
 800277a:	019b      	lsls	r3, r3, #6
 800277c:	9309      	str	r3, [sp, #36]	; 0x24
 800277e:	2500      	movs	r5, #0
 8002780:	950c      	str	r5, [sp, #48]	; 0x30
 8002782:	920a      	str	r2, [sp, #40]	; 0x28
 8002784:	940d      	str	r4, [sp, #52]	; 0x34
 8002786:	2090      	movs	r0, #144	; 0x90
 8002788:	a909      	add	r1, sp, #36	; 0x24
 800278a:	05c0      	lsls	r0, r0, #23
 800278c:	f7fd fdca 	bl	8000324 <HAL_GPIO_Init>
 8002790:	4bb6      	ldr	r3, [pc, #728]	; (8002a6c <main+0x37c>)
 8002792:	629d      	str	r5, [r3, #40]	; 0x28
 8002794:	2225      	movs	r2, #37	; 0x25
 8002796:	62da      	str	r2, [r3, #44]	; 0x2c
 8002798:	3a13      	subs	r2, #19
 800279a:	635a      	str	r2, [r3, #52]	; 0x34
 800279c:	699a      	ldr	r2, [r3, #24]
 800279e:	2168      	movs	r1, #104	; 0x68
 80027a0:	430a      	orrs	r2, r1
 80027a2:	619a      	str	r2, [r3, #24]
 80027a4:	6a1a      	ldr	r2, [r3, #32]
 80027a6:	4322      	orrs	r2, r4
 80027a8:	621a      	str	r2, [r3, #32]
 80027aa:	6c5a      	ldr	r2, [r3, #68]	; 0x44
 80027ac:	2180      	movs	r1, #128	; 0x80
 80027ae:	0209      	lsls	r1, r1, #8
 80027b0:	430a      	orrs	r2, r1
 80027b2:	645a      	str	r2, [r3, #68]	; 0x44
 80027b4:	4aae      	ldr	r2, [pc, #696]	; (8002a70 <main+0x380>)
 80027b6:	6295      	str	r5, [r2, #40]	; 0x28
 80027b8:	6990      	ldr	r0, [r2, #24]
 80027ba:	2640      	movs	r6, #64	; 0x40
 80027bc:	4330      	orrs	r0, r6
 80027be:	6190      	str	r0, [r2, #24]
 80027c0:	6a10      	ldr	r0, [r2, #32]
 80027c2:	4320      	orrs	r0, r4
 80027c4:	6210      	str	r0, [r2, #32]
 80027c6:	6c50      	ldr	r0, [r2, #68]	; 0x44
 80027c8:	4301      	orrs	r1, r0
 80027ca:	6451      	str	r1, [r2, #68]	; 0x44
 80027cc:	68d1      	ldr	r1, [r2, #12]
 80027ce:	4321      	orrs	r1, r4
 80027d0:	60d1      	str	r1, [r2, #12]
 80027d2:	681a      	ldr	r2, [r3, #0]
 80027d4:	4322      	orrs	r2, r4
 80027d6:	601a      	str	r2, [r3, #0]
 80027d8:	695a      	ldr	r2, [r3, #20]
 80027da:	4322      	orrs	r2, r4
 80027dc:	615a      	str	r2, [r3, #20]
 80027de:	4aa5      	ldr	r2, [pc, #660]	; (8002a74 <main+0x384>)
 80027e0:	2380      	movs	r3, #128	; 0x80
 80027e2:	039b      	lsls	r3, r3, #14
 80027e4:	6013      	str	r3, [r2, #0]
 80027e6:	21c5      	movs	r1, #197	; 0xc5
 80027e8:	0089      	lsls	r1, r1, #2
 80027ea:	5853      	ldr	r3, [r2, r1]
 80027ec:	48a2      	ldr	r0, [pc, #648]	; (8002a78 <main+0x388>)
 80027ee:	4003      	ands	r3, r0
 80027f0:	5053      	str	r3, [r2, r1]
 80027f2:	4ba2      	ldr	r3, [pc, #648]	; (8002a7c <main+0x38c>)
 80027f4:	2164      	movs	r1, #100	; 0x64
 80027f6:	6299      	str	r1, [r3, #40]	; 0x28
 80027f8:	48a1      	ldr	r0, [pc, #644]	; (8002a80 <main+0x390>)
 80027fa:	62d8      	str	r0, [r3, #44]	; 0x2c
 80027fc:	619d      	str	r5, [r3, #24]
 80027fe:	621d      	str	r5, [r3, #32]
 8002800:	68d9      	ldr	r1, [r3, #12]
 8002802:	4321      	orrs	r1, r4
 8002804:	60d9      	str	r1, [r3, #12]
 8002806:	6819      	ldr	r1, [r3, #0]
 8002808:	4321      	orrs	r1, r4
 800280a:	6019      	str	r1, [r3, #0]
 800280c:	6959      	ldr	r1, [r3, #20]
 800280e:	4321      	orrs	r1, r4
 8002810:	6159      	str	r1, [r3, #20]
 8002812:	2380      	movs	r3, #128	; 0x80
 8002814:	031b      	lsls	r3, r3, #12
 8002816:	6013      	str	r3, [r2, #0]
 8002818:	26c4      	movs	r6, #196	; 0xc4
 800281a:	00b6      	lsls	r6, r6, #2
 800281c:	5993      	ldr	r3, [r2, r6]
 800281e:	021b      	lsls	r3, r3, #8
 8002820:	0a1b      	lsrs	r3, r3, #8
 8002822:	2180      	movs	r1, #128	; 0x80
 8002824:	05c9      	lsls	r1, r1, #23
 8002826:	430b      	orrs	r3, r1
 8002828:	5193      	str	r3, [r2, r6]
 800282a:	4b96      	ldr	r3, [pc, #600]	; (8002a84 <main+0x394>)
 800282c:	62d8      	str	r0, [r3, #44]	; 0x2c
 800282e:	2270      	movs	r2, #112	; 0x70
 8002830:	619a      	str	r2, [r3, #24]
 8002832:	621c      	str	r4, [r3, #32]
 8002834:	2280      	movs	r2, #128	; 0x80
 8002836:	0152      	lsls	r2, r2, #5
 8002838:	635a      	str	r2, [r3, #52]	; 0x34
 800283a:	681a      	ldr	r2, [r3, #0]
 800283c:	4322      	orrs	r2, r4
 800283e:	601a      	str	r2, [r3, #0]
 8002840:	695a      	ldr	r2, [r3, #20]
 8002842:	4314      	orrs	r4, r2
 8002844:	615c      	str	r4, [r3, #20]
 8002846:	4b90      	ldr	r3, [pc, #576]	; (8002a88 <main+0x398>)
 8002848:	60dd      	str	r5, [r3, #12]
 800284a:	2207      	movs	r2, #7
 800284c:	615a      	str	r2, [r3, #20]
 800284e:	3219      	adds	r2, #25
 8002850:	629a      	str	r2, [r3, #40]	; 0x28
 8002852:	f7ff fed9 	bl	8002608 <adc_read>
 8002856:	4b8d      	ldr	r3, [pc, #564]	; (8002a8c <main+0x39c>)
 8002858:	4298      	cmp	r0, r3
 800285a:	d834      	bhi.n	80028c6 <main+0x1d6>
 800285c:	4b8c      	ldr	r3, [pc, #560]	; (8002a90 <main+0x3a0>)
 800285e:	881b      	ldrh	r3, [r3, #0]
 8002860:	4698      	mov	r8, r3
 8002862:	4b8c      	ldr	r3, [pc, #560]	; (8002a94 <main+0x3a4>)
 8002864:	2201      	movs	r2, #1
 8002866:	601a      	str	r2, [r3, #0]
 8002868:	4b89      	ldr	r3, [pc, #548]	; (8002a90 <main+0x3a0>)
 800286a:	469b      	mov	fp, r3
 800286c:	4e8a      	ldr	r6, [pc, #552]	; (8002a98 <main+0x3a8>)
 800286e:	4699      	mov	r9, r3
 8002870:	46c2      	mov	sl, r8
 8002872:	e00c      	b.n	800288e <main+0x19e>
 8002874:	4643      	mov	r3, r8
 8002876:	003a      	movs	r2, r7
 8002878:	a80e      	add	r0, sp, #56	; 0x38
 800287a:	f7ff fe71 	bl	8002560 <IRTX>
 800287e:	4a87      	ldr	r2, [pc, #540]	; (8002a9c <main+0x3ac>)
 8002880:	7813      	ldrb	r3, [r2, #0]
 8002882:	2b00      	cmp	r3, #0
 8002884:	d1fc      	bne.n	8002880 <main+0x190>
 8002886:	3501      	adds	r5, #1
 8002888:	4555      	cmp	r5, sl
 800288a:	419b      	sbcs	r3, r3
 800288c:	401d      	ands	r5, r3
 800288e:	00eb      	lsls	r3, r5, #3
 8002890:	195b      	adds	r3, r3, r5
 8002892:	00db      	lsls	r3, r3, #3
 8002894:	445b      	add	r3, fp
 8002896:	891f      	ldrh	r7, [r3, #8]
 8002898:	889a      	ldrh	r2, [r3, #4]
 800289a:	4690      	mov	r8, r2
 800289c:	88da      	ldrh	r2, [r3, #6]
 800289e:	6032      	str	r2, [r6, #0]
 80028a0:	8859      	ldrh	r1, [r3, #2]
 80028a2:	2301      	movs	r3, #1
 80028a4:	4019      	ands	r1, r3
 80028a6:	2f00      	cmp	r7, #0
 80028a8:	d0e4      	beq.n	8002874 <main+0x184>
 80028aa:	ac0e      	add	r4, sp, #56	; 0x38
 80028ac:	00ea      	lsls	r2, r5, #3
 80028ae:	1952      	adds	r2, r2, r5
 80028b0:	00d2      	lsls	r2, r2, #3
 80028b2:	320a      	adds	r2, #10
 80028b4:	444a      	add	r2, r9
 80028b6:	2000      	movs	r0, #0
 80028b8:	5c13      	ldrb	r3, [r2, r0]
 80028ba:	7023      	strb	r3, [r4, #0]
 80028bc:	3001      	adds	r0, #1
 80028be:	3401      	adds	r4, #1
 80028c0:	4287      	cmp	r7, r0
 80028c2:	d8f9      	bhi.n	80028b8 <main+0x1c8>
 80028c4:	e7d6      	b.n	8002874 <main+0x184>
 80028c6:	2400      	movs	r4, #0
 80028c8:	9401      	str	r4, [sp, #4]
 80028ca:	46a0      	mov	r8, r4
 80028cc:	46a2      	mov	sl, r4
 80028ce:	9400      	str	r4, [sp, #0]
 80028d0:	46a3      	mov	fp, r4
 80028d2:	4b73      	ldr	r3, [pc, #460]	; (8002aa0 <main+0x3b0>)
 80028d4:	4699      	mov	r9, r3
 80028d6:	4a73      	ldr	r2, [pc, #460]	; (8002aa4 <main+0x3b4>)
 80028d8:	1a9f      	subs	r7, r3, r2
 80028da:	e01b      	b.n	8002914 <main+0x224>
 80028dc:	4b72      	ldr	r3, [pc, #456]	; (8002aa8 <main+0x3b8>)
 80028de:	781c      	ldrb	r4, [r3, #0]
 80028e0:	2c00      	cmp	r4, #0
 80028e2:	d100      	bne.n	80028e6 <main+0x1f6>
 80028e4:	e14f      	b.n	8002b86 <main+0x496>
 80028e6:	3c01      	subs	r4, #1
 80028e8:	701c      	strb	r4, [r3, #0]
 80028ea:	4b6c      	ldr	r3, [pc, #432]	; (8002a9c <main+0x3ac>)
 80028ec:	781b      	ldrb	r3, [r3, #0]
 80028ee:	2400      	movs	r4, #0
 80028f0:	2b00      	cmp	r3, #0
 80028f2:	d109      	bne.n	8002908 <main+0x218>
 80028f4:	4b6c      	ldr	r3, [pc, #432]	; (8002aa8 <main+0x3b8>)
 80028f6:	781a      	ldrb	r2, [r3, #0]
 80028f8:	2304      	movs	r3, #4
 80028fa:	4293      	cmp	r3, r2
 80028fc:	419b      	sbcs	r3, r3
 80028fe:	425b      	negs	r3, r3
 8002900:	021b      	lsls	r3, r3, #8
 8002902:	4a60      	ldr	r2, [pc, #384]	; (8002a84 <main+0x394>)
 8002904:	6353      	str	r3, [r2, #52]	; 0x34
 8002906:	2400      	movs	r4, #0
 8002908:	4b68      	ldr	r3, [pc, #416]	; (8002aac <main+0x3bc>)
 800290a:	681a      	ldr	r2, [r3, #0]
 800290c:	685b      	ldr	r3, [r3, #4]
 800290e:	429a      	cmp	r2, r3
 8002910:	d000      	beq.n	8002914 <main+0x224>
 8002912:	e0e8      	b.n	8002ae6 <main+0x3f6>
 8002914:	4b66      	ldr	r3, [pc, #408]	; (8002ab0 <main+0x3c0>)
 8002916:	681b      	ldr	r3, [r3, #0]
 8002918:	2b00      	cmp	r3, #0
 800291a:	d0f5      	beq.n	8002908 <main+0x218>
 800291c:	4b64      	ldr	r3, [pc, #400]	; (8002ab0 <main+0x3c0>)
 800291e:	2200      	movs	r2, #0
 8002920:	601a      	str	r2, [r3, #0]
 8002922:	2390      	movs	r3, #144	; 0x90
 8002924:	05db      	lsls	r3, r3, #23
 8002926:	691b      	ldr	r3, [r3, #16]
 8002928:	06db      	lsls	r3, r3, #27
 800292a:	d4d7      	bmi.n	80028dc <main+0x1ec>
 800292c:	4b5e      	ldr	r3, [pc, #376]	; (8002aa8 <main+0x3b8>)
 800292e:	781b      	ldrb	r3, [r3, #0]
 8002930:	2b09      	cmp	r3, #9
 8002932:	d8da      	bhi.n	80028ea <main+0x1fa>
 8002934:	3301      	adds	r3, #1
 8002936:	4a5c      	ldr	r2, [pc, #368]	; (8002aa8 <main+0x3b8>)
 8002938:	7013      	strb	r3, [r2, #0]
 800293a:	e7d6      	b.n	80028ea <main+0x1fa>
 800293c:	4653      	mov	r3, sl
 800293e:	9a00      	ldr	r2, [sp, #0]
 8002940:	4659      	mov	r1, fp
 8002942:	a80e      	add	r0, sp, #56	; 0x38
 8002944:	f7ff fe0c 	bl	8002560 <IRTX>
 8002948:	e0c2      	b.n	8002ad0 <main+0x3e0>
 800294a:	210c      	movs	r1, #12
 800294c:	4859      	ldr	r0, [pc, #356]	; (8002ab4 <main+0x3c4>)
 800294e:	f000 fa05 	bl	8002d5c <CDC_Transmit_FS>
 8002952:	e0bd      	b.n	8002ad0 <main+0x3e0>
 8002954:	4d52      	ldr	r5, [pc, #328]	; (8002aa0 <main+0x3b0>)
 8002956:	4e58      	ldr	r6, [pc, #352]	; (8002ab8 <main+0x3c8>)
 8002958:	882b      	ldrh	r3, [r5, #0]
 800295a:	aa02      	add	r2, sp, #8
 800295c:	8053      	strh	r3, [r2, #2]
 800295e:	2102      	movs	r1, #2
 8002960:	ab02      	add	r3, sp, #8
 8002962:	1c98      	adds	r0, r3, #2
 8002964:	f000 f9fa 	bl	8002d5c <CDC_Transmit_FS>
 8002968:	2800      	cmp	r0, #0
 800296a:	d1f8      	bne.n	800295e <main+0x26e>
 800296c:	3504      	adds	r5, #4
 800296e:	42b5      	cmp	r5, r6
 8002970:	d1f2      	bne.n	8002958 <main+0x268>
 8002972:	0004      	movs	r4, r0
 8002974:	e0ac      	b.n	8002ad0 <main+0x3e0>
 8002976:	2c01      	cmp	r4, #1
 8002978:	d100      	bne.n	800297c <main+0x28c>
 800297a:	e0a7      	b.n	8002acc <main+0x3dc>
 800297c:	2c02      	cmp	r4, #2
 800297e:	d100      	bne.n	8002982 <main+0x292>
 8002980:	e0ce      	b.n	8002b20 <main+0x430>
 8002982:	2c03      	cmp	r4, #3
 8002984:	d100      	bne.n	8002988 <main+0x298>
 8002986:	e0cf      	b.n	8002b28 <main+0x438>
 8002988:	2c04      	cmp	r4, #4
 800298a:	d100      	bne.n	800298e <main+0x29e>
 800298c:	e0cf      	b.n	8002b2e <main+0x43e>
 800298e:	2c05      	cmp	r4, #5
 8002990:	d100      	bne.n	8002994 <main+0x2a4>
 8002992:	e0d9      	b.n	8002b48 <main+0x458>
 8002994:	2c06      	cmp	r4, #6
 8002996:	d000      	beq.n	800299a <main+0x2aa>
 8002998:	e09a      	b.n	8002ad0 <main+0x3e0>
 800299a:	9901      	ldr	r1, [sp, #4]
 800299c:	1c4d      	adds	r5, r1, #1
 800299e:	4a41      	ldr	r2, [pc, #260]	; (8002aa4 <main+0x3b4>)
 80029a0:	5453      	strb	r3, [r2, r1]
 80029a2:	066b      	lsls	r3, r5, #25
 80029a4:	d100      	bne.n	80029a8 <main+0x2b8>
 80029a6:	e0d9      	b.n	8002b5c <main+0x46c>
 80029a8:	2380      	movs	r3, #128	; 0x80
 80029aa:	00db      	lsls	r3, r3, #3
 80029ac:	9501      	str	r5, [sp, #4]
 80029ae:	429d      	cmp	r5, r3
 80029b0:	d000      	beq.n	80029b4 <main+0x2c4>
 80029b2:	e08d      	b.n	8002ad0 <main+0x3e0>
 80029b4:	4a41      	ldr	r2, [pc, #260]	; (8002abc <main+0x3cc>)
 80029b6:	2301      	movs	r3, #1
 80029b8:	68d1      	ldr	r1, [r2, #12]
 80029ba:	420b      	tst	r3, r1
 80029bc:	d1fc      	bne.n	80029b8 <main+0x2c8>
 80029be:	4b3f      	ldr	r3, [pc, #252]	; (8002abc <main+0x3cc>)
 80029c0:	691b      	ldr	r3, [r3, #16]
 80029c2:	061b      	lsls	r3, r3, #24
 80029c4:	d504      	bpl.n	80029d0 <main+0x2e0>
 80029c6:	4b3d      	ldr	r3, [pc, #244]	; (8002abc <main+0x3cc>)
 80029c8:	4a3d      	ldr	r2, [pc, #244]	; (8002ac0 <main+0x3d0>)
 80029ca:	605a      	str	r2, [r3, #4]
 80029cc:	4a3d      	ldr	r2, [pc, #244]	; (8002ac4 <main+0x3d4>)
 80029ce:	605a      	str	r2, [r3, #4]
 80029d0:	4b3a      	ldr	r3, [pc, #232]	; (8002abc <main+0x3cc>)
 80029d2:	691a      	ldr	r2, [r3, #16]
 80029d4:	2102      	movs	r1, #2
 80029d6:	430a      	orrs	r2, r1
 80029d8:	611a      	str	r2, [r3, #16]
 80029da:	464a      	mov	r2, r9
 80029dc:	615a      	str	r2, [r3, #20]
 80029de:	691a      	ldr	r2, [r3, #16]
 80029e0:	313e      	adds	r1, #62	; 0x3e
 80029e2:	430a      	orrs	r2, r1
 80029e4:	611a      	str	r2, [r3, #16]
 80029e6:	001a      	movs	r2, r3
 80029e8:	2301      	movs	r3, #1
 80029ea:	68d1      	ldr	r1, [r2, #12]
 80029ec:	420b      	tst	r3, r1
 80029ee:	d1fc      	bne.n	80029ea <main+0x2fa>
 80029f0:	4b32      	ldr	r3, [pc, #200]	; (8002abc <main+0x3cc>)
 80029f2:	68db      	ldr	r3, [r3, #12]
 80029f4:	069b      	lsls	r3, r3, #26
 80029f6:	d400      	bmi.n	80029fa <main+0x30a>
 80029f8:	e0b5      	b.n	8002b66 <main+0x476>
 80029fa:	4b30      	ldr	r3, [pc, #192]	; (8002abc <main+0x3cc>)
 80029fc:	2220      	movs	r2, #32
 80029fe:	60da      	str	r2, [r3, #12]
 8002a00:	4b2e      	ldr	r3, [pc, #184]	; (8002abc <main+0x3cc>)
 8002a02:	691a      	ldr	r2, [r3, #16]
 8002a04:	2102      	movs	r1, #2
 8002a06:	438a      	bics	r2, r1
 8002a08:	611a      	str	r2, [r3, #16]
 8002a0a:	691a      	ldr	r2, [r3, #16]
 8002a0c:	3901      	subs	r1, #1
 8002a0e:	430a      	orrs	r2, r1
 8002a10:	611a      	str	r2, [r3, #16]
 8002a12:	4b24      	ldr	r3, [pc, #144]	; (8002aa4 <main+0x3b4>)
 8002a14:	001a      	movs	r2, r3
 8002a16:	2180      	movs	r1, #128	; 0x80
 8002a18:	00c9      	lsls	r1, r1, #3
 8002a1a:	468c      	mov	ip, r1
 8002a1c:	4462      	add	r2, ip
 8002a1e:	0010      	movs	r0, r2
 8002a20:	19da      	adds	r2, r3, r7
 8002a22:	0019      	movs	r1, r3
 8002a24:	3302      	adds	r3, #2
 8002a26:	8809      	ldrh	r1, [r1, #0]
 8002a28:	8011      	strh	r1, [r2, #0]
 8002a2a:	4283      	cmp	r3, r0
 8002a2c:	d1f8      	bne.n	8002a20 <main+0x330>
 8002a2e:	4a23      	ldr	r2, [pc, #140]	; (8002abc <main+0x3cc>)
 8002a30:	2301      	movs	r3, #1
 8002a32:	68d1      	ldr	r1, [r2, #12]
 8002a34:	420b      	tst	r3, r1
 8002a36:	d1fc      	bne.n	8002a32 <main+0x342>
 8002a38:	4b20      	ldr	r3, [pc, #128]	; (8002abc <main+0x3cc>)
 8002a3a:	68db      	ldr	r3, [r3, #12]
 8002a3c:	069b      	lsls	r3, r3, #26
 8002a3e:	d400      	bmi.n	8002a42 <main+0x352>
 8002a40:	e096      	b.n	8002b70 <main+0x480>
 8002a42:	4b1e      	ldr	r3, [pc, #120]	; (8002abc <main+0x3cc>)
 8002a44:	2220      	movs	r2, #32
 8002a46:	60da      	str	r2, [r3, #12]
 8002a48:	4a1c      	ldr	r2, [pc, #112]	; (8002abc <main+0x3cc>)
 8002a4a:	6913      	ldr	r3, [r2, #16]
 8002a4c:	2101      	movs	r1, #1
 8002a4e:	438b      	bics	r3, r1
 8002a50:	6113      	str	r3, [r2, #16]
 8002a52:	481d      	ldr	r0, [pc, #116]	; (8002ac8 <main+0x3d8>)
 8002a54:	f000 f982 	bl	8002d5c <CDC_Transmit_FS>
 8002a58:	4b0a      	ldr	r3, [pc, #40]	; (8002a84 <main+0x394>)
 8002a5a:	2280      	movs	r2, #128	; 0x80
 8002a5c:	01d2      	lsls	r2, r2, #7
 8002a5e:	635a      	str	r2, [r3, #52]	; 0x34
 8002a60:	9501      	str	r5, [sp, #4]
 8002a62:	2400      	movs	r4, #0
 8002a64:	e034      	b.n	8002ad0 <main+0x3e0>
 8002a66:	46c0      	nop			; (mov r8, r8)
 8002a68:	40021000 	.word	0x40021000
 8002a6c:	40014800 	.word	0x40014800
 8002a70:	40014400 	.word	0x40014400
 8002a74:	e000e100 	.word	0xe000e100
 8002a78:	ffff00ff 	.word	0xffff00ff
 8002a7c:	40002000 	.word	0x40002000
 8002a80:	0000ffff 	.word	0x0000ffff
 8002a84:	40000400 	.word	0x40000400
 8002a88:	40012400 	.word	0x40012400
 8002a8c:	00000a8b 	.word	0x00000a8b
 8002a90:	08007c00 	.word	0x08007c00
 8002a94:	200002a8 	.word	0x200002a8
 8002a98:	200002a4 	.word	0x200002a4
 8002a9c:	2000029c 	.word	0x2000029c
 8002aa0:	08007c00 	.word	0x08007c00
 8002aa4:	200004f4 	.word	0x200004f4
 8002aa8:	2000029d 	.word	0x2000029d
 8002aac:	20000194 	.word	0x20000194
 8002ab0:	200002a0 	.word	0x200002a0
 8002ab4:	08003210 	.word	0x08003210
 8002ab8:	08008000 	.word	0x08008000
 8002abc:	40022000 	.word	0x40022000
 8002ac0:	45670123 	.word	0x45670123
 8002ac4:	cdef89ab 	.word	0xcdef89ab
 8002ac8:	0800320c 	.word	0x0800320c
 8002acc:	9300      	str	r3, [sp, #0]
 8002ace:	3401      	adds	r4, #1
 8002ad0:	4b30      	ldr	r3, [pc, #192]	; (8002b94 <main+0x4a4>)
 8002ad2:	6859      	ldr	r1, [r3, #4]
 8002ad4:	3101      	adds	r1, #1
 8002ad6:	22ff      	movs	r2, #255	; 0xff
 8002ad8:	400a      	ands	r2, r1
 8002ada:	605a      	str	r2, [r3, #4]
 8002adc:	681a      	ldr	r2, [r3, #0]
 8002ade:	685b      	ldr	r3, [r3, #4]
 8002ae0:	429a      	cmp	r2, r3
 8002ae2:	d100      	bne.n	8002ae6 <main+0x3f6>
 8002ae4:	e716      	b.n	8002914 <main+0x224>
 8002ae6:	4b2c      	ldr	r3, [pc, #176]	; (8002b98 <main+0x4a8>)
 8002ae8:	2200      	movs	r2, #0
 8002aea:	625a      	str	r2, [r3, #36]	; 0x24
 8002aec:	4b29      	ldr	r3, [pc, #164]	; (8002b94 <main+0x4a4>)
 8002aee:	685a      	ldr	r2, [r3, #4]
 8002af0:	189b      	adds	r3, r3, r2
 8002af2:	7a1b      	ldrb	r3, [r3, #8]
 8002af4:	b2db      	uxtb	r3, r3
 8002af6:	2c00      	cmp	r4, #0
 8002af8:	d000      	beq.n	8002afc <main+0x40c>
 8002afa:	e73c      	b.n	8002976 <main+0x286>
 8002afc:	2b4c      	cmp	r3, #76	; 0x4c
 8002afe:	d03c      	beq.n	8002b7a <main+0x48a>
 8002b00:	2b54      	cmp	r3, #84	; 0x54
 8002b02:	d100      	bne.n	8002b06 <main+0x416>
 8002b04:	e71a      	b.n	800293c <main+0x24c>
 8002b06:	2b3f      	cmp	r3, #63	; 0x3f
 8002b08:	d100      	bne.n	8002b0c <main+0x41c>
 8002b0a:	e71e      	b.n	800294a <main+0x25a>
 8002b0c:	2b57      	cmp	r3, #87	; 0x57
 8002b0e:	d036      	beq.n	8002b7e <main+0x48e>
 8002b10:	2b52      	cmp	r3, #82	; 0x52
 8002b12:	d100      	bne.n	8002b16 <main+0x426>
 8002b14:	e71e      	b.n	8002954 <main+0x264>
 8002b16:	2b53      	cmp	r3, #83	; 0x53
 8002b18:	d1da      	bne.n	8002ad0 <main+0x3e0>
 8002b1a:	f7ff fbe9 	bl	80022f0 <IRStop>
 8002b1e:	e7d7      	b.n	8002ad0 <main+0x3e0>
 8002b20:	4a1e      	ldr	r2, [pc, #120]	; (8002b9c <main+0x4ac>)
 8002b22:	6013      	str	r3, [r2, #0]
 8002b24:	3401      	adds	r4, #1
 8002b26:	e7d3      	b.n	8002ad0 <main+0x3e0>
 8002b28:	469a      	mov	sl, r3
 8002b2a:	3401      	adds	r4, #1
 8002b2c:	e7d0      	b.n	8002ad0 <main+0x3e0>
 8002b2e:	021a      	lsls	r2, r3, #8
 8002b30:	21fe      	movs	r1, #254	; 0xfe
 8002b32:	01c9      	lsls	r1, r1, #7
 8002b34:	400a      	ands	r2, r1
 8002b36:	4651      	mov	r1, sl
 8002b38:	4311      	orrs	r1, r2
 8002b3a:	468a      	mov	sl, r1
 8002b3c:	09db      	lsrs	r3, r3, #7
 8002b3e:	469b      	mov	fp, r3
 8002b40:	2300      	movs	r3, #0
 8002b42:	4698      	mov	r8, r3
 8002b44:	3401      	adds	r4, #1
 8002b46:	e7c3      	b.n	8002ad0 <main+0x3e0>
 8002b48:	4640      	mov	r0, r8
 8002b4a:	1c42      	adds	r2, r0, #1
 8002b4c:	a90e      	add	r1, sp, #56	; 0x38
 8002b4e:	540b      	strb	r3, [r1, r0]
 8002b50:	4690      	mov	r8, r2
 8002b52:	9b00      	ldr	r3, [sp, #0]
 8002b54:	429a      	cmp	r2, r3
 8002b56:	d1bb      	bne.n	8002ad0 <main+0x3e0>
 8002b58:	2400      	movs	r4, #0
 8002b5a:	e7b9      	b.n	8002ad0 <main+0x3e0>
 8002b5c:	2101      	movs	r1, #1
 8002b5e:	4810      	ldr	r0, [pc, #64]	; (8002ba0 <main+0x4b0>)
 8002b60:	f000 f8fc 	bl	8002d5c <CDC_Transmit_FS>
 8002b64:	e720      	b.n	80029a8 <main+0x2b8>
 8002b66:	2101      	movs	r1, #1
 8002b68:	480e      	ldr	r0, [pc, #56]	; (8002ba4 <main+0x4b4>)
 8002b6a:	f000 f8f7 	bl	8002d5c <CDC_Transmit_FS>
 8002b6e:	e747      	b.n	8002a00 <main+0x310>
 8002b70:	2101      	movs	r1, #1
 8002b72:	480c      	ldr	r0, [pc, #48]	; (8002ba4 <main+0x4b4>)
 8002b74:	f000 f8f2 	bl	8002d5c <CDC_Transmit_FS>
 8002b78:	e766      	b.n	8002a48 <main+0x358>
 8002b7a:	2401      	movs	r4, #1
 8002b7c:	e7a8      	b.n	8002ad0 <main+0x3e0>
 8002b7e:	2300      	movs	r3, #0
 8002b80:	9301      	str	r3, [sp, #4]
 8002b82:	2406      	movs	r4, #6
 8002b84:	e7a4      	b.n	8002ad0 <main+0x3e0>
 8002b86:	4b08      	ldr	r3, [pc, #32]	; (8002ba8 <main+0x4b8>)
 8002b88:	781a      	ldrb	r2, [r3, #0]
 8002b8a:	2300      	movs	r3, #0
 8002b8c:	2a00      	cmp	r2, #0
 8002b8e:	d100      	bne.n	8002b92 <main+0x4a2>
 8002b90:	e6b7      	b.n	8002902 <main+0x212>
 8002b92:	e6b9      	b.n	8002908 <main+0x218>
 8002b94:	20000194 	.word	0x20000194
 8002b98:	40002000 	.word	0x40002000
 8002b9c:	200002a4 	.word	0x200002a4
 8002ba0:	0800320c 	.word	0x0800320c
 8002ba4:	08003220 	.word	0x08003220
 8002ba8:	2000029c 	.word	0x2000029c

08002bac <Error_Handler>:
 8002bac:	4770      	bx	lr
	...

08002bb0 <HAL_MspInit>:
 8002bb0:	b082      	sub	sp, #8
 8002bb2:	4b0c      	ldr	r3, [pc, #48]	; (8002be4 <HAL_MspInit+0x34>)
 8002bb4:	6999      	ldr	r1, [r3, #24]
 8002bb6:	2201      	movs	r2, #1
 8002bb8:	4311      	orrs	r1, r2
 8002bba:	6199      	str	r1, [r3, #24]
 8002bbc:	6999      	ldr	r1, [r3, #24]
 8002bbe:	400a      	ands	r2, r1
 8002bc0:	9200      	str	r2, [sp, #0]
 8002bc2:	9a00      	ldr	r2, [sp, #0]
 8002bc4:	69da      	ldr	r2, [r3, #28]
 8002bc6:	2180      	movs	r1, #128	; 0x80
 8002bc8:	0549      	lsls	r1, r1, #21
 8002bca:	430a      	orrs	r2, r1
 8002bcc:	61da      	str	r2, [r3, #28]
 8002bce:	69db      	ldr	r3, [r3, #28]
 8002bd0:	400b      	ands	r3, r1
 8002bd2:	9301      	str	r3, [sp, #4]
 8002bd4:	9b01      	ldr	r3, [sp, #4]
 8002bd6:	4a04      	ldr	r2, [pc, #16]	; (8002be8 <HAL_MspInit+0x38>)
 8002bd8:	6813      	ldr	r3, [r2, #0]
 8002bda:	2110      	movs	r1, #16
 8002bdc:	430b      	orrs	r3, r1
 8002bde:	6013      	str	r3, [r2, #0]
 8002be0:	b002      	add	sp, #8
 8002be2:	4770      	bx	lr
 8002be4:	40021000 	.word	0x40021000
 8002be8:	40010000 	.word	0x40010000

08002bec <NMI_Handler>:
 8002bec:	4770      	bx	lr

08002bee <HardFault_Handler>:
 8002bee:	e7fe      	b.n	8002bee <HardFault_Handler>

08002bf0 <SVC_Handler>:
 8002bf0:	4770      	bx	lr

08002bf2 <PendSV_Handler>:
 8002bf2:	4770      	bx	lr

08002bf4 <SysTick_Handler>:
 8002bf4:	b510      	push	{r4, lr}
 8002bf6:	f7fd fb35 	bl	8000264 <HAL_IncTick>
 8002bfa:	bd10      	pop	{r4, pc}

08002bfc <USB_IRQHandler>:
 8002bfc:	b510      	push	{r4, lr}
 8002bfe:	4802      	ldr	r0, [pc, #8]	; (8002c08 <USB_IRQHandler+0xc>)
 8002c00:	f7fe fa8c 	bl	800111c <HAL_PCD_IRQHandler>
 8002c04:	bd10      	pop	{r4, pc}
 8002c06:	46c0      	nop			; (mov r8, r8)
 8002c08:	20000d20 	.word	0x20000d20

08002c0c <SystemInit>:
 8002c0c:	4b13      	ldr	r3, [pc, #76]	; (8002c5c <SystemInit+0x50>)
 8002c0e:	681a      	ldr	r2, [r3, #0]
 8002c10:	2101      	movs	r1, #1
 8002c12:	430a      	orrs	r2, r1
 8002c14:	601a      	str	r2, [r3, #0]
 8002c16:	685a      	ldr	r2, [r3, #4]
 8002c18:	4811      	ldr	r0, [pc, #68]	; (8002c60 <SystemInit+0x54>)
 8002c1a:	4002      	ands	r2, r0
 8002c1c:	605a      	str	r2, [r3, #4]
 8002c1e:	681a      	ldr	r2, [r3, #0]
 8002c20:	4810      	ldr	r0, [pc, #64]	; (8002c64 <SystemInit+0x58>)
 8002c22:	4002      	ands	r2, r0
 8002c24:	601a      	str	r2, [r3, #0]
 8002c26:	681a      	ldr	r2, [r3, #0]
 8002c28:	480f      	ldr	r0, [pc, #60]	; (8002c68 <SystemInit+0x5c>)
 8002c2a:	4002      	ands	r2, r0
 8002c2c:	601a      	str	r2, [r3, #0]
 8002c2e:	685a      	ldr	r2, [r3, #4]
 8002c30:	480e      	ldr	r0, [pc, #56]	; (8002c6c <SystemInit+0x60>)
 8002c32:	4002      	ands	r2, r0
 8002c34:	605a      	str	r2, [r3, #4]
 8002c36:	6ada      	ldr	r2, [r3, #44]	; 0x2c
 8002c38:	200f      	movs	r0, #15
 8002c3a:	4382      	bics	r2, r0
 8002c3c:	62da      	str	r2, [r3, #44]	; 0x2c
 8002c3e:	6b1a      	ldr	r2, [r3, #48]	; 0x30
 8002c40:	480b      	ldr	r0, [pc, #44]	; (8002c70 <SystemInit+0x64>)
 8002c42:	4002      	ands	r2, r0
 8002c44:	631a      	str	r2, [r3, #48]	; 0x30
 8002c46:	6b1a      	ldr	r2, [r3, #48]	; 0x30
 8002c48:	2080      	movs	r0, #128	; 0x80
 8002c4a:	4302      	orrs	r2, r0
 8002c4c:	631a      	str	r2, [r3, #48]	; 0x30
 8002c4e:	6b5a      	ldr	r2, [r3, #52]	; 0x34
 8002c50:	438a      	bics	r2, r1
 8002c52:	635a      	str	r2, [r3, #52]	; 0x34
 8002c54:	2200      	movs	r2, #0
 8002c56:	609a      	str	r2, [r3, #8]
 8002c58:	4770      	bx	lr
 8002c5a:	46c0      	nop			; (mov r8, r8)
 8002c5c:	40021000 	.word	0x40021000
 8002c60:	08ffb80c 	.word	0x08ffb80c
 8002c64:	fef6ffff 	.word	0xfef6ffff
 8002c68:	fffbffff 	.word	0xfffbffff
 8002c6c:	ffc0ffff 	.word	0xffc0ffff
 8002c70:	fffffe6c 	.word	0xfffffe6c

08002c74 <MX_USB_DEVICE_Init>:
 8002c74:	b510      	push	{r4, lr}
 8002c76:	2200      	movs	r2, #0
 8002c78:	4911      	ldr	r1, [pc, #68]	; (8002cc0 <MX_USB_DEVICE_Init+0x4c>)
 8002c7a:	4812      	ldr	r0, [pc, #72]	; (8002cc4 <MX_USB_DEVICE_Init+0x50>)
 8002c7c:	f7fe feea 	bl	8001a54 <USBD_Init>
 8002c80:	2800      	cmp	r0, #0
 8002c82:	d111      	bne.n	8002ca8 <MX_USB_DEVICE_Init+0x34>
 8002c84:	4910      	ldr	r1, [pc, #64]	; (8002cc8 <MX_USB_DEVICE_Init+0x54>)
 8002c86:	480f      	ldr	r0, [pc, #60]	; (8002cc4 <MX_USB_DEVICE_Init+0x50>)
 8002c88:	f7fe ff00 	bl	8001a8c <USBD_RegisterClass>
 8002c8c:	2800      	cmp	r0, #0
 8002c8e:	d10e      	bne.n	8002cae <MX_USB_DEVICE_Init+0x3a>
 8002c90:	490e      	ldr	r1, [pc, #56]	; (8002ccc <MX_USB_DEVICE_Init+0x58>)
 8002c92:	480c      	ldr	r0, [pc, #48]	; (8002cc4 <MX_USB_DEVICE_Init+0x50>)
 8002c94:	f7fe fe84 	bl	80019a0 <USBD_CDC_RegisterInterface>
 8002c98:	2800      	cmp	r0, #0
 8002c9a:	d10b      	bne.n	8002cb4 <MX_USB_DEVICE_Init+0x40>
 8002c9c:	4809      	ldr	r0, [pc, #36]	; (8002cc4 <MX_USB_DEVICE_Init+0x50>)
 8002c9e:	f7fe fefe 	bl	8001a9e <USBD_Start>
 8002ca2:	2800      	cmp	r0, #0
 8002ca4:	d109      	bne.n	8002cba <MX_USB_DEVICE_Init+0x46>
 8002ca6:	bd10      	pop	{r4, pc}
 8002ca8:	f7ff ff80 	bl	8002bac <Error_Handler>
 8002cac:	e7ea      	b.n	8002c84 <MX_USB_DEVICE_Init+0x10>
 8002cae:	f7ff ff7d 	bl	8002bac <Error_Handler>
 8002cb2:	e7ed      	b.n	8002c90 <MX_USB_DEVICE_Init+0x1c>
 8002cb4:	f7ff ff7a 	bl	8002bac <Error_Handler>
 8002cb8:	e7f0      	b.n	8002c9c <MX_USB_DEVICE_Init+0x28>
 8002cba:	f7ff ff77 	bl	8002bac <Error_Handler>
 8002cbe:	e7f2      	b.n	8002ca6 <MX_USB_DEVICE_Init+0x32>
 8002cc0:	20000124 	.word	0x20000124
 8002cc4:	200008fc 	.word	0x200008fc
 8002cc8:	20000000 	.word	0x20000000
 8002ccc:	20000114 	.word	0x20000114

08002cd0 <CDC_DeInit_FS>:
 8002cd0:	2000      	movs	r0, #0
 8002cd2:	4770      	bx	lr

08002cd4 <CDC_Control_FS>:
 8002cd4:	2000      	movs	r0, #0
 8002cd6:	4770      	bx	lr

08002cd8 <CDC_Receive_FS>:
 8002cd8:	b570      	push	{r4, r5, r6, lr}
 8002cda:	0005      	movs	r5, r0
 8002cdc:	680e      	ldr	r6, [r1, #0]
 8002cde:	4c13      	ldr	r4, [pc, #76]	; (8002d2c <CDC_Receive_FS+0x54>)
 8002ce0:	0001      	movs	r1, r0
 8002ce2:	0020      	movs	r0, r4
 8002ce4:	f7fe fe70 	bl	80019c8 <USBD_CDC_SetRxBuffer>
 8002ce8:	0020      	movs	r0, r4
 8002cea:	f7fe fe93 	bl	8001a14 <USBD_CDC_ReceivePacket>
 8002cee:	2e00      	cmp	r6, #0
 8002cf0:	d017      	beq.n	8002d22 <CDC_Receive_FS+0x4a>
 8002cf2:	002c      	movs	r4, r5
 8002cf4:	19a8      	adds	r0, r5, r6
 8002cf6:	4d0e      	ldr	r5, [pc, #56]	; (8002d30 <CDC_Receive_FS+0x58>)
 8002cf8:	26ff      	movs	r6, #255	; 0xff
 8002cfa:	002a      	movs	r2, r5
 8002cfc:	682b      	ldr	r3, [r5, #0]
 8002cfe:	6869      	ldr	r1, [r5, #4]
 8002d00:	3301      	adds	r3, #1
 8002d02:	4033      	ands	r3, r6
 8002d04:	428b      	cmp	r3, r1
 8002d06:	d00e      	beq.n	8002d26 <CDC_Receive_FS+0x4e>
 8002d08:	6813      	ldr	r3, [r2, #0]
 8002d0a:	7821      	ldrb	r1, [r4, #0]
 8002d0c:	18d3      	adds	r3, r2, r3
 8002d0e:	7219      	strb	r1, [r3, #8]
 8002d10:	6813      	ldr	r3, [r2, #0]
 8002d12:	3301      	adds	r3, #1
 8002d14:	4033      	ands	r3, r6
 8002d16:	6013      	str	r3, [r2, #0]
 8002d18:	3401      	adds	r4, #1
 8002d1a:	4284      	cmp	r4, r0
 8002d1c:	d1ee      	bne.n	8002cfc <CDC_Receive_FS+0x24>
 8002d1e:	2000      	movs	r0, #0
 8002d20:	e002      	b.n	8002d28 <CDC_Receive_FS+0x50>
 8002d22:	2000      	movs	r0, #0
 8002d24:	e000      	b.n	8002d28 <CDC_Receive_FS+0x50>
 8002d26:	2002      	movs	r0, #2
 8002d28:	bd70      	pop	{r4, r5, r6, pc}
 8002d2a:	46c0      	nop			; (mov r8, r8)
 8002d2c:	200008fc 	.word	0x200008fc
 8002d30:	20000194 	.word	0x20000194

08002d34 <CDC_Init_FS>:
 8002d34:	b510      	push	{r4, lr}
 8002d36:	4c06      	ldr	r4, [pc, #24]	; (8002d50 <CDC_Init_FS+0x1c>)
 8002d38:	2200      	movs	r2, #0
 8002d3a:	4906      	ldr	r1, [pc, #24]	; (8002d54 <CDC_Init_FS+0x20>)
 8002d3c:	0020      	movs	r0, r4
 8002d3e:	f7fe fe38 	bl	80019b2 <USBD_CDC_SetTxBuffer>
 8002d42:	4905      	ldr	r1, [pc, #20]	; (8002d58 <CDC_Init_FS+0x24>)
 8002d44:	0020      	movs	r0, r4
 8002d46:	f7fe fe3f 	bl	80019c8 <USBD_CDC_SetRxBuffer>
 8002d4a:	2000      	movs	r0, #0
 8002d4c:	bd10      	pop	{r4, pc}
 8002d4e:	46c0      	nop			; (mov r8, r8)
 8002d50:	200008fc 	.word	0x200008fc
 8002d54:	20000c20 	.word	0x20000c20
 8002d58:	20000b20 	.word	0x20000b20

08002d5c <CDC_Transmit_FS>:
 8002d5c:	b510      	push	{r4, lr}
 8002d5e:	0003      	movs	r3, r0
 8002d60:	4c09      	ldr	r4, [pc, #36]	; (8002d88 <CDC_Transmit_FS+0x2c>)
 8002d62:	2086      	movs	r0, #134	; 0x86
 8002d64:	0080      	lsls	r0, r0, #2
 8002d66:	5824      	ldr	r4, [r4, r0]
 8002d68:	3804      	subs	r0, #4
 8002d6a:	5824      	ldr	r4, [r4, r0]
 8002d6c:	2001      	movs	r0, #1
 8002d6e:	2c00      	cmp	r4, #0
 8002d70:	d000      	beq.n	8002d74 <CDC_Transmit_FS+0x18>
 8002d72:	bd10      	pop	{r4, pc}
 8002d74:	4c04      	ldr	r4, [pc, #16]	; (8002d88 <CDC_Transmit_FS+0x2c>)
 8002d76:	000a      	movs	r2, r1
 8002d78:	0019      	movs	r1, r3
 8002d7a:	0020      	movs	r0, r4
 8002d7c:	f7fe fe19 	bl	80019b2 <USBD_CDC_SetTxBuffer>
 8002d80:	0020      	movs	r0, r4
 8002d82:	f7fe fe28 	bl	80019d6 <USBD_CDC_TransmitPacket>
 8002d86:	e7f4      	b.n	8002d72 <CDC_Transmit_FS+0x16>
 8002d88:	200008fc 	.word	0x200008fc

08002d8c <USBD_Get_USB_Status>:
 8002d8c:	2800      	cmp	r0, #0
 8002d8e:	d003      	beq.n	8002d98 <USBD_Get_USB_Status+0xc>
 8002d90:	3802      	subs	r0, #2
 8002d92:	1e43      	subs	r3, r0, #1
 8002d94:	4198      	sbcs	r0, r3
 8002d96:	3001      	adds	r0, #1
 8002d98:	4770      	bx	lr
	...

08002d9c <HAL_PCD_MspInit>:
 8002d9c:	b500      	push	{lr}
 8002d9e:	b083      	sub	sp, #12
 8002da0:	4b0c      	ldr	r3, [pc, #48]	; (8002dd4 <HAL_PCD_MspInit+0x38>)
 8002da2:	6802      	ldr	r2, [r0, #0]
 8002da4:	429a      	cmp	r2, r3
 8002da6:	d001      	beq.n	8002dac <HAL_PCD_MspInit+0x10>
 8002da8:	b003      	add	sp, #12
 8002daa:	bd00      	pop	{pc}
 8002dac:	4a0a      	ldr	r2, [pc, #40]	; (8002dd8 <HAL_PCD_MspInit+0x3c>)
 8002dae:	69d1      	ldr	r1, [r2, #28]
 8002db0:	2080      	movs	r0, #128	; 0x80
 8002db2:	0400      	lsls	r0, r0, #16
 8002db4:	4301      	orrs	r1, r0
 8002db6:	61d1      	str	r1, [r2, #28]
 8002db8:	69d3      	ldr	r3, [r2, #28]
 8002dba:	4003      	ands	r3, r0
 8002dbc:	9301      	str	r3, [sp, #4]
 8002dbe:	9b01      	ldr	r3, [sp, #4]
 8002dc0:	2200      	movs	r2, #0
 8002dc2:	2100      	movs	r1, #0
 8002dc4:	201f      	movs	r0, #31
 8002dc6:	f7fd fa55 	bl	8000274 <HAL_NVIC_SetPriority>
 8002dca:	201f      	movs	r0, #31
 8002dcc:	f7fd fa84 	bl	80002d8 <HAL_NVIC_EnableIRQ>
 8002dd0:	e7ea      	b.n	8002da8 <HAL_PCD_MspInit+0xc>
 8002dd2:	46c0      	nop			; (mov r8, r8)
 8002dd4:	40005c00 	.word	0x40005c00
 8002dd8:	40021000 	.word	0x40021000

08002ddc <HAL_PCD_SetupStageCallback>:
 8002ddc:	b510      	push	{r4, lr}
 8002dde:	0001      	movs	r1, r0
 8002de0:	31ed      	adds	r1, #237	; 0xed
 8002de2:	31ff      	adds	r1, #255	; 0xff
 8002de4:	2387      	movs	r3, #135	; 0x87
 8002de6:	009b      	lsls	r3, r3, #2
 8002de8:	58c0      	ldr	r0, [r0, r3]
 8002dea:	f7fe fe75 	bl	8001ad8 <USBD_LL_SetupStage>
 8002dee:	bd10      	pop	{r4, pc}

08002df0 <HAL_PCD_DataOutStageCallback>:
 8002df0:	b510      	push	{r4, lr}
 8002df2:	00cb      	lsls	r3, r1, #3
 8002df4:	1a5b      	subs	r3, r3, r1
 8002df6:	009b      	lsls	r3, r3, #2
 8002df8:	18c3      	adds	r3, r0, r3
 8002dfa:	3319      	adds	r3, #25
 8002dfc:	33ff      	adds	r3, #255	; 0xff
 8002dfe:	681a      	ldr	r2, [r3, #0]
 8002e00:	2387      	movs	r3, #135	; 0x87
 8002e02:	009b      	lsls	r3, r3, #2
 8002e04:	58c0      	ldr	r0, [r0, r3]
 8002e06:	f7fe fe9b 	bl	8001b40 <USBD_LL_DataOutStage>
 8002e0a:	bd10      	pop	{r4, pc}

08002e0c <HAL_PCD_DataInStageCallback>:
 8002e0c:	b510      	push	{r4, lr}
 8002e0e:	00cb      	lsls	r3, r1, #3
 8002e10:	1a5b      	subs	r3, r3, r1
 8002e12:	009b      	lsls	r3, r3, #2
 8002e14:	18c3      	adds	r3, r0, r3
 8002e16:	6b9a      	ldr	r2, [r3, #56]	; 0x38
 8002e18:	2387      	movs	r3, #135	; 0x87
 8002e1a:	009b      	lsls	r3, r3, #2
 8002e1c:	58c0      	ldr	r0, [r0, r3]
 8002e1e:	f7fe fecc 	bl	8001bba <USBD_LL_DataInStage>
 8002e22:	bd10      	pop	{r4, pc}

08002e24 <HAL_PCD_SOFCallback>:
 8002e24:	b510      	push	{r4, lr}
 8002e26:	2387      	movs	r3, #135	; 0x87
 8002e28:	009b      	lsls	r3, r3, #2
 8002e2a:	58c0      	ldr	r0, [r0, r3]
 8002e2c:	f7fe ff5f 	bl	8001cee <USBD_LL_SOF>
 8002e30:	bd10      	pop	{r4, pc}

08002e32 <HAL_PCD_ResetCallback>:
 8002e32:	b570      	push	{r4, r5, r6, lr}
 8002e34:	0004      	movs	r4, r0
 8002e36:	6883      	ldr	r3, [r0, #8]
 8002e38:	2b02      	cmp	r3, #2
 8002e3a:	d109      	bne.n	8002e50 <HAL_PCD_ResetCallback+0x1e>
 8002e3c:	2587      	movs	r5, #135	; 0x87
 8002e3e:	00ad      	lsls	r5, r5, #2
 8002e40:	2101      	movs	r1, #1
 8002e42:	5960      	ldr	r0, [r4, r5]
 8002e44:	f7fe ff3e 	bl	8001cc4 <USBD_LL_SetSpeed>
 8002e48:	5960      	ldr	r0, [r4, r5]
 8002e4a:	f7fe ff18 	bl	8001c7e <USBD_LL_Reset>
 8002e4e:	bd70      	pop	{r4, r5, r6, pc}
 8002e50:	f7ff feac 	bl	8002bac <Error_Handler>
 8002e54:	e7f2      	b.n	8002e3c <HAL_PCD_ResetCallback+0xa>
	...

08002e58 <HAL_PCD_SuspendCallback>:
 8002e58:	b510      	push	{r4, lr}
 8002e5a:	0004      	movs	r4, r0
 8002e5c:	2387      	movs	r3, #135	; 0x87
 8002e5e:	009b      	lsls	r3, r3, #2
 8002e60:	58c0      	ldr	r0, [r0, r3]
 8002e62:	f7fe ff32 	bl	8001cca <USBD_LL_Suspend>
 8002e66:	69a3      	ldr	r3, [r4, #24]
 8002e68:	2b00      	cmp	r3, #0
 8002e6a:	d004      	beq.n	8002e76 <HAL_PCD_SuspendCallback+0x1e>
 8002e6c:	4a02      	ldr	r2, [pc, #8]	; (8002e78 <HAL_PCD_SuspendCallback+0x20>)
 8002e6e:	6913      	ldr	r3, [r2, #16]
 8002e70:	2106      	movs	r1, #6
 8002e72:	430b      	orrs	r3, r1
 8002e74:	6113      	str	r3, [r2, #16]
 8002e76:	bd10      	pop	{r4, pc}
 8002e78:	e000ed00 	.word	0xe000ed00

08002e7c <HAL_PCD_ResumeCallback>:
 8002e7c:	b510      	push	{r4, lr}
 8002e7e:	0004      	movs	r4, r0
 8002e80:	6983      	ldr	r3, [r0, #24]
 8002e82:	2b00      	cmp	r3, #0
 8002e84:	d105      	bne.n	8002e92 <HAL_PCD_ResumeCallback+0x16>
 8002e86:	2387      	movs	r3, #135	; 0x87
 8002e88:	009b      	lsls	r3, r3, #2
 8002e8a:	58e0      	ldr	r0, [r4, r3]
 8002e8c:	f7fe ff28 	bl	8001ce0 <USBD_LL_Resume>
 8002e90:	bd10      	pop	{r4, pc}
 8002e92:	4a04      	ldr	r2, [pc, #16]	; (8002ea4 <HAL_PCD_ResumeCallback+0x28>)
 8002e94:	6913      	ldr	r3, [r2, #16]
 8002e96:	2106      	movs	r1, #6
 8002e98:	438b      	bics	r3, r1
 8002e9a:	6113      	str	r3, [r2, #16]
 8002e9c:	f7ff fbca 	bl	8002634 <SystemClock_Config>
 8002ea0:	e7f1      	b.n	8002e86 <HAL_PCD_ResumeCallback+0xa>
 8002ea2:	46c0      	nop			; (mov r8, r8)
 8002ea4:	e000ed00 	.word	0xe000ed00

08002ea8 <USBD_LL_Init>:
 8002ea8:	b570      	push	{r4, r5, r6, lr}
 8002eaa:	0004      	movs	r4, r0
 8002eac:	481d      	ldr	r0, [pc, #116]	; (8002f24 <USBD_LL_Init+0x7c>)
 8002eae:	2387      	movs	r3, #135	; 0x87
 8002eb0:	009b      	lsls	r3, r3, #2
 8002eb2:	50c4      	str	r4, [r0, r3]
 8002eb4:	3304      	adds	r3, #4
 8002eb6:	50e0      	str	r0, [r4, r3]
 8002eb8:	4b1b      	ldr	r3, [pc, #108]	; (8002f28 <USBD_LL_Init+0x80>)
 8002eba:	6003      	str	r3, [r0, #0]
 8002ebc:	2308      	movs	r3, #8
 8002ebe:	6043      	str	r3, [r0, #4]
 8002ec0:	3b06      	subs	r3, #6
 8002ec2:	6083      	str	r3, [r0, #8]
 8002ec4:	6103      	str	r3, [r0, #16]
 8002ec6:	2300      	movs	r3, #0
 8002ec8:	6183      	str	r3, [r0, #24]
 8002eca:	61c3      	str	r3, [r0, #28]
 8002ecc:	6203      	str	r3, [r0, #32]
 8002ece:	f7fd fb15 	bl	80004fc <HAL_PCD_Init>
 8002ed2:	2800      	cmp	r0, #0
 8002ed4:	d123      	bne.n	8002f1e <USBD_LL_Init+0x76>
 8002ed6:	2588      	movs	r5, #136	; 0x88
 8002ed8:	00ad      	lsls	r5, r5, #2
 8002eda:	2318      	movs	r3, #24
 8002edc:	2200      	movs	r2, #0
 8002ede:	2100      	movs	r1, #0
 8002ee0:	5960      	ldr	r0, [r4, r5]
 8002ee2:	f7fe fc13 	bl	800170c <HAL_PCDEx_PMAConfig>
 8002ee6:	2358      	movs	r3, #88	; 0x58
 8002ee8:	2200      	movs	r2, #0
 8002eea:	2180      	movs	r1, #128	; 0x80
 8002eec:	5960      	ldr	r0, [r4, r5]
 8002eee:	f7fe fc0d 	bl	800170c <HAL_PCDEx_PMAConfig>
 8002ef2:	23c0      	movs	r3, #192	; 0xc0
 8002ef4:	2200      	movs	r2, #0
 8002ef6:	2181      	movs	r1, #129	; 0x81
 8002ef8:	5960      	ldr	r0, [r4, r5]
 8002efa:	f7fe fc07 	bl	800170c <HAL_PCDEx_PMAConfig>
 8002efe:	2388      	movs	r3, #136	; 0x88
 8002f00:	005b      	lsls	r3, r3, #1
 8002f02:	2200      	movs	r2, #0
 8002f04:	2101      	movs	r1, #1
 8002f06:	5960      	ldr	r0, [r4, r5]
 8002f08:	f7fe fc00 	bl	800170c <HAL_PCDEx_PMAConfig>
 8002f0c:	2380      	movs	r3, #128	; 0x80
 8002f0e:	5960      	ldr	r0, [r4, r5]
 8002f10:	005b      	lsls	r3, r3, #1
 8002f12:	2200      	movs	r2, #0
 8002f14:	2182      	movs	r1, #130	; 0x82
 8002f16:	f7fe fbf9 	bl	800170c <HAL_PCDEx_PMAConfig>
 8002f1a:	2000      	movs	r0, #0
 8002f1c:	bd70      	pop	{r4, r5, r6, pc}
 8002f1e:	f7ff fe45 	bl	8002bac <Error_Handler>
 8002f22:	e7d8      	b.n	8002ed6 <USBD_LL_Init+0x2e>
 8002f24:	20000d20 	.word	0x20000d20
 8002f28:	40005c00 	.word	0x40005c00

08002f2c <USBD_LL_Start>:
 8002f2c:	b510      	push	{r4, lr}
 8002f2e:	2388      	movs	r3, #136	; 0x88
 8002f30:	009b      	lsls	r3, r3, #2
 8002f32:	58c0      	ldr	r0, [r0, r3]
 8002f34:	f7fd fb34 	bl	80005a0 <HAL_PCD_Start>
 8002f38:	f7ff ff28 	bl	8002d8c <USBD_Get_USB_Status>
 8002f3c:	bd10      	pop	{r4, pc}

08002f3e <USBD_LL_OpenEP>:
 8002f3e:	b510      	push	{r4, lr}
 8002f40:	0014      	movs	r4, r2
 8002f42:	001a      	movs	r2, r3
 8002f44:	2388      	movs	r3, #136	; 0x88
 8002f46:	009b      	lsls	r3, r3, #2
 8002f48:	58c0      	ldr	r0, [r0, r3]
 8002f4a:	0023      	movs	r3, r4
 8002f4c:	f7fd fb4c 	bl	80005e8 <HAL_PCD_EP_Open>
 8002f50:	f7ff ff1c 	bl	8002d8c <USBD_Get_USB_Status>
 8002f54:	bd10      	pop	{r4, pc}

08002f56 <USBD_LL_CloseEP>:
 8002f56:	b510      	push	{r4, lr}
 8002f58:	2388      	movs	r3, #136	; 0x88
 8002f5a:	009b      	lsls	r3, r3, #2
 8002f5c:	58c0      	ldr	r0, [r0, r3]
 8002f5e:	f7fd fccb 	bl	80008f8 <HAL_PCD_EP_Close>
 8002f62:	f7ff ff13 	bl	8002d8c <USBD_Get_USB_Status>
 8002f66:	bd10      	pop	{r4, pc}

08002f68 <USBD_LL_StallEP>:
 8002f68:	b510      	push	{r4, lr}
 8002f6a:	2388      	movs	r3, #136	; 0x88
 8002f6c:	009b      	lsls	r3, r3, #2
 8002f6e:	58c0      	ldr	r0, [r0, r3]
 8002f70:	f7fd fec6 	bl	8000d00 <HAL_PCD_EP_SetStall>
 8002f74:	f7ff ff0a 	bl	8002d8c <USBD_Get_USB_Status>
 8002f78:	bd10      	pop	{r4, pc}

08002f7a <USBD_LL_ClearStallEP>:
 8002f7a:	b510      	push	{r4, lr}
 8002f7c:	2388      	movs	r3, #136	; 0x88
 8002f7e:	009b      	lsls	r3, r3, #2
 8002f80:	58c0      	ldr	r0, [r0, r3]
 8002f82:	f7fd ff23 	bl	8000dcc <HAL_PCD_EP_ClrStall>
 8002f86:	f7ff ff01 	bl	8002d8c <USBD_Get_USB_Status>
 8002f8a:	bd10      	pop	{r4, pc}

08002f8c <USBD_LL_IsStallEP>:
 8002f8c:	2388      	movs	r3, #136	; 0x88
 8002f8e:	009b      	lsls	r3, r3, #2
 8002f90:	58c3      	ldr	r3, [r0, r3]
 8002f92:	b24a      	sxtb	r2, r1
 8002f94:	2a00      	cmp	r2, #0
 8002f96:	db09      	blt.n	8002fac <USBD_LL_IsStallEP+0x20>
 8002f98:	227f      	movs	r2, #127	; 0x7f
 8002f9a:	4011      	ands	r1, r2
 8002f9c:	00ca      	lsls	r2, r1, #3
 8002f9e:	1a51      	subs	r1, r2, r1
 8002fa0:	0089      	lsls	r1, r1, #2
 8002fa2:	185b      	adds	r3, r3, r1
 8002fa4:	330b      	adds	r3, #11
 8002fa6:	33ff      	adds	r3, #255	; 0xff
 8002fa8:	7818      	ldrb	r0, [r3, #0]
 8002faa:	4770      	bx	lr
 8002fac:	227f      	movs	r2, #127	; 0x7f
 8002fae:	4011      	ands	r1, r2
 8002fb0:	00ca      	lsls	r2, r1, #3
 8002fb2:	1a51      	subs	r1, r2, r1
 8002fb4:	0089      	lsls	r1, r1, #2
 8002fb6:	185b      	adds	r3, r3, r1
 8002fb8:	332a      	adds	r3, #42	; 0x2a
 8002fba:	7818      	ldrb	r0, [r3, #0]
 8002fbc:	e7f5      	b.n	8002faa <USBD_LL_IsStallEP+0x1e>

08002fbe <USBD_LL_SetUSBAddress>:
 8002fbe:	b510      	push	{r4, lr}
 8002fc0:	2388      	movs	r3, #136	; 0x88
 8002fc2:	009b      	lsls	r3, r3, #2
 8002fc4:	58c0      	ldr	r0, [r0, r3]
 8002fc6:	f7fd faf4 	bl	80005b2 <HAL_PCD_SetAddress>
 8002fca:	f7ff fedf 	bl	8002d8c <USBD_Get_USB_Status>
 8002fce:	bd10      	pop	{r4, pc}

08002fd0 <USBD_LL_Transmit>:
 8002fd0:	b510      	push	{r4, lr}
 8002fd2:	2488      	movs	r4, #136	; 0x88
 8002fd4:	00a4      	lsls	r4, r4, #2
 8002fd6:	5900      	ldr	r0, [r0, r4]
 8002fd8:	f7fd ff7a 	bl	8000ed0 <HAL_PCD_EP_Transmit>
 8002fdc:	f7ff fed6 	bl	8002d8c <USBD_Get_USB_Status>
 8002fe0:	bd10      	pop	{r4, pc}

08002fe2 <USBD_LL_PrepareReceive>:
 8002fe2:	b510      	push	{r4, lr}
 8002fe4:	2488      	movs	r4, #136	; 0x88
 8002fe6:	00a4      	lsls	r4, r4, #2
 8002fe8:	5900      	ldr	r0, [r0, r4]
 8002fea:	f7fd fd57 	bl	8000a9c <HAL_PCD_EP_Receive>
 8002fee:	f7ff fecd 	bl	8002d8c <USBD_Get_USB_Status>
 8002ff2:	bd10      	pop	{r4, pc}

08002ff4 <USBD_LL_GetRxDataSize>:
 8002ff4:	b510      	push	{r4, lr}
 8002ff6:	2388      	movs	r3, #136	; 0x88
 8002ff8:	009b      	lsls	r3, r3, #2
 8002ffa:	58c0      	ldr	r0, [r0, r3]
 8002ffc:	f7fd fe74 	bl	8000ce8 <HAL_PCD_EP_GetRxCount>
 8003000:	bd10      	pop	{r4, pc}
	...

08003004 <USBD_static_malloc>:
 8003004:	4800      	ldr	r0, [pc, #0]	; (8003008 <USBD_static_malloc+0x4>)
 8003006:	4770      	bx	lr
 8003008:	200002ac 	.word	0x200002ac

0800300c <USBD_static_free>:
 800300c:	4770      	bx	lr
	...

08003010 <USBD_FS_DeviceDescriptor>:
 8003010:	2312      	movs	r3, #18
 8003012:	800b      	strh	r3, [r1, #0]
 8003014:	4800      	ldr	r0, [pc, #0]	; (8003018 <USBD_FS_DeviceDescriptor+0x8>)
 8003016:	4770      	bx	lr
 8003018:	20000140 	.word	0x20000140

0800301c <USBD_FS_LangIDStrDescriptor>:
 800301c:	2304      	movs	r3, #4
 800301e:	800b      	strh	r3, [r1, #0]
 8003020:	4800      	ldr	r0, [pc, #0]	; (8003024 <USBD_FS_LangIDStrDescriptor+0x8>)
 8003022:	4770      	bx	lr
 8003024:	20000154 	.word	0x20000154

08003028 <USBD_FS_ProductStrDescriptor>:
 8003028:	2327      	movs	r3, #39	; 0x27
 800302a:	800b      	strh	r3, [r1, #0]
 800302c:	4800      	ldr	r0, [pc, #0]	; (8003030 <USBD_FS_ProductStrDescriptor+0x8>)
 800302e:	4770      	bx	lr
 8003030:	08003328 	.word	0x08003328

08003034 <USBD_FS_ManufacturerStrDescriptor>:
 8003034:	2329      	movs	r3, #41	; 0x29
 8003036:	800b      	strh	r3, [r1, #0]
 8003038:	4800      	ldr	r0, [pc, #0]	; (800303c <USBD_FS_ManufacturerStrDescriptor+0x8>)
 800303a:	4770      	bx	lr
 800303c:	080032fc 	.word	0x080032fc

08003040 <USBD_FS_ConfigStrDescriptor>:
 8003040:	2317      	movs	r3, #23
 8003042:	800b      	strh	r3, [r1, #0]
 8003044:	4800      	ldr	r0, [pc, #0]	; (8003048 <USBD_FS_ConfigStrDescriptor+0x8>)
 8003046:	4770      	bx	lr
 8003048:	080032c4 	.word	0x080032c4

0800304c <USBD_FS_InterfaceStrDescriptor>:
 800304c:	231d      	movs	r3, #29
 800304e:	800b      	strh	r3, [r1, #0]
 8003050:	4800      	ldr	r0, [pc, #0]	; (8003054 <USBD_FS_InterfaceStrDescriptor+0x8>)
 8003052:	4770      	bx	lr
 8003054:	080032dc 	.word	0x080032dc

08003058 <IntToUnicode>:
 8003058:	b510      	push	{r4, lr}
 800305a:	0054      	lsls	r4, r2, #1
 800305c:	2a00      	cmp	r2, #0
 800305e:	d010      	beq.n	8003082 <IntToUnicode+0x2a>
 8003060:	000b      	movs	r3, r1
 8003062:	1909      	adds	r1, r1, r4
 8003064:	2400      	movs	r4, #0
 8003066:	e006      	b.n	8003076 <IntToUnicode+0x1e>
 8003068:	3237      	adds	r2, #55	; 0x37
 800306a:	701a      	strb	r2, [r3, #0]
 800306c:	705c      	strb	r4, [r3, #1]
 800306e:	0100      	lsls	r0, r0, #4
 8003070:	3302      	adds	r3, #2
 8003072:	428b      	cmp	r3, r1
 8003074:	d005      	beq.n	8003082 <IntToUnicode+0x2a>
 8003076:	0f02      	lsrs	r2, r0, #28
 8003078:	2a09      	cmp	r2, #9
 800307a:	d8f5      	bhi.n	8003068 <IntToUnicode+0x10>
 800307c:	3230      	adds	r2, #48	; 0x30
 800307e:	701a      	strb	r2, [r3, #0]
 8003080:	e7f4      	b.n	800306c <IntToUnicode+0x14>
 8003082:	bd10      	pop	{r4, pc}

08003084 <USBD_FS_SerialStrDescriptor>:
 8003084:	b570      	push	{r4, r5, r6, lr}
 8003086:	231a      	movs	r3, #26
 8003088:	800b      	strh	r3, [r1, #0]
 800308a:	4b0b      	ldr	r3, [pc, #44]	; (80030b8 <USBD_FS_SerialStrDescriptor+0x34>)
 800308c:	6818      	ldr	r0, [r3, #0]
 800308e:	4b0b      	ldr	r3, [pc, #44]	; (80030bc <USBD_FS_SerialStrDescriptor+0x38>)
 8003090:	681b      	ldr	r3, [r3, #0]
 8003092:	18c0      	adds	r0, r0, r3
 8003094:	2800      	cmp	r0, #0
 8003096:	d101      	bne.n	800309c <USBD_FS_SerialStrDescriptor+0x18>
 8003098:	4809      	ldr	r0, [pc, #36]	; (80030c0 <USBD_FS_SerialStrDescriptor+0x3c>)
 800309a:	bd70      	pop	{r4, r5, r6, pc}
 800309c:	4b09      	ldr	r3, [pc, #36]	; (80030c4 <USBD_FS_SerialStrDescriptor+0x40>)
 800309e:	681d      	ldr	r5, [r3, #0]
 80030a0:	4c07      	ldr	r4, [pc, #28]	; (80030c0 <USBD_FS_SerialStrDescriptor+0x3c>)
 80030a2:	1ca1      	adds	r1, r4, #2
 80030a4:	2208      	movs	r2, #8
 80030a6:	f7ff ffd7 	bl	8003058 <IntToUnicode>
 80030aa:	0021      	movs	r1, r4
 80030ac:	3112      	adds	r1, #18
 80030ae:	2204      	movs	r2, #4
 80030b0:	0028      	movs	r0, r5
 80030b2:	f7ff ffd1 	bl	8003058 <IntToUnicode>
 80030b6:	e7ef      	b.n	8003098 <USBD_FS_SerialStrDescriptor+0x14>
 80030b8:	1ffff7ac 	.word	0x1ffff7ac
 80030bc:	1ffff7b4 	.word	0x1ffff7b4
 80030c0:	20000158 	.word	0x20000158
 80030c4:	1ffff7b0 	.word	0x1ffff7b0

080030c8 <Reset_Handler>:
 80030c8:	4813      	ldr	r0, [pc, #76]	; (8003118 <LoopForever+0x2>)
 80030ca:	4685      	mov	sp, r0
 80030cc:	4813      	ldr	r0, [pc, #76]	; (800311c <LoopForever+0x6>)
 80030ce:	6801      	ldr	r1, [r0, #0]
 80030d0:	0e09      	lsrs	r1, r1, #24
 80030d2:	4a13      	ldr	r2, [pc, #76]	; (8003120 <LoopForever+0xa>)
 80030d4:	4291      	cmp	r1, r2
 80030d6:	d105      	bne.n	80030e4 <ApplicationStart>
 80030d8:	4812      	ldr	r0, [pc, #72]	; (8003124 <LoopForever+0xe>)
 80030da:	4913      	ldr	r1, [pc, #76]	; (8003128 <LoopForever+0x12>)
 80030dc:	6001      	str	r1, [r0, #0]
 80030de:	4813      	ldr	r0, [pc, #76]	; (800312c <LoopForever+0x16>)
 80030e0:	4913      	ldr	r1, [pc, #76]	; (8003130 <LoopForever+0x1a>)
 80030e2:	6001      	str	r1, [r0, #0]

080030e4 <ApplicationStart>:
 80030e4:	4813      	ldr	r0, [pc, #76]	; (8003134 <LoopForever+0x1e>)
 80030e6:	4914      	ldr	r1, [pc, #80]	; (8003138 <LoopForever+0x22>)
 80030e8:	4a14      	ldr	r2, [pc, #80]	; (800313c <LoopForever+0x26>)
 80030ea:	2300      	movs	r3, #0
 80030ec:	e002      	b.n	80030f4 <LoopCopyDataInit>

080030ee <CopyDataInit>:
 80030ee:	58d4      	ldr	r4, [r2, r3]
 80030f0:	50c4      	str	r4, [r0, r3]
 80030f2:	3304      	adds	r3, #4

080030f4 <LoopCopyDataInit>:
 80030f4:	18c4      	adds	r4, r0, r3
 80030f6:	428c      	cmp	r4, r1
 80030f8:	d3f9      	bcc.n	80030ee <CopyDataInit>
 80030fa:	4a11      	ldr	r2, [pc, #68]	; (8003140 <LoopForever+0x2a>)
 80030fc:	4c11      	ldr	r4, [pc, #68]	; (8003144 <LoopForever+0x2e>)
 80030fe:	2300      	movs	r3, #0
 8003100:	e001      	b.n	8003106 <LoopFillZerobss>

08003102 <FillZerobss>:
 8003102:	6013      	str	r3, [r2, #0]
 8003104:	3204      	adds	r2, #4

08003106 <LoopFillZerobss>:
 8003106:	42a2      	cmp	r2, r4
 8003108:	d3fb      	bcc.n	8003102 <FillZerobss>
 800310a:	f7ff fd7f 	bl	8002c0c <SystemInit>
 800310e:	f000 f81d 	bl	800314c <__libc_init_array>
 8003112:	f7ff faed 	bl	80026f0 <main>

08003116 <LoopForever>:
 8003116:	e7fe      	b.n	8003116 <LoopForever>
 8003118:	200017ff 	.word	0x200017ff
 800311c:	00000004 	.word	0x00000004
 8003120:	0000001f 	.word	0x0000001f
 8003124:	40021018 	.word	0x40021018
 8003128:	00000001 	.word	0x00000001
 800312c:	40010000 	.word	0x40010000
 8003130:	00000000 	.word	0x00000000
 8003134:	20000000 	.word	0x20000000
 8003138:	20000174 	.word	0x20000174
 800313c:	08003358 	.word	0x08003358
 8003140:	20000174 	.word	0x20000174
 8003144:	20000f40 	.word	0x20000f40

08003148 <ADC1_IRQHandler>:
 8003148:	e7fe      	b.n	8003148 <ADC1_IRQHandler>
	...

0800314c <__libc_init_array>:
 800314c:	b570      	push	{r4, r5, r6, lr}
 800314e:	2600      	movs	r6, #0
 8003150:	4d0c      	ldr	r5, [pc, #48]	; (8003184 <__libc_init_array+0x38>)
 8003152:	4c0d      	ldr	r4, [pc, #52]	; (8003188 <__libc_init_array+0x3c>)
 8003154:	1b64      	subs	r4, r4, r5
 8003156:	10a4      	asrs	r4, r4, #2
 8003158:	42a6      	cmp	r6, r4
 800315a:	d109      	bne.n	8003170 <__libc_init_array+0x24>
 800315c:	2600      	movs	r6, #0
 800315e:	f000 f819 	bl	8003194 <_init>
 8003162:	4d0a      	ldr	r5, [pc, #40]	; (800318c <__libc_init_array+0x40>)
 8003164:	4c0a      	ldr	r4, [pc, #40]	; (8003190 <__libc_init_array+0x44>)
 8003166:	1b64      	subs	r4, r4, r5
 8003168:	10a4      	asrs	r4, r4, #2
 800316a:	42a6      	cmp	r6, r4
 800316c:	d105      	bne.n	800317a <__libc_init_array+0x2e>
 800316e:	bd70      	pop	{r4, r5, r6, pc}
 8003170:	00b3      	lsls	r3, r6, #2
 8003172:	58eb      	ldr	r3, [r5, r3]
 8003174:	4798      	blx	r3
 8003176:	3601      	adds	r6, #1
 8003178:	e7ee      	b.n	8003158 <__libc_init_array+0xc>
 800317a:	00b3      	lsls	r3, r6, #2
 800317c:	58eb      	ldr	r3, [r5, r3]
 800317e:	4798      	blx	r3
 8003180:	3601      	adds	r6, #1
 8003182:	e7f2      	b.n	800316a <__libc_init_array+0x1e>
 8003184:	08003350 	.word	0x08003350
 8003188:	08003350 	.word	0x08003350
 800318c:	08003350 	.word	0x08003350
 8003190:	08003354 	.word	0x08003354

08003194 <_init>:
 8003194:	b5f8      	push	{r3, r4, r5, r6, r7, lr}
 8003196:	46c0      	nop			; (mov r8, r8)
 8003198:	bcf8      	pop	{r3, r4, r5, r6, r7}
 800319a:	bc08      	pop	{r3}
 800319c:	469e      	mov	lr, r3
 800319e:	4770      	bx	lr

080031a0 <_fini>:
 80031a0:	b5f8      	push	{r3, r4, r5, r6, r7, lr}
 80031a2:	46c0      	nop			; (mov r8, r8)
 80031a4:	bcf8      	pop	{r3, r4, r5, r6, r7}
 80031a6:	bc08      	pop	{r3}
 80031a8:	469e      	mov	lr, r3
 80031aa:	4770      	bx	lr
