
ESLBlaster.elf:     file format elf32-littlearm

Sections:
Idx Name          Size      VMA       LMA       File off  Algn
  0 .isr_vector   000000c0  08000000  08000000  00010000  2**0
                  CONTENTS, ALLOC, LOAD, READONLY, DATA
  1 .text         0000301c  080000c0  080000c0  000100c0  2**2
                  CONTENTS, ALLOC, LOAD, READONLY, CODE
  2 .flash_data_array 00000242  08007c00  08007c00  00027c00  2**2
                  ALLOC
  3 .rodata       00000124  080030dc  080030dc  000130dc  2**2
                  CONTENTS, ALLOC, LOAD, READONLY, DATA
  4 .ARM.extab    00000000  08003200  08003200  00020174  2**0
                  CONTENTS
  5 .ARM          00000000  08003200  08003200  00020174  2**0
                  CONTENTS
  6 .preinit_array 00000000  08003200  08003200  00020174  2**0
                  CONTENTS, ALLOC, LOAD, DATA
  7 .init_array   00000004  08003200  08003200  00013200  2**2
                  CONTENTS, ALLOC, LOAD, DATA
  8 .fini_array   00000004  08003204  08003204  00013204  2**2
                  CONTENTS, ALLOC, LOAD, DATA
  9 .data         00000174  20000000  08003208  00020000  2**2
                  CONTENTS, ALLOC, LOAD, DATA
 10 .bss          00000dc8  20000174  0800337c  00020174  2**2
                  ALLOC
 11 ._user_heap_stack 00000584  20000f3c  0800337c  00020f3c  2**0
                  ALLOC
 12 .ARM.attributes 00000028  00000000  00000000  00020174  2**0
                  CONTENTS, READONLY
 13 .comment      0000007b  00000000  00000000  0002019c  2**0
                  CONTENTS, READONLY
 14 .debug_frame  0000004c  00000000  00000000  00020218  2**2
                  CONTENTS, READONLY, DEBUGGING

Disassembly of section .text:

080000c0 <__do_global_dtors_aux>:
 80000c0:	b510      	push	{r4, lr}
 80000c2:	4c06      	ldr	r4, [pc, #24]	; (80000dc <__do_global_dtors_aux+0x1c>)
 80000c4:	7823      	ldrb	r3, [r4, #0]
 80000c6:	2b00      	cmp	r3, #0
 80000c8:	d107      	bne.n	80000da <__do_global_dtors_aux+0x1a>
 80000ca:	4b05      	ldr	r3, [pc, #20]	; (80000e0 <__do_global_dtors_aux+0x20>)
 80000cc:	2b00      	cmp	r3, #0
 80000ce:	d002      	beq.n	80000d6 <__do_global_dtors_aux+0x16>
 80000d0:	4804      	ldr	r0, [pc, #16]	; (80000e4 <__do_global_dtors_aux+0x24>)
 80000d2:	e000      	b.n	80000d6 <__do_global_dtors_aux+0x16>
 80000d4:	bf00      	nop
 80000d6:	2301      	movs	r3, #1
 80000d8:	7023      	strb	r3, [r4, #0]
 80000da:	bd10      	pop	{r4, pc}
 80000dc:	20000174 	.word	0x20000174
 80000e0:	00000000 	.word	0x00000000
 80000e4:	080030c4 	.word	0x080030c4

080000e8 <frame_dummy>:
 80000e8:	4b04      	ldr	r3, [pc, #16]	; (80000fc <frame_dummy+0x14>)
 80000ea:	b510      	push	{r4, lr}
 80000ec:	2b00      	cmp	r3, #0
 80000ee:	d003      	beq.n	80000f8 <frame_dummy+0x10>
 80000f0:	4903      	ldr	r1, [pc, #12]	; (8000100 <frame_dummy+0x18>)
 80000f2:	4804      	ldr	r0, [pc, #16]	; (8000104 <frame_dummy+0x1c>)
 80000f4:	e000      	b.n	80000f8 <frame_dummy+0x10>
 80000f6:	bf00      	nop
 80000f8:	bd10      	pop	{r4, pc}
 80000fa:	46c0      	nop			; (mov r8, r8)
 80000fc:	00000000 	.word	0x00000000
 8000100:	20000178 	.word	0x20000178
 8000104:	080030c4 	.word	0x080030c4

08000108 <__udivsi3>:
 8000108:	2200      	movs	r2, #0
 800010a:	0843      	lsrs	r3, r0, #1
 800010c:	428b      	cmp	r3, r1
 800010e:	d374      	bcc.n	80001fa <__udivsi3+0xf2>
 8000110:	0903      	lsrs	r3, r0, #4
 8000112:	428b      	cmp	r3, r1
 8000114:	d35f      	bcc.n	80001d6 <__udivsi3+0xce>
 8000116:	0a03      	lsrs	r3, r0, #8
 8000118:	428b      	cmp	r3, r1
 800011a:	d344      	bcc.n	80001a6 <__udivsi3+0x9e>
 800011c:	0b03      	lsrs	r3, r0, #12
 800011e:	428b      	cmp	r3, r1
 8000120:	d328      	bcc.n	8000174 <__udivsi3+0x6c>
 8000122:	0c03      	lsrs	r3, r0, #16
 8000124:	428b      	cmp	r3, r1
 8000126:	d30d      	bcc.n	8000144 <__udivsi3+0x3c>
 8000128:	22ff      	movs	r2, #255	; 0xff
 800012a:	0209      	lsls	r1, r1, #8
 800012c:	ba12      	rev	r2, r2
 800012e:	0c03      	lsrs	r3, r0, #16
 8000130:	428b      	cmp	r3, r1
 8000132:	d302      	bcc.n	800013a <__udivsi3+0x32>
 8000134:	1212      	asrs	r2, r2, #8
 8000136:	0209      	lsls	r1, r1, #8
 8000138:	d065      	beq.n	8000206 <__udivsi3+0xfe>
 800013a:	0b03      	lsrs	r3, r0, #12
 800013c:	428b      	cmp	r3, r1
 800013e:	d319      	bcc.n	8000174 <__udivsi3+0x6c>
 8000140:	e000      	b.n	8000144 <__udivsi3+0x3c>
 8000142:	0a09      	lsrs	r1, r1, #8
 8000144:	0bc3      	lsrs	r3, r0, #15
 8000146:	428b      	cmp	r3, r1
 8000148:	d301      	bcc.n	800014e <__udivsi3+0x46>
 800014a:	03cb      	lsls	r3, r1, #15
 800014c:	1ac0      	subs	r0, r0, r3
 800014e:	4152      	adcs	r2, r2
 8000150:	0b83      	lsrs	r3, r0, #14
 8000152:	428b      	cmp	r3, r1
 8000154:	d301      	bcc.n	800015a <__udivsi3+0x52>
 8000156:	038b      	lsls	r3, r1, #14
 8000158:	1ac0      	subs	r0, r0, r3
 800015a:	4152      	adcs	r2, r2
 800015c:	0b43      	lsrs	r3, r0, #13
 800015e:	428b      	cmp	r3, r1
 8000160:	d301      	bcc.n	8000166 <__udivsi3+0x5e>
 8000162:	034b      	lsls	r3, r1, #13
 8000164:	1ac0      	subs	r0, r0, r3
 8000166:	4152      	adcs	r2, r2
 8000168:	0b03      	lsrs	r3, r0, #12
 800016a:	428b      	cmp	r3, r1
 800016c:	d301      	bcc.n	8000172 <__udivsi3+0x6a>
 800016e:	030b      	lsls	r3, r1, #12
 8000170:	1ac0      	subs	r0, r0, r3
 8000172:	4152      	adcs	r2, r2
 8000174:	0ac3      	lsrs	r3, r0, #11
 8000176:	428b      	cmp	r3, r1
 8000178:	d301      	bcc.n	800017e <__udivsi3+0x76>
 800017a:	02cb      	lsls	r3, r1, #11
 800017c:	1ac0      	subs	r0, r0, r3
 800017e:	4152      	adcs	r2, r2
 8000180:	0a83      	lsrs	r3, r0, #10
 8000182:	428b      	cmp	r3, r1
 8000184:	d301      	bcc.n	800018a <__udivsi3+0x82>
 8000186:	028b      	lsls	r3, r1, #10
 8000188:	1ac0      	subs	r0, r0, r3
 800018a:	4152      	adcs	r2, r2
 800018c:	0a43      	lsrs	r3, r0, #9
 800018e:	428b      	cmp	r3, r1
 8000190:	d301      	bcc.n	8000196 <__udivsi3+0x8e>
 8000192:	024b      	lsls	r3, r1, #9
 8000194:	1ac0      	subs	r0, r0, r3
 8000196:	4152      	adcs	r2, r2
 8000198:	0a03      	lsrs	r3, r0, #8
 800019a:	428b      	cmp	r3, r1
 800019c:	d301      	bcc.n	80001a2 <__udivsi3+0x9a>
 800019e:	020b      	lsls	r3, r1, #8
 80001a0:	1ac0      	subs	r0, r0, r3
 80001a2:	4152      	adcs	r2, r2
 80001a4:	d2cd      	bcs.n	8000142 <__udivsi3+0x3a>
 80001a6:	09c3      	lsrs	r3, r0, #7
 80001a8:	428b      	cmp	r3, r1
 80001aa:	d301      	bcc.n	80001b0 <__udivsi3+0xa8>
 80001ac:	01cb      	lsls	r3, r1, #7
 80001ae:	1ac0      	subs	r0, r0, r3
 80001b0:	4152      	adcs	r2, r2
 80001b2:	0983      	lsrs	r3, r0, #6
 80001b4:	428b      	cmp	r3, r1
 80001b6:	d301      	bcc.n	80001bc <__udivsi3+0xb4>
 80001b8:	018b      	lsls	r3, r1, #6
 80001ba:	1ac0      	subs	r0, r0, r3
 80001bc:	4152      	adcs	r2, r2
 80001be:	0943      	lsrs	r3, r0, #5
 80001c0:	428b      	cmp	r3, r1
 80001c2:	d301      	bcc.n	80001c8 <__udivsi3+0xc0>
 80001c4:	014b      	lsls	r3, r1, #5
 80001c6:	1ac0      	subs	r0, r0, r3
 80001c8:	4152      	adcs	r2, r2
 80001ca:	0903      	lsrs	r3, r0, #4
 80001cc:	428b      	cmp	r3, r1
 80001ce:	d301      	bcc.n	80001d4 <__udivsi3+0xcc>
 80001d0:	010b      	lsls	r3, r1, #4
 80001d2:	1ac0      	subs	r0, r0, r3
 80001d4:	4152      	adcs	r2, r2
 80001d6:	08c3      	lsrs	r3, r0, #3
 80001d8:	428b      	cmp	r3, r1
 80001da:	d301      	bcc.n	80001e0 <__udivsi3+0xd8>
 80001dc:	00cb      	lsls	r3, r1, #3
 80001de:	1ac0      	subs	r0, r0, r3
 80001e0:	4152      	adcs	r2, r2
 80001e2:	0883      	lsrs	r3, r0, #2
 80001e4:	428b      	cmp	r3, r1
 80001e6:	d301      	bcc.n	80001ec <__udivsi3+0xe4>
 80001e8:	008b      	lsls	r3, r1, #2
 80001ea:	1ac0      	subs	r0, r0, r3
 80001ec:	4152      	adcs	r2, r2
 80001ee:	0843      	lsrs	r3, r0, #1
 80001f0:	428b      	cmp	r3, r1
 80001f2:	d301      	bcc.n	80001f8 <__udivsi3+0xf0>
 80001f4:	004b      	lsls	r3, r1, #1
 80001f6:	1ac0      	subs	r0, r0, r3
 80001f8:	4152      	adcs	r2, r2
 80001fa:	1a41      	subs	r1, r0, r1
 80001fc:	d200      	bcs.n	8000200 <__udivsi3+0xf8>
 80001fe:	4601      	mov	r1, r0
 8000200:	4152      	adcs	r2, r2
 8000202:	4610      	mov	r0, r2
 8000204:	4770      	bx	lr
 8000206:	e7ff      	b.n	8000208 <__udivsi3+0x100>
 8000208:	b501      	push	{r0, lr}
 800020a:	2000      	movs	r0, #0
 800020c:	f000 f806 	bl	800021c <__aeabi_idiv0>
 8000210:	bd02      	pop	{r1, pc}
 8000212:	46c0      	nop			; (mov r8, r8)

08000214 <__aeabi_uidivmod>:
 8000214:	2900      	cmp	r1, #0
 8000216:	d0f7      	beq.n	8000208 <__udivsi3+0x100>
 8000218:	e776      	b.n	8000108 <__udivsi3>
 800021a:	4770      	bx	lr

0800021c <__aeabi_idiv0>:
 800021c:	4770      	bx	lr
 800021e:	46c0      	nop			; (mov r8, r8)

08000220 <HAL_InitTick>:
 8000220:	b510      	push	{r4, lr}
 8000222:	0004      	movs	r4, r0
 8000224:	f001 fac8 	bl	80017b8 <HAL_RCC_GetHCLKFreq>
 8000228:	21fa      	movs	r1, #250	; 0xfa
 800022a:	0089      	lsls	r1, r1, #2
 800022c:	f7ff ff6c 	bl	8000108 <__udivsi3>
 8000230:	f000 f85e 	bl	80002f0 <HAL_SYSTICK_Config>
 8000234:	2001      	movs	r0, #1
 8000236:	2200      	movs	r2, #0
 8000238:	0021      	movs	r1, r4
 800023a:	4240      	negs	r0, r0
 800023c:	f000 f81a 	bl	8000274 <HAL_NVIC_SetPriority>
 8000240:	2000      	movs	r0, #0
 8000242:	bd10      	pop	{r4, pc}

08000244 <HAL_Init>:
 8000244:	b510      	push	{r4, lr}
 8000246:	4a06      	ldr	r2, [pc, #24]	; (8000260 <HAL_Init+0x1c>)
 8000248:	6813      	ldr	r3, [r2, #0]
 800024a:	2110      	movs	r1, #16
 800024c:	430b      	orrs	r3, r1
 800024e:	6013      	str	r3, [r2, #0]
 8000250:	2000      	movs	r0, #0
 8000252:	f7ff ffe5 	bl	8000220 <HAL_InitTick>
 8000256:	f002 fc39 	bl	8002acc <HAL_MspInit>
 800025a:	2000      	movs	r0, #0
 800025c:	bd10      	pop	{r4, pc}
 800025e:	46c0      	nop			; (mov r8, r8)
 8000260:	40022000 	.word	0x40022000

08000264 <HAL_IncTick>:
 8000264:	4a02      	ldr	r2, [pc, #8]	; (8000270 <HAL_IncTick+0xc>)
 8000266:	6813      	ldr	r3, [r2, #0]
 8000268:	3301      	adds	r3, #1
 800026a:	6013      	str	r3, [r2, #0]
 800026c:	4770      	bx	lr
 800026e:	46c0      	nop			; (mov r8, r8)
 8000270:	200004cc 	.word	0x200004cc

08000274 <HAL_NVIC_SetPriority>:
 8000274:	b570      	push	{r4, r5, r6, lr}
 8000276:	2800      	cmp	r0, #0
 8000278:	db14      	blt.n	80002a4 <HAL_NVIC_SetPriority+0x30>
 800027a:	0883      	lsrs	r3, r0, #2
 800027c:	009b      	lsls	r3, r3, #2
 800027e:	4a15      	ldr	r2, [pc, #84]	; (80002d4 <HAL_NVIC_SetPriority+0x60>)
 8000280:	4694      	mov	ip, r2
 8000282:	4463      	add	r3, ip
 8000284:	26c0      	movs	r6, #192	; 0xc0
 8000286:	00b6      	lsls	r6, r6, #2
 8000288:	599d      	ldr	r5, [r3, r6]
 800028a:	2403      	movs	r4, #3
 800028c:	4020      	ands	r0, r4
 800028e:	00c0      	lsls	r0, r0, #3
 8000290:	22ff      	movs	r2, #255	; 0xff
 8000292:	0014      	movs	r4, r2
 8000294:	4084      	lsls	r4, r0
 8000296:	43a5      	bics	r5, r4
 8000298:	0189      	lsls	r1, r1, #6
 800029a:	400a      	ands	r2, r1
 800029c:	4082      	lsls	r2, r0
 800029e:	432a      	orrs	r2, r5
 80002a0:	519a      	str	r2, [r3, r6]
 80002a2:	bd70      	pop	{r4, r5, r6, pc}
 80002a4:	b2c0      	uxtb	r0, r0
 80002a6:	230f      	movs	r3, #15
 80002a8:	4003      	ands	r3, r0
 80002aa:	3b08      	subs	r3, #8
 80002ac:	089b      	lsrs	r3, r3, #2
 80002ae:	009b      	lsls	r3, r3, #2
 80002b0:	4a09      	ldr	r2, [pc, #36]	; (80002d8 <HAL_NVIC_SetPriority+0x64>)
 80002b2:	4694      	mov	ip, r2
 80002b4:	4463      	add	r3, ip
 80002b6:	69dd      	ldr	r5, [r3, #28]
 80002b8:	2203      	movs	r2, #3
 80002ba:	4010      	ands	r0, r2
 80002bc:	00c0      	lsls	r0, r0, #3
 80002be:	24ff      	movs	r4, #255	; 0xff
 80002c0:	0022      	movs	r2, r4
 80002c2:	4082      	lsls	r2, r0
 80002c4:	4395      	bics	r5, r2
 80002c6:	0189      	lsls	r1, r1, #6
 80002c8:	400c      	ands	r4, r1
 80002ca:	4084      	lsls	r4, r0
 80002cc:	432c      	orrs	r4, r5
 80002ce:	61dc      	str	r4, [r3, #28]
 80002d0:	e7e7      	b.n	80002a2 <HAL_NVIC_SetPriority+0x2e>
 80002d2:	46c0      	nop			; (mov r8, r8)
 80002d4:	e000e100 	.word	0xe000e100
 80002d8:	e000ed00 	.word	0xe000ed00

080002dc <HAL_NVIC_EnableIRQ>:
 80002dc:	231f      	movs	r3, #31
 80002de:	4018      	ands	r0, r3
 80002e0:	3b1e      	subs	r3, #30
 80002e2:	4083      	lsls	r3, r0
 80002e4:	4a01      	ldr	r2, [pc, #4]	; (80002ec <HAL_NVIC_EnableIRQ+0x10>)
 80002e6:	6013      	str	r3, [r2, #0]
 80002e8:	4770      	bx	lr
 80002ea:	46c0      	nop			; (mov r8, r8)
 80002ec:	e000e100 	.word	0xe000e100

080002f0 <HAL_SYSTICK_Config>:
 80002f0:	1e43      	subs	r3, r0, #1
 80002f2:	4a0a      	ldr	r2, [pc, #40]	; (800031c <HAL_SYSTICK_Config+0x2c>)
 80002f4:	2001      	movs	r0, #1
 80002f6:	4293      	cmp	r3, r2
 80002f8:	d80e      	bhi.n	8000318 <HAL_SYSTICK_Config+0x28>
 80002fa:	4a09      	ldr	r2, [pc, #36]	; (8000320 <HAL_SYSTICK_Config+0x30>)
 80002fc:	6053      	str	r3, [r2, #4]
 80002fe:	4809      	ldr	r0, [pc, #36]	; (8000324 <HAL_SYSTICK_Config+0x34>)
 8000300:	6a03      	ldr	r3, [r0, #32]
 8000302:	021b      	lsls	r3, r3, #8
 8000304:	0a1b      	lsrs	r3, r3, #8
 8000306:	21c0      	movs	r1, #192	; 0xc0
 8000308:	0609      	lsls	r1, r1, #24
 800030a:	430b      	orrs	r3, r1
 800030c:	6203      	str	r3, [r0, #32]
 800030e:	2300      	movs	r3, #0
 8000310:	6093      	str	r3, [r2, #8]
 8000312:	3307      	adds	r3, #7
 8000314:	6013      	str	r3, [r2, #0]
 8000316:	2000      	movs	r0, #0
 8000318:	4770      	bx	lr
 800031a:	46c0      	nop			; (mov r8, r8)
 800031c:	00ffffff 	.word	0x00ffffff
 8000320:	e000e010 	.word	0xe000e010
 8000324:	e000ed00 	.word	0xe000ed00

08000328 <HAL_GPIO_Init>:
 8000328:	b5f0      	push	{r4, r5, r6, r7, lr}
 800032a:	46de      	mov	lr, fp
 800032c:	4657      	mov	r7, sl
 800032e:	464e      	mov	r6, r9
 8000330:	4645      	mov	r5, r8
 8000332:	b5e0      	push	{r5, r6, r7, lr}
 8000334:	b085      	sub	sp, #20
 8000336:	680a      	ldr	r2, [r1, #0]
 8000338:	2a00      	cmp	r2, #0
 800033a:	d100      	bne.n	800033e <HAL_GPIO_Init+0x16>
 800033c:	e0ba      	b.n	80004b4 <HAL_GPIO_Init+0x18c>
 800033e:	2400      	movs	r4, #0
 8000340:	2301      	movs	r3, #1
 8000342:	4698      	mov	r8, r3
 8000344:	330f      	adds	r3, #15
 8000346:	469a      	mov	sl, r3
 8000348:	3b0d      	subs	r3, #13
 800034a:	4699      	mov	r9, r3
 800034c:	2380      	movs	r3, #128	; 0x80
 800034e:	055b      	lsls	r3, r3, #21
 8000350:	469b      	mov	fp, r3
 8000352:	4b5c      	ldr	r3, [pc, #368]	; (80004c4 <HAL_GPIO_Init+0x19c>)
 8000354:	18c3      	adds	r3, r0, r3
 8000356:	425d      	negs	r5, r3
 8000358:	416b      	adcs	r3, r5
 800035a:	425b      	negs	r3, r3
 800035c:	9301      	str	r3, [sp, #4]
 800035e:	e039      	b.n	80003d4 <HAL_GPIO_Init+0xac>
 8000360:	08e3      	lsrs	r3, r4, #3
 8000362:	009b      	lsls	r3, r3, #2
 8000364:	18c3      	adds	r3, r0, r3
 8000366:	6a1f      	ldr	r7, [r3, #32]
 8000368:	2507      	movs	r5, #7
 800036a:	4025      	ands	r5, r4
 800036c:	00ad      	lsls	r5, r5, #2
 800036e:	220f      	movs	r2, #15
 8000370:	40aa      	lsls	r2, r5
 8000372:	4397      	bics	r7, r2
 8000374:	690a      	ldr	r2, [r1, #16]
 8000376:	40aa      	lsls	r2, r5
 8000378:	0015      	movs	r5, r2
 800037a:	433d      	orrs	r5, r7
 800037c:	621d      	str	r5, [r3, #32]
 800037e:	e033      	b.n	80003e8 <HAL_GPIO_Init+0xc0>
 8000380:	2500      	movs	r5, #0
 8000382:	40b5      	lsls	r5, r6
 8000384:	433d      	orrs	r5, r7
 8000386:	609d      	str	r5, [r3, #8]
 8000388:	4b4f      	ldr	r3, [pc, #316]	; (80004c8 <HAL_GPIO_Init+0x1a0>)
 800038a:	681b      	ldr	r3, [r3, #0]
 800038c:	9a00      	ldr	r2, [sp, #0]
 800038e:	43d5      	mvns	r5, r2
 8000390:	684a      	ldr	r2, [r1, #4]
 8000392:	03d2      	lsls	r2, r2, #15
 8000394:	d500      	bpl.n	8000398 <HAL_GPIO_Init+0x70>
 8000396:	e081      	b.n	800049c <HAL_GPIO_Init+0x174>
 8000398:	402b      	ands	r3, r5
 800039a:	4e4b      	ldr	r6, [pc, #300]	; (80004c8 <HAL_GPIO_Init+0x1a0>)
 800039c:	6033      	str	r3, [r6, #0]
 800039e:	6873      	ldr	r3, [r6, #4]
 80003a0:	684a      	ldr	r2, [r1, #4]
 80003a2:	0392      	lsls	r2, r2, #14
 80003a4:	d47d      	bmi.n	80004a2 <HAL_GPIO_Init+0x17a>
 80003a6:	402b      	ands	r3, r5
 80003a8:	4e47      	ldr	r6, [pc, #284]	; (80004c8 <HAL_GPIO_Init+0x1a0>)
 80003aa:	6073      	str	r3, [r6, #4]
 80003ac:	68b3      	ldr	r3, [r6, #8]
 80003ae:	684a      	ldr	r2, [r1, #4]
 80003b0:	02d2      	lsls	r2, r2, #11
 80003b2:	d479      	bmi.n	80004a8 <HAL_GPIO_Init+0x180>
 80003b4:	402b      	ands	r3, r5
 80003b6:	4e44      	ldr	r6, [pc, #272]	; (80004c8 <HAL_GPIO_Init+0x1a0>)
 80003b8:	60b3      	str	r3, [r6, #8]
 80003ba:	68f3      	ldr	r3, [r6, #12]
 80003bc:	684a      	ldr	r2, [r1, #4]
 80003be:	0292      	lsls	r2, r2, #10
 80003c0:	d475      	bmi.n	80004ae <HAL_GPIO_Init+0x186>
 80003c2:	402b      	ands	r3, r5
 80003c4:	001a      	movs	r2, r3
 80003c6:	4b40      	ldr	r3, [pc, #256]	; (80004c8 <HAL_GPIO_Init+0x1a0>)
 80003c8:	60da      	str	r2, [r3, #12]
 80003ca:	3401      	adds	r4, #1
 80003cc:	680a      	ldr	r2, [r1, #0]
 80003ce:	0013      	movs	r3, r2
 80003d0:	40e3      	lsrs	r3, r4
 80003d2:	d06f      	beq.n	80004b4 <HAL_GPIO_Init+0x18c>
 80003d4:	4646      	mov	r6, r8
 80003d6:	40a6      	lsls	r6, r4
 80003d8:	4032      	ands	r2, r6
 80003da:	9200      	str	r2, [sp, #0]
 80003dc:	d0f5      	beq.n	80003ca <HAL_GPIO_Init+0xa2>
 80003de:	684b      	ldr	r3, [r1, #4]
 80003e0:	4655      	mov	r5, sl
 80003e2:	43ab      	bics	r3, r5
 80003e4:	2b02      	cmp	r3, #2
 80003e6:	d0bb      	beq.n	8000360 <HAL_GPIO_Init+0x38>
 80003e8:	6803      	ldr	r3, [r0, #0]
 80003ea:	0067      	lsls	r7, r4, #1
 80003ec:	464d      	mov	r5, r9
 80003ee:	40bd      	lsls	r5, r7
 80003f0:	43ed      	mvns	r5, r5
 80003f2:	402b      	ands	r3, r5
 80003f4:	469c      	mov	ip, r3
 80003f6:	684b      	ldr	r3, [r1, #4]
 80003f8:	464a      	mov	r2, r9
 80003fa:	4013      	ands	r3, r2
 80003fc:	40bb      	lsls	r3, r7
 80003fe:	4662      	mov	r2, ip
 8000400:	4313      	orrs	r3, r2
 8000402:	6003      	str	r3, [r0, #0]
 8000404:	684b      	ldr	r3, [r1, #4]
 8000406:	4652      	mov	r2, sl
 8000408:	4393      	bics	r3, r2
 800040a:	3b01      	subs	r3, #1
 800040c:	2b01      	cmp	r3, #1
 800040e:	d811      	bhi.n	8000434 <HAL_GPIO_Init+0x10c>
 8000410:	6883      	ldr	r3, [r0, #8]
 8000412:	402b      	ands	r3, r5
 8000414:	469c      	mov	ip, r3
 8000416:	68cb      	ldr	r3, [r1, #12]
 8000418:	40bb      	lsls	r3, r7
 800041a:	4662      	mov	r2, ip
 800041c:	4313      	orrs	r3, r2
 800041e:	6083      	str	r3, [r0, #8]
 8000420:	6843      	ldr	r3, [r0, #4]
 8000422:	43b3      	bics	r3, r6
 8000424:	001e      	movs	r6, r3
 8000426:	684b      	ldr	r3, [r1, #4]
 8000428:	091b      	lsrs	r3, r3, #4
 800042a:	4642      	mov	r2, r8
 800042c:	4013      	ands	r3, r2
 800042e:	40a3      	lsls	r3, r4
 8000430:	4333      	orrs	r3, r6
 8000432:	6043      	str	r3, [r0, #4]
 8000434:	68c3      	ldr	r3, [r0, #12]
 8000436:	402b      	ands	r3, r5
 8000438:	688d      	ldr	r5, [r1, #8]
 800043a:	40bd      	lsls	r5, r7
 800043c:	431d      	orrs	r5, r3
 800043e:	60c5      	str	r5, [r0, #12]
 8000440:	684b      	ldr	r3, [r1, #4]
 8000442:	465a      	mov	r2, fp
 8000444:	4213      	tst	r3, r2
 8000446:	d0c0      	beq.n	80003ca <HAL_GPIO_Init+0xa2>
 8000448:	4b20      	ldr	r3, [pc, #128]	; (80004cc <HAL_GPIO_Init+0x1a4>)
 800044a:	699d      	ldr	r5, [r3, #24]
 800044c:	4642      	mov	r2, r8
 800044e:	4315      	orrs	r5, r2
 8000450:	619d      	str	r5, [r3, #24]
 8000452:	699b      	ldr	r3, [r3, #24]
 8000454:	4013      	ands	r3, r2
 8000456:	9303      	str	r3, [sp, #12]
 8000458:	9b03      	ldr	r3, [sp, #12]
 800045a:	08a3      	lsrs	r3, r4, #2
 800045c:	009b      	lsls	r3, r3, #2
 800045e:	4a1c      	ldr	r2, [pc, #112]	; (80004d0 <HAL_GPIO_Init+0x1a8>)
 8000460:	4694      	mov	ip, r2
 8000462:	4463      	add	r3, ip
 8000464:	689d      	ldr	r5, [r3, #8]
 8000466:	464e      	mov	r6, r9
 8000468:	4026      	ands	r6, r4
 800046a:	00b6      	lsls	r6, r6, #2
 800046c:	270f      	movs	r7, #15
 800046e:	40b7      	lsls	r7, r6
 8000470:	43bd      	bics	r5, r7
 8000472:	002f      	movs	r7, r5
 8000474:	2590      	movs	r5, #144	; 0x90
 8000476:	05ed      	lsls	r5, r5, #23
 8000478:	42a8      	cmp	r0, r5
 800047a:	d100      	bne.n	800047e <HAL_GPIO_Init+0x156>
 800047c:	e780      	b.n	8000380 <HAL_GPIO_Init+0x58>
 800047e:	4d15      	ldr	r5, [pc, #84]	; (80004d4 <HAL_GPIO_Init+0x1ac>)
 8000480:	42a8      	cmp	r0, r5
 8000482:	d007      	beq.n	8000494 <HAL_GPIO_Init+0x16c>
 8000484:	4d14      	ldr	r5, [pc, #80]	; (80004d8 <HAL_GPIO_Init+0x1b0>)
 8000486:	42a8      	cmp	r0, r5
 8000488:	d006      	beq.n	8000498 <HAL_GPIO_Init+0x170>
 800048a:	9d01      	ldr	r5, [sp, #4]
 800048c:	4642      	mov	r2, r8
 800048e:	4395      	bics	r5, r2
 8000490:	3505      	adds	r5, #5
 8000492:	e776      	b.n	8000382 <HAL_GPIO_Init+0x5a>
 8000494:	2501      	movs	r5, #1
 8000496:	e774      	b.n	8000382 <HAL_GPIO_Init+0x5a>
 8000498:	2502      	movs	r5, #2
 800049a:	e772      	b.n	8000382 <HAL_GPIO_Init+0x5a>
 800049c:	9a00      	ldr	r2, [sp, #0]
 800049e:	4313      	orrs	r3, r2
 80004a0:	e77b      	b.n	800039a <HAL_GPIO_Init+0x72>
 80004a2:	9a00      	ldr	r2, [sp, #0]
 80004a4:	4313      	orrs	r3, r2
 80004a6:	e77f      	b.n	80003a8 <HAL_GPIO_Init+0x80>
 80004a8:	9a00      	ldr	r2, [sp, #0]
 80004aa:	4313      	orrs	r3, r2
 80004ac:	e783      	b.n	80003b6 <HAL_GPIO_Init+0x8e>
 80004ae:	9a00      	ldr	r2, [sp, #0]
 80004b0:	431a      	orrs	r2, r3
 80004b2:	e788      	b.n	80003c6 <HAL_GPIO_Init+0x9e>
 80004b4:	b005      	add	sp, #20
 80004b6:	bc3c      	pop	{r2, r3, r4, r5}
 80004b8:	4690      	mov	r8, r2
 80004ba:	4699      	mov	r9, r3
 80004bc:	46a2      	mov	sl, r4
 80004be:	46ab      	mov	fp, r5
 80004c0:	bdf0      	pop	{r4, r5, r6, r7, pc}
 80004c2:	46c0      	nop			; (mov r8, r8)
 80004c4:	b7fff400 	.word	0xb7fff400
 80004c8:	40010400 	.word	0x40010400
 80004cc:	40021000 	.word	0x40021000
 80004d0:	40010000 	.word	0x40010000
 80004d4:	48000400 	.word	0x48000400
 80004d8:	48000800 	.word	0x48000800

080004dc <HAL_GPIO_WritePin>:
 80004dc:	2a00      	cmp	r2, #0
 80004de:	d101      	bne.n	80004e4 <HAL_GPIO_WritePin+0x8>
 80004e0:	6281      	str	r1, [r0, #40]	; 0x28
 80004e2:	4770      	bx	lr
 80004e4:	6181      	str	r1, [r0, #24]
 80004e6:	e7fc      	b.n	80004e2 <HAL_GPIO_WritePin+0x6>

080004e8 <HAL_PCD_Init>:
 80004e8:	b570      	push	{r4, r5, r6, lr}
 80004ea:	1e04      	subs	r4, r0, #0
 80004ec:	d049      	beq.n	8000582 <HAL_PCD_Init+0x9a>
 80004ee:	23ea      	movs	r3, #234	; 0xea
 80004f0:	33ff      	adds	r3, #255	; 0xff
 80004f2:	5cc3      	ldrb	r3, [r0, r3]
 80004f4:	2b00      	cmp	r3, #0
 80004f6:	d03d      	beq.n	8000574 <HAL_PCD_Init+0x8c>
 80004f8:	23ea      	movs	r3, #234	; 0xea
 80004fa:	33ff      	adds	r3, #255	; 0xff
 80004fc:	2203      	movs	r2, #3
 80004fe:	54e2      	strb	r2, [r4, r3]
 8000500:	6860      	ldr	r0, [r4, #4]
 8000502:	2800      	cmp	r0, #0
 8000504:	d01d      	beq.n	8000542 <HAL_PCD_Init+0x5a>
 8000506:	0023      	movs	r3, r4
 8000508:	3328      	adds	r3, #40	; 0x28
 800050a:	2100      	movs	r1, #0
 800050c:	2501      	movs	r5, #1
 800050e:	2200      	movs	r2, #0
 8000510:	705d      	strb	r5, [r3, #1]
 8000512:	7019      	strb	r1, [r3, #0]
 8000514:	70da      	strb	r2, [r3, #3]
 8000516:	60da      	str	r2, [r3, #12]
 8000518:	611a      	str	r2, [r3, #16]
 800051a:	615a      	str	r2, [r3, #20]
 800051c:	3101      	adds	r1, #1
 800051e:	331c      	adds	r3, #28
 8000520:	4281      	cmp	r1, r0
 8000522:	d1f5      	bne.n	8000510 <HAL_PCD_Init+0x28>
 8000524:	0023      	movs	r3, r4
 8000526:	3309      	adds	r3, #9
 8000528:	33ff      	adds	r3, #255	; 0xff
 800052a:	2000      	movs	r0, #0
 800052c:	2200      	movs	r2, #0
 800052e:	705a      	strb	r2, [r3, #1]
 8000530:	7018      	strb	r0, [r3, #0]
 8000532:	70da      	strb	r2, [r3, #3]
 8000534:	60da      	str	r2, [r3, #12]
 8000536:	611a      	str	r2, [r3, #16]
 8000538:	615a      	str	r2, [r3, #20]
 800053a:	3001      	adds	r0, #1
 800053c:	331c      	adds	r3, #28
 800053e:	4288      	cmp	r0, r1
 8000540:	d1f5      	bne.n	800052e <HAL_PCD_Init+0x46>
 8000542:	2340      	movs	r3, #64	; 0x40
 8000544:	2201      	movs	r2, #1
 8000546:	6821      	ldr	r1, [r4, #0]
 8000548:	52ca      	strh	r2, [r1, r3]
 800054a:	2200      	movs	r2, #0
 800054c:	6821      	ldr	r1, [r4, #0]
 800054e:	52ca      	strh	r2, [r1, r3]
 8000550:	2144      	movs	r1, #68	; 0x44
 8000552:	6820      	ldr	r0, [r4, #0]
 8000554:	5242      	strh	r2, [r0, r1]
 8000556:	310c      	adds	r1, #12
 8000558:	6820      	ldr	r0, [r4, #0]
 800055a:	5242      	strh	r2, [r0, r1]
 800055c:	4a0a      	ldr	r2, [pc, #40]	; (8000588 <HAL_PCD_Init+0xa0>)
 800055e:	6821      	ldr	r1, [r4, #0]
 8000560:	52ca      	strh	r2, [r1, r3]
 8000562:	2200      	movs	r2, #0
 8000564:	3b1c      	subs	r3, #28
 8000566:	54e2      	strb	r2, [r4, r3]
 8000568:	2201      	movs	r2, #1
 800056a:	23ea      	movs	r3, #234	; 0xea
 800056c:	33ff      	adds	r3, #255	; 0xff
 800056e:	54e2      	strb	r2, [r4, r3]
 8000570:	2000      	movs	r0, #0
 8000572:	bd70      	pop	{r4, r5, r6, pc}
 8000574:	33e9      	adds	r3, #233	; 0xe9
 8000576:	33ff      	adds	r3, #255	; 0xff
 8000578:	2200      	movs	r2, #0
 800057a:	54c2      	strb	r2, [r0, r3]
 800057c:	f002 fba8 	bl	8002cd0 <HAL_PCD_MspInit>
 8000580:	e7ba      	b.n	80004f8 <HAL_PCD_Init+0x10>
 8000582:	2001      	movs	r0, #1
 8000584:	e7f5      	b.n	8000572 <HAL_PCD_Init+0x8a>
 8000586:	46c0      	nop			; (mov r8, r8)
 8000588:	ffffbf00 	.word	0xffffbf00

0800058c <HAL_PCD_Start>:
 800058c:	6801      	ldr	r1, [r0, #0]
 800058e:	2258      	movs	r2, #88	; 0x58
 8000590:	5a8b      	ldrh	r3, [r1, r2]
 8000592:	2080      	movs	r0, #128	; 0x80
 8000594:	0200      	lsls	r0, r0, #8
 8000596:	4303      	orrs	r3, r0
 8000598:	528b      	strh	r3, [r1, r2]
 800059a:	2000      	movs	r0, #0
 800059c:	4770      	bx	lr

0800059e <HAL_PCD_SetAddress>:
 800059e:	23f4      	movs	r3, #244	; 0xf4
 80005a0:	005b      	lsls	r3, r3, #1
 80005a2:	5cc3      	ldrb	r3, [r0, r3]
 80005a4:	2b01      	cmp	r3, #1
 80005a6:	d013      	beq.n	80005d0 <HAL_PCD_SetAddress+0x32>
 80005a8:	23f4      	movs	r3, #244	; 0xf4
 80005aa:	005b      	lsls	r3, r3, #1
 80005ac:	2201      	movs	r2, #1
 80005ae:	54c2      	strb	r2, [r0, r3]
 80005b0:	2900      	cmp	r1, #0
 80005b2:	d10a      	bne.n	80005ca <HAL_PCD_SetAddress+0x2c>
 80005b4:	3b9d      	subs	r3, #157	; 0x9d
 80005b6:	3bff      	subs	r3, #255	; 0xff
 80005b8:	327f      	adds	r2, #127	; 0x7f
 80005ba:	6801      	ldr	r1, [r0, #0]
 80005bc:	52ca      	strh	r2, [r1, r3]
 80005be:	23f4      	movs	r3, #244	; 0xf4
 80005c0:	005b      	lsls	r3, r3, #1
 80005c2:	2200      	movs	r2, #0
 80005c4:	54c2      	strb	r2, [r0, r3]
 80005c6:	2000      	movs	r0, #0
 80005c8:	4770      	bx	lr
 80005ca:	2324      	movs	r3, #36	; 0x24
 80005cc:	54c1      	strb	r1, [r0, r3]
 80005ce:	e7f6      	b.n	80005be <HAL_PCD_SetAddress+0x20>
 80005d0:	2002      	movs	r0, #2
 80005d2:	e7f9      	b.n	80005c8 <HAL_PCD_SetAddress+0x2a>

080005d4 <HAL_PCD_EP_Open>:
 80005d4:	b570      	push	{r4, r5, r6, lr}
 80005d6:	b24d      	sxtb	r5, r1
 80005d8:	2d00      	cmp	r5, #0
 80005da:	db65      	blt.n	80006a8 <HAL_PCD_EP_Open+0xd4>
 80005dc:	267f      	movs	r6, #127	; 0x7f
 80005de:	400e      	ands	r6, r1
 80005e0:	00f4      	lsls	r4, r6, #3
 80005e2:	1ba4      	subs	r4, r4, r6
 80005e4:	00a4      	lsls	r4, r4, #2
 80005e6:	3409      	adds	r4, #9
 80005e8:	34ff      	adds	r4, #255	; 0xff
 80005ea:	1904      	adds	r4, r0, r4
 80005ec:	267f      	movs	r6, #127	; 0x7f
 80005ee:	4031      	ands	r1, r6
 80005f0:	7021      	strb	r1, [r4, #0]
 80005f2:	0fed      	lsrs	r5, r5, #31
 80005f4:	7065      	strb	r5, [r4, #1]
 80005f6:	60e2      	str	r2, [r4, #12]
 80005f8:	70e3      	strb	r3, [r4, #3]
 80005fa:	23f4      	movs	r3, #244	; 0xf4
 80005fc:	005b      	lsls	r3, r3, #1
 80005fe:	5cc3      	ldrb	r3, [r0, r3]
 8000600:	2b01      	cmp	r3, #1
 8000602:	d100      	bne.n	8000606 <HAL_PCD_EP_Open+0x32>
 8000604:	e173      	b.n	80008ee <HAL_PCD_EP_Open+0x31a>
 8000606:	23f4      	movs	r3, #244	; 0xf4
 8000608:	005b      	lsls	r3, r3, #1
 800060a:	2201      	movs	r2, #1
 800060c:	54c2      	strb	r2, [r0, r3]
 800060e:	78e3      	ldrb	r3, [r4, #3]
 8000610:	2b01      	cmp	r3, #1
 8000612:	d100      	bne.n	8000616 <HAL_PCD_EP_Open+0x42>
 8000614:	e074      	b.n	8000700 <HAL_PCD_EP_Open+0x12c>
 8000616:	2b00      	cmp	r3, #0
 8000618:	d04e      	beq.n	80006b8 <HAL_PCD_EP_Open+0xe4>
 800061a:	2b02      	cmp	r3, #2
 800061c:	d058      	beq.n	80006d0 <HAL_PCD_EP_Open+0xfc>
 800061e:	2b03      	cmp	r3, #3
 8000620:	d062      	beq.n	80006e8 <HAL_PCD_EP_Open+0x114>
 8000622:	7825      	ldrb	r5, [r4, #0]
 8000624:	00aa      	lsls	r2, r5, #2
 8000626:	6803      	ldr	r3, [r0, #0]
 8000628:	469c      	mov	ip, r3
 800062a:	4462      	add	r2, ip
 800062c:	8813      	ldrh	r3, [r2, #0]
 800062e:	49b1      	ldr	r1, [pc, #708]	; (80008f4 <HAL_PCD_EP_Open+0x320>)
 8000630:	400b      	ands	r3, r1
 8000632:	49b1      	ldr	r1, [pc, #708]	; (80008f8 <HAL_PCD_EP_Open+0x324>)
 8000634:	4329      	orrs	r1, r5
 8000636:	430b      	orrs	r3, r1
 8000638:	8013      	strh	r3, [r2, #0]
 800063a:	7aa3      	ldrb	r3, [r4, #10]
 800063c:	2b00      	cmp	r3, #0
 800063e:	d000      	beq.n	8000642 <HAL_PCD_EP_Open+0x6e>
 8000640:	e0b3      	b.n	80007aa <HAL_PCD_EP_Open+0x1d6>
 8000642:	7863      	ldrb	r3, [r4, #1]
 8000644:	2b00      	cmp	r3, #0
 8000646:	d100      	bne.n	800064a <HAL_PCD_EP_Open+0x76>
 8000648:	e066      	b.n	8000718 <HAL_PCD_EP_Open+0x144>
 800064a:	6802      	ldr	r2, [r0, #0]
 800064c:	2350      	movs	r3, #80	; 0x50
 800064e:	5ad3      	ldrh	r3, [r2, r3]
 8000650:	7821      	ldrb	r1, [r4, #0]
 8000652:	00c9      	lsls	r1, r1, #3
 8000654:	1852      	adds	r2, r2, r1
 8000656:	189b      	adds	r3, r3, r2
 8000658:	2280      	movs	r2, #128	; 0x80
 800065a:	00d2      	lsls	r2, r2, #3
 800065c:	4694      	mov	ip, r2
 800065e:	4463      	add	r3, ip
 8000660:	88a2      	ldrh	r2, [r4, #4]
 8000662:	2101      	movs	r1, #1
 8000664:	438a      	bics	r2, r1
 8000666:	801a      	strh	r2, [r3, #0]
 8000668:	7823      	ldrb	r3, [r4, #0]
 800066a:	009b      	lsls	r3, r3, #2
 800066c:	6802      	ldr	r2, [r0, #0]
 800066e:	4694      	mov	ip, r2
 8000670:	4463      	add	r3, ip
 8000672:	881a      	ldrh	r2, [r3, #0]
 8000674:	0651      	lsls	r1, r2, #25
 8000676:	d504      	bpl.n	8000682 <HAL_PCD_EP_Open+0xae>
 8000678:	499e      	ldr	r1, [pc, #632]	; (80008f4 <HAL_PCD_EP_Open+0x320>)
 800067a:	400a      	ands	r2, r1
 800067c:	499f      	ldr	r1, [pc, #636]	; (80008fc <HAL_PCD_EP_Open+0x328>)
 800067e:	430a      	orrs	r2, r1
 8000680:	801a      	strh	r2, [r3, #0]
 8000682:	7822      	ldrb	r2, [r4, #0]
 8000684:	0092      	lsls	r2, r2, #2
 8000686:	6803      	ldr	r3, [r0, #0]
 8000688:	469c      	mov	ip, r3
 800068a:	4462      	add	r2, ip
 800068c:	8813      	ldrh	r3, [r2, #0]
 800068e:	499c      	ldr	r1, [pc, #624]	; (8000900 <HAL_PCD_EP_Open+0x32c>)
 8000690:	400b      	ands	r3, r1
 8000692:	2120      	movs	r1, #32
 8000694:	404b      	eors	r3, r1
 8000696:	4998      	ldr	r1, [pc, #608]	; (80008f8 <HAL_PCD_EP_Open+0x324>)
 8000698:	430b      	orrs	r3, r1
 800069a:	8013      	strh	r3, [r2, #0]
 800069c:	23f4      	movs	r3, #244	; 0xf4
 800069e:	005b      	lsls	r3, r3, #1
 80006a0:	2200      	movs	r2, #0
 80006a2:	54c2      	strb	r2, [r0, r3]
 80006a4:	2000      	movs	r0, #0
 80006a6:	bd70      	pop	{r4, r5, r6, pc}
 80006a8:	267f      	movs	r6, #127	; 0x7f
 80006aa:	400e      	ands	r6, r1
 80006ac:	00f4      	lsls	r4, r6, #3
 80006ae:	1ba4      	subs	r4, r4, r6
 80006b0:	00a4      	lsls	r4, r4, #2
 80006b2:	3428      	adds	r4, #40	; 0x28
 80006b4:	1904      	adds	r4, r0, r4
 80006b6:	e799      	b.n	80005ec <HAL_PCD_EP_Open+0x18>
 80006b8:	7823      	ldrb	r3, [r4, #0]
 80006ba:	009b      	lsls	r3, r3, #2
 80006bc:	6802      	ldr	r2, [r0, #0]
 80006be:	4694      	mov	ip, r2
 80006c0:	4463      	add	r3, ip
 80006c2:	881a      	ldrh	r2, [r3, #0]
 80006c4:	498f      	ldr	r1, [pc, #572]	; (8000904 <HAL_PCD_EP_Open+0x330>)
 80006c6:	4011      	ands	r1, r2
 80006c8:	4a8f      	ldr	r2, [pc, #572]	; (8000908 <HAL_PCD_EP_Open+0x334>)
 80006ca:	430a      	orrs	r2, r1
 80006cc:	801a      	strh	r2, [r3, #0]
 80006ce:	e7a8      	b.n	8000622 <HAL_PCD_EP_Open+0x4e>
 80006d0:	7823      	ldrb	r3, [r4, #0]
 80006d2:	009b      	lsls	r3, r3, #2
 80006d4:	6802      	ldr	r2, [r0, #0]
 80006d6:	4694      	mov	ip, r2
 80006d8:	4463      	add	r3, ip
 80006da:	881a      	ldrh	r2, [r3, #0]
 80006dc:	4989      	ldr	r1, [pc, #548]	; (8000904 <HAL_PCD_EP_Open+0x330>)
 80006de:	4011      	ands	r1, r2
 80006e0:	4a85      	ldr	r2, [pc, #532]	; (80008f8 <HAL_PCD_EP_Open+0x324>)
 80006e2:	430a      	orrs	r2, r1
 80006e4:	801a      	strh	r2, [r3, #0]
 80006e6:	e79c      	b.n	8000622 <HAL_PCD_EP_Open+0x4e>
 80006e8:	7823      	ldrb	r3, [r4, #0]
 80006ea:	009b      	lsls	r3, r3, #2
 80006ec:	6802      	ldr	r2, [r0, #0]
 80006ee:	4694      	mov	ip, r2
 80006f0:	4463      	add	r3, ip
 80006f2:	881a      	ldrh	r2, [r3, #0]
 80006f4:	4983      	ldr	r1, [pc, #524]	; (8000904 <HAL_PCD_EP_Open+0x330>)
 80006f6:	4011      	ands	r1, r2
 80006f8:	4a84      	ldr	r2, [pc, #528]	; (800090c <HAL_PCD_EP_Open+0x338>)
 80006fa:	430a      	orrs	r2, r1
 80006fc:	801a      	strh	r2, [r3, #0]
 80006fe:	e790      	b.n	8000622 <HAL_PCD_EP_Open+0x4e>
 8000700:	7823      	ldrb	r3, [r4, #0]
 8000702:	009b      	lsls	r3, r3, #2
 8000704:	6802      	ldr	r2, [r0, #0]
 8000706:	4694      	mov	ip, r2
 8000708:	4463      	add	r3, ip
 800070a:	881a      	ldrh	r2, [r3, #0]
 800070c:	497d      	ldr	r1, [pc, #500]	; (8000904 <HAL_PCD_EP_Open+0x330>)
 800070e:	4011      	ands	r1, r2
 8000710:	4a7f      	ldr	r2, [pc, #508]	; (8000910 <HAL_PCD_EP_Open+0x33c>)
 8000712:	430a      	orrs	r2, r1
 8000714:	801a      	strh	r2, [r3, #0]
 8000716:	e784      	b.n	8000622 <HAL_PCD_EP_Open+0x4e>
 8000718:	6802      	ldr	r2, [r0, #0]
 800071a:	2550      	movs	r5, #80	; 0x50
 800071c:	5b53      	ldrh	r3, [r2, r5]
 800071e:	7821      	ldrb	r1, [r4, #0]
 8000720:	00c9      	lsls	r1, r1, #3
 8000722:	1852      	adds	r2, r2, r1
 8000724:	189b      	adds	r3, r3, r2
 8000726:	4a7b      	ldr	r2, [pc, #492]	; (8000914 <HAL_PCD_EP_Open+0x340>)
 8000728:	4694      	mov	ip, r2
 800072a:	4463      	add	r3, ip
 800072c:	88a2      	ldrh	r2, [r4, #4]
 800072e:	2101      	movs	r1, #1
 8000730:	438a      	bics	r2, r1
 8000732:	801a      	strh	r2, [r3, #0]
 8000734:	6803      	ldr	r3, [r0, #0]
 8000736:	5b5a      	ldrh	r2, [r3, r5]
 8000738:	7821      	ldrb	r1, [r4, #0]
 800073a:	00c9      	lsls	r1, r1, #3
 800073c:	1852      	adds	r2, r2, r1
 800073e:	4976      	ldr	r1, [pc, #472]	; (8000918 <HAL_PCD_EP_Open+0x344>)
 8000740:	468c      	mov	ip, r1
 8000742:	4463      	add	r3, ip
 8000744:	18d3      	adds	r3, r2, r3
 8000746:	68e2      	ldr	r2, [r4, #12]
 8000748:	2a3e      	cmp	r2, #62	; 0x3e
 800074a:	d925      	bls.n	8000798 <HAL_PCD_EP_Open+0x1c4>
 800074c:	0951      	lsrs	r1, r2, #5
 800074e:	b289      	uxth	r1, r1
 8000750:	06d2      	lsls	r2, r2, #27
 8000752:	d101      	bne.n	8000758 <HAL_PCD_EP_Open+0x184>
 8000754:	3901      	subs	r1, #1
 8000756:	b289      	uxth	r1, r1
 8000758:	0289      	lsls	r1, r1, #10
 800075a:	4a70      	ldr	r2, [pc, #448]	; (800091c <HAL_PCD_EP_Open+0x348>)
 800075c:	4311      	orrs	r1, r2
 800075e:	8019      	strh	r1, [r3, #0]
 8000760:	7823      	ldrb	r3, [r4, #0]
 8000762:	009b      	lsls	r3, r3, #2
 8000764:	6802      	ldr	r2, [r0, #0]
 8000766:	4694      	mov	ip, r2
 8000768:	4463      	add	r3, ip
 800076a:	881a      	ldrh	r2, [r3, #0]
 800076c:	0451      	lsls	r1, r2, #17
 800076e:	d504      	bpl.n	800077a <HAL_PCD_EP_Open+0x1a6>
 8000770:	4960      	ldr	r1, [pc, #384]	; (80008f4 <HAL_PCD_EP_Open+0x320>)
 8000772:	400a      	ands	r2, r1
 8000774:	496a      	ldr	r1, [pc, #424]	; (8000920 <HAL_PCD_EP_Open+0x34c>)
 8000776:	430a      	orrs	r2, r1
 8000778:	801a      	strh	r2, [r3, #0]
 800077a:	7823      	ldrb	r3, [r4, #0]
 800077c:	009b      	lsls	r3, r3, #2
 800077e:	6802      	ldr	r2, [r0, #0]
 8000780:	4694      	mov	ip, r2
 8000782:	4463      	add	r3, ip
 8000784:	8819      	ldrh	r1, [r3, #0]
 8000786:	4a67      	ldr	r2, [pc, #412]	; (8000924 <HAL_PCD_EP_Open+0x350>)
 8000788:	4011      	ands	r1, r2
 800078a:	22c0      	movs	r2, #192	; 0xc0
 800078c:	0192      	lsls	r2, r2, #6
 800078e:	4051      	eors	r1, r2
 8000790:	4a59      	ldr	r2, [pc, #356]	; (80008f8 <HAL_PCD_EP_Open+0x324>)
 8000792:	430a      	orrs	r2, r1
 8000794:	801a      	strh	r2, [r3, #0]
 8000796:	e781      	b.n	800069c <HAL_PCD_EP_Open+0xc8>
 8000798:	0851      	lsrs	r1, r2, #1
 800079a:	b289      	uxth	r1, r1
 800079c:	07d2      	lsls	r2, r2, #31
 800079e:	d501      	bpl.n	80007a4 <HAL_PCD_EP_Open+0x1d0>
 80007a0:	3101      	adds	r1, #1
 80007a2:	b289      	uxth	r1, r1
 80007a4:	0289      	lsls	r1, r1, #10
 80007a6:	8019      	strh	r1, [r3, #0]
 80007a8:	e7da      	b.n	8000760 <HAL_PCD_EP_Open+0x18c>
 80007aa:	7823      	ldrb	r3, [r4, #0]
 80007ac:	009b      	lsls	r3, r3, #2
 80007ae:	6802      	ldr	r2, [r0, #0]
 80007b0:	4694      	mov	ip, r2
 80007b2:	4463      	add	r3, ip
 80007b4:	881a      	ldrh	r2, [r3, #0]
 80007b6:	495c      	ldr	r1, [pc, #368]	; (8000928 <HAL_PCD_EP_Open+0x354>)
 80007b8:	4011      	ands	r1, r2
 80007ba:	4a5c      	ldr	r2, [pc, #368]	; (800092c <HAL_PCD_EP_Open+0x358>)
 80007bc:	430a      	orrs	r2, r1
 80007be:	801a      	strh	r2, [r3, #0]
 80007c0:	6802      	ldr	r2, [r0, #0]
 80007c2:	2650      	movs	r6, #80	; 0x50
 80007c4:	5b93      	ldrh	r3, [r2, r6]
 80007c6:	7821      	ldrb	r1, [r4, #0]
 80007c8:	00c9      	lsls	r1, r1, #3
 80007ca:	1852      	adds	r2, r2, r1
 80007cc:	189b      	adds	r3, r3, r2
 80007ce:	2280      	movs	r2, #128	; 0x80
 80007d0:	00d2      	lsls	r2, r2, #3
 80007d2:	4694      	mov	ip, r2
 80007d4:	4463      	add	r3, ip
 80007d6:	88e2      	ldrh	r2, [r4, #6]
 80007d8:	2501      	movs	r5, #1
 80007da:	43aa      	bics	r2, r5
 80007dc:	801a      	strh	r2, [r3, #0]
 80007de:	6802      	ldr	r2, [r0, #0]
 80007e0:	5b93      	ldrh	r3, [r2, r6]
 80007e2:	7821      	ldrb	r1, [r4, #0]
 80007e4:	00c9      	lsls	r1, r1, #3
 80007e6:	1852      	adds	r2, r2, r1
 80007e8:	189b      	adds	r3, r3, r2
 80007ea:	4a4a      	ldr	r2, [pc, #296]	; (8000914 <HAL_PCD_EP_Open+0x340>)
 80007ec:	4694      	mov	ip, r2
 80007ee:	4463      	add	r3, ip
 80007f0:	8922      	ldrh	r2, [r4, #8]
 80007f2:	43aa      	bics	r2, r5
 80007f4:	801a      	strh	r2, [r3, #0]
 80007f6:	7863      	ldrb	r3, [r4, #1]
 80007f8:	2b00      	cmp	r3, #0
 80007fa:	d13d      	bne.n	8000878 <HAL_PCD_EP_Open+0x2a4>
 80007fc:	7823      	ldrb	r3, [r4, #0]
 80007fe:	009b      	lsls	r3, r3, #2
 8000800:	6802      	ldr	r2, [r0, #0]
 8000802:	4694      	mov	ip, r2
 8000804:	4463      	add	r3, ip
 8000806:	881a      	ldrh	r2, [r3, #0]
 8000808:	0451      	lsls	r1, r2, #17
 800080a:	d504      	bpl.n	8000816 <HAL_PCD_EP_Open+0x242>
 800080c:	4939      	ldr	r1, [pc, #228]	; (80008f4 <HAL_PCD_EP_Open+0x320>)
 800080e:	400a      	ands	r2, r1
 8000810:	4943      	ldr	r1, [pc, #268]	; (8000920 <HAL_PCD_EP_Open+0x34c>)
 8000812:	430a      	orrs	r2, r1
 8000814:	801a      	strh	r2, [r3, #0]
 8000816:	7823      	ldrb	r3, [r4, #0]
 8000818:	009b      	lsls	r3, r3, #2
 800081a:	6802      	ldr	r2, [r0, #0]
 800081c:	4694      	mov	ip, r2
 800081e:	4463      	add	r3, ip
 8000820:	881a      	ldrh	r2, [r3, #0]
 8000822:	0651      	lsls	r1, r2, #25
 8000824:	d504      	bpl.n	8000830 <HAL_PCD_EP_Open+0x25c>
 8000826:	4933      	ldr	r1, [pc, #204]	; (80008f4 <HAL_PCD_EP_Open+0x320>)
 8000828:	400a      	ands	r2, r1
 800082a:	4934      	ldr	r1, [pc, #208]	; (80008fc <HAL_PCD_EP_Open+0x328>)
 800082c:	430a      	orrs	r2, r1
 800082e:	801a      	strh	r2, [r3, #0]
 8000830:	7823      	ldrb	r3, [r4, #0]
 8000832:	009b      	lsls	r3, r3, #2
 8000834:	6802      	ldr	r2, [r0, #0]
 8000836:	4694      	mov	ip, r2
 8000838:	4463      	add	r3, ip
 800083a:	881a      	ldrh	r2, [r3, #0]
 800083c:	492d      	ldr	r1, [pc, #180]	; (80008f4 <HAL_PCD_EP_Open+0x320>)
 800083e:	4011      	ands	r1, r2
 8000840:	4a2e      	ldr	r2, [pc, #184]	; (80008fc <HAL_PCD_EP_Open+0x328>)
 8000842:	430a      	orrs	r2, r1
 8000844:	801a      	strh	r2, [r3, #0]
 8000846:	7821      	ldrb	r1, [r4, #0]
 8000848:	0089      	lsls	r1, r1, #2
 800084a:	6803      	ldr	r3, [r0, #0]
 800084c:	469c      	mov	ip, r3
 800084e:	4461      	add	r1, ip
 8000850:	880b      	ldrh	r3, [r1, #0]
 8000852:	4a34      	ldr	r2, [pc, #208]	; (8000924 <HAL_PCD_EP_Open+0x350>)
 8000854:	401a      	ands	r2, r3
 8000856:	23c0      	movs	r3, #192	; 0xc0
 8000858:	019b      	lsls	r3, r3, #6
 800085a:	4053      	eors	r3, r2
 800085c:	4a26      	ldr	r2, [pc, #152]	; (80008f8 <HAL_PCD_EP_Open+0x324>)
 800085e:	4313      	orrs	r3, r2
 8000860:	800b      	strh	r3, [r1, #0]
 8000862:	7823      	ldrb	r3, [r4, #0]
 8000864:	009b      	lsls	r3, r3, #2
 8000866:	6801      	ldr	r1, [r0, #0]
 8000868:	468c      	mov	ip, r1
 800086a:	4463      	add	r3, ip
 800086c:	8819      	ldrh	r1, [r3, #0]
 800086e:	4c24      	ldr	r4, [pc, #144]	; (8000900 <HAL_PCD_EP_Open+0x32c>)
 8000870:	4021      	ands	r1, r4
 8000872:	430a      	orrs	r2, r1
 8000874:	801a      	strh	r2, [r3, #0]
 8000876:	e711      	b.n	800069c <HAL_PCD_EP_Open+0xc8>
 8000878:	7823      	ldrb	r3, [r4, #0]
 800087a:	009b      	lsls	r3, r3, #2
 800087c:	6802      	ldr	r2, [r0, #0]
 800087e:	4694      	mov	ip, r2
 8000880:	4463      	add	r3, ip
 8000882:	881a      	ldrh	r2, [r3, #0]
 8000884:	0451      	lsls	r1, r2, #17
 8000886:	d504      	bpl.n	8000892 <HAL_PCD_EP_Open+0x2be>
 8000888:	491a      	ldr	r1, [pc, #104]	; (80008f4 <HAL_PCD_EP_Open+0x320>)
 800088a:	400a      	ands	r2, r1
 800088c:	4924      	ldr	r1, [pc, #144]	; (8000920 <HAL_PCD_EP_Open+0x34c>)
 800088e:	430a      	orrs	r2, r1
 8000890:	801a      	strh	r2, [r3, #0]
 8000892:	7823      	ldrb	r3, [r4, #0]
 8000894:	009b      	lsls	r3, r3, #2
 8000896:	6802      	ldr	r2, [r0, #0]
 8000898:	4694      	mov	ip, r2
 800089a:	4463      	add	r3, ip
 800089c:	881a      	ldrh	r2, [r3, #0]
 800089e:	0651      	lsls	r1, r2, #25
 80008a0:	d504      	bpl.n	80008ac <HAL_PCD_EP_Open+0x2d8>
 80008a2:	4914      	ldr	r1, [pc, #80]	; (80008f4 <HAL_PCD_EP_Open+0x320>)
 80008a4:	400a      	ands	r2, r1
 80008a6:	4915      	ldr	r1, [pc, #84]	; (80008fc <HAL_PCD_EP_Open+0x328>)
 80008a8:	430a      	orrs	r2, r1
 80008aa:	801a      	strh	r2, [r3, #0]
 80008ac:	7823      	ldrb	r3, [r4, #0]
 80008ae:	009b      	lsls	r3, r3, #2
 80008b0:	6802      	ldr	r2, [r0, #0]
 80008b2:	4694      	mov	ip, r2
 80008b4:	4463      	add	r3, ip
 80008b6:	881a      	ldrh	r2, [r3, #0]
 80008b8:	490e      	ldr	r1, [pc, #56]	; (80008f4 <HAL_PCD_EP_Open+0x320>)
 80008ba:	4011      	ands	r1, r2
 80008bc:	4a18      	ldr	r2, [pc, #96]	; (8000920 <HAL_PCD_EP_Open+0x34c>)
 80008be:	430a      	orrs	r2, r1
 80008c0:	801a      	strh	r2, [r3, #0]
 80008c2:	7821      	ldrb	r1, [r4, #0]
 80008c4:	0089      	lsls	r1, r1, #2
 80008c6:	6803      	ldr	r3, [r0, #0]
 80008c8:	469c      	mov	ip, r3
 80008ca:	4461      	add	r1, ip
 80008cc:	880b      	ldrh	r3, [r1, #0]
 80008ce:	4a0c      	ldr	r2, [pc, #48]	; (8000900 <HAL_PCD_EP_Open+0x32c>)
 80008d0:	4013      	ands	r3, r2
 80008d2:	4a09      	ldr	r2, [pc, #36]	; (80008f8 <HAL_PCD_EP_Open+0x324>)
 80008d4:	4313      	orrs	r3, r2
 80008d6:	800b      	strh	r3, [r1, #0]
 80008d8:	7823      	ldrb	r3, [r4, #0]
 80008da:	009b      	lsls	r3, r3, #2
 80008dc:	6801      	ldr	r1, [r0, #0]
 80008de:	468c      	mov	ip, r1
 80008e0:	4463      	add	r3, ip
 80008e2:	8819      	ldrh	r1, [r3, #0]
 80008e4:	4c0f      	ldr	r4, [pc, #60]	; (8000924 <HAL_PCD_EP_Open+0x350>)
 80008e6:	4021      	ands	r1, r4
 80008e8:	430a      	orrs	r2, r1
 80008ea:	801a      	strh	r2, [r3, #0]
 80008ec:	e6d6      	b.n	800069c <HAL_PCD_EP_Open+0xc8>
 80008ee:	2002      	movs	r0, #2
 80008f0:	e6d9      	b.n	80006a6 <HAL_PCD_EP_Open+0xd2>
 80008f2:	46c0      	nop			; (mov r8, r8)
 80008f4:	00000f0f 	.word	0x00000f0f
 80008f8:	ffff8080 	.word	0xffff8080
 80008fc:	ffff80c0 	.word	0xffff80c0
 8000900:	ffff8fbf 	.word	0xffff8fbf
 8000904:	0000090f 	.word	0x0000090f
 8000908:	ffff8280 	.word	0xffff8280
 800090c:	ffff8680 	.word	0xffff8680
 8000910:	ffff8480 	.word	0xffff8480
 8000914:	00000404 	.word	0x00000404
 8000918:	00000406 	.word	0x00000406
 800091c:	ffff8000 	.word	0xffff8000
 8000920:	ffffc080 	.word	0xffffc080
 8000924:	ffffbf8f 	.word	0xffffbf8f
 8000928:	00000e0f 	.word	0x00000e0f
 800092c:	ffff8180 	.word	0xffff8180

08000930 <HAL_PCD_EP_Close>:
 8000930:	b510      	push	{r4, lr}
 8000932:	b24a      	sxtb	r2, r1
 8000934:	2a00      	cmp	r2, #0
 8000936:	db3a      	blt.n	80009ae <HAL_PCD_EP_Close+0x7e>
 8000938:	247f      	movs	r4, #127	; 0x7f
 800093a:	400c      	ands	r4, r1
 800093c:	00e3      	lsls	r3, r4, #3
 800093e:	1b1b      	subs	r3, r3, r4
 8000940:	009b      	lsls	r3, r3, #2
 8000942:	3309      	adds	r3, #9
 8000944:	33ff      	adds	r3, #255	; 0xff
 8000946:	18c3      	adds	r3, r0, r3
 8000948:	247f      	movs	r4, #127	; 0x7f
 800094a:	4021      	ands	r1, r4
 800094c:	7019      	strb	r1, [r3, #0]
 800094e:	0fd2      	lsrs	r2, r2, #31
 8000950:	705a      	strb	r2, [r3, #1]
 8000952:	22f4      	movs	r2, #244	; 0xf4
 8000954:	0052      	lsls	r2, r2, #1
 8000956:	5c82      	ldrb	r2, [r0, r2]
 8000958:	2a01      	cmp	r2, #1
 800095a:	d100      	bne.n	800095e <HAL_PCD_EP_Close+0x2e>
 800095c:	e0c1      	b.n	8000ae2 <HAL_PCD_EP_Close+0x1b2>
 800095e:	22f4      	movs	r2, #244	; 0xf4
 8000960:	0052      	lsls	r2, r2, #1
 8000962:	2101      	movs	r1, #1
 8000964:	5481      	strb	r1, [r0, r2]
 8000966:	7a9a      	ldrb	r2, [r3, #10]
 8000968:	2a00      	cmp	r2, #0
 800096a:	d141      	bne.n	80009f0 <HAL_PCD_EP_Close+0xc0>
 800096c:	785a      	ldrb	r2, [r3, #1]
 800096e:	2a00      	cmp	r2, #0
 8000970:	d025      	beq.n	80009be <HAL_PCD_EP_Close+0x8e>
 8000972:	781a      	ldrb	r2, [r3, #0]
 8000974:	0092      	lsls	r2, r2, #2
 8000976:	6801      	ldr	r1, [r0, #0]
 8000978:	468c      	mov	ip, r1
 800097a:	4462      	add	r2, ip
 800097c:	8811      	ldrh	r1, [r2, #0]
 800097e:	064c      	lsls	r4, r1, #25
 8000980:	d504      	bpl.n	800098c <HAL_PCD_EP_Close+0x5c>
 8000982:	4c59      	ldr	r4, [pc, #356]	; (8000ae8 <HAL_PCD_EP_Close+0x1b8>)
 8000984:	4021      	ands	r1, r4
 8000986:	4c59      	ldr	r4, [pc, #356]	; (8000aec <HAL_PCD_EP_Close+0x1bc>)
 8000988:	4321      	orrs	r1, r4
 800098a:	8011      	strh	r1, [r2, #0]
 800098c:	781b      	ldrb	r3, [r3, #0]
 800098e:	009b      	lsls	r3, r3, #2
 8000990:	6802      	ldr	r2, [r0, #0]
 8000992:	4694      	mov	ip, r2
 8000994:	4463      	add	r3, ip
 8000996:	881a      	ldrh	r2, [r3, #0]
 8000998:	4955      	ldr	r1, [pc, #340]	; (8000af0 <HAL_PCD_EP_Close+0x1c0>)
 800099a:	4011      	ands	r1, r2
 800099c:	4a55      	ldr	r2, [pc, #340]	; (8000af4 <HAL_PCD_EP_Close+0x1c4>)
 800099e:	430a      	orrs	r2, r1
 80009a0:	801a      	strh	r2, [r3, #0]
 80009a2:	23f4      	movs	r3, #244	; 0xf4
 80009a4:	005b      	lsls	r3, r3, #1
 80009a6:	2200      	movs	r2, #0
 80009a8:	54c2      	strb	r2, [r0, r3]
 80009aa:	2000      	movs	r0, #0
 80009ac:	bd10      	pop	{r4, pc}
 80009ae:	247f      	movs	r4, #127	; 0x7f
 80009b0:	400c      	ands	r4, r1
 80009b2:	00e3      	lsls	r3, r4, #3
 80009b4:	1b1b      	subs	r3, r3, r4
 80009b6:	009b      	lsls	r3, r3, #2
 80009b8:	3328      	adds	r3, #40	; 0x28
 80009ba:	18c3      	adds	r3, r0, r3
 80009bc:	e7c4      	b.n	8000948 <HAL_PCD_EP_Close+0x18>
 80009be:	781a      	ldrb	r2, [r3, #0]
 80009c0:	0092      	lsls	r2, r2, #2
 80009c2:	6801      	ldr	r1, [r0, #0]
 80009c4:	468c      	mov	ip, r1
 80009c6:	4462      	add	r2, ip
 80009c8:	8811      	ldrh	r1, [r2, #0]
 80009ca:	044c      	lsls	r4, r1, #17
 80009cc:	d504      	bpl.n	80009d8 <HAL_PCD_EP_Close+0xa8>
 80009ce:	4c46      	ldr	r4, [pc, #280]	; (8000ae8 <HAL_PCD_EP_Close+0x1b8>)
 80009d0:	4021      	ands	r1, r4
 80009d2:	4c49      	ldr	r4, [pc, #292]	; (8000af8 <HAL_PCD_EP_Close+0x1c8>)
 80009d4:	4321      	orrs	r1, r4
 80009d6:	8011      	strh	r1, [r2, #0]
 80009d8:	781b      	ldrb	r3, [r3, #0]
 80009da:	009b      	lsls	r3, r3, #2
 80009dc:	6802      	ldr	r2, [r0, #0]
 80009de:	4694      	mov	ip, r2
 80009e0:	4463      	add	r3, ip
 80009e2:	881a      	ldrh	r2, [r3, #0]
 80009e4:	4945      	ldr	r1, [pc, #276]	; (8000afc <HAL_PCD_EP_Close+0x1cc>)
 80009e6:	4011      	ands	r1, r2
 80009e8:	4a42      	ldr	r2, [pc, #264]	; (8000af4 <HAL_PCD_EP_Close+0x1c4>)
 80009ea:	430a      	orrs	r2, r1
 80009ec:	801a      	strh	r2, [r3, #0]
 80009ee:	e7d8      	b.n	80009a2 <HAL_PCD_EP_Close+0x72>
 80009f0:	785a      	ldrb	r2, [r3, #1]
 80009f2:	2a00      	cmp	r2, #0
 80009f4:	d13a      	bne.n	8000a6c <HAL_PCD_EP_Close+0x13c>
 80009f6:	781a      	ldrb	r2, [r3, #0]
 80009f8:	0092      	lsls	r2, r2, #2
 80009fa:	6801      	ldr	r1, [r0, #0]
 80009fc:	468c      	mov	ip, r1
 80009fe:	4462      	add	r2, ip
 8000a00:	8811      	ldrh	r1, [r2, #0]
 8000a02:	044c      	lsls	r4, r1, #17
 8000a04:	d504      	bpl.n	8000a10 <HAL_PCD_EP_Close+0xe0>
 8000a06:	4c38      	ldr	r4, [pc, #224]	; (8000ae8 <HAL_PCD_EP_Close+0x1b8>)
 8000a08:	4021      	ands	r1, r4
 8000a0a:	4c3b      	ldr	r4, [pc, #236]	; (8000af8 <HAL_PCD_EP_Close+0x1c8>)
 8000a0c:	4321      	orrs	r1, r4
 8000a0e:	8011      	strh	r1, [r2, #0]
 8000a10:	781a      	ldrb	r2, [r3, #0]
 8000a12:	0092      	lsls	r2, r2, #2
 8000a14:	6801      	ldr	r1, [r0, #0]
 8000a16:	468c      	mov	ip, r1
 8000a18:	4462      	add	r2, ip
 8000a1a:	8811      	ldrh	r1, [r2, #0]
 8000a1c:	064c      	lsls	r4, r1, #25
 8000a1e:	d504      	bpl.n	8000a2a <HAL_PCD_EP_Close+0xfa>
 8000a20:	4c31      	ldr	r4, [pc, #196]	; (8000ae8 <HAL_PCD_EP_Close+0x1b8>)
 8000a22:	4021      	ands	r1, r4
 8000a24:	4c31      	ldr	r4, [pc, #196]	; (8000aec <HAL_PCD_EP_Close+0x1bc>)
 8000a26:	4321      	orrs	r1, r4
 8000a28:	8011      	strh	r1, [r2, #0]
 8000a2a:	781a      	ldrb	r2, [r3, #0]
 8000a2c:	0092      	lsls	r2, r2, #2
 8000a2e:	6801      	ldr	r1, [r0, #0]
 8000a30:	468c      	mov	ip, r1
 8000a32:	4462      	add	r2, ip
 8000a34:	8811      	ldrh	r1, [r2, #0]
 8000a36:	4c2c      	ldr	r4, [pc, #176]	; (8000ae8 <HAL_PCD_EP_Close+0x1b8>)
 8000a38:	400c      	ands	r4, r1
 8000a3a:	492c      	ldr	r1, [pc, #176]	; (8000aec <HAL_PCD_EP_Close+0x1bc>)
 8000a3c:	4321      	orrs	r1, r4
 8000a3e:	8011      	strh	r1, [r2, #0]
 8000a40:	781c      	ldrb	r4, [r3, #0]
 8000a42:	00a4      	lsls	r4, r4, #2
 8000a44:	6802      	ldr	r2, [r0, #0]
 8000a46:	4694      	mov	ip, r2
 8000a48:	4464      	add	r4, ip
 8000a4a:	8822      	ldrh	r2, [r4, #0]
 8000a4c:	492b      	ldr	r1, [pc, #172]	; (8000afc <HAL_PCD_EP_Close+0x1cc>)
 8000a4e:	400a      	ands	r2, r1
 8000a50:	4928      	ldr	r1, [pc, #160]	; (8000af4 <HAL_PCD_EP_Close+0x1c4>)
 8000a52:	430a      	orrs	r2, r1
 8000a54:	8022      	strh	r2, [r4, #0]
 8000a56:	781b      	ldrb	r3, [r3, #0]
 8000a58:	009b      	lsls	r3, r3, #2
 8000a5a:	6802      	ldr	r2, [r0, #0]
 8000a5c:	4694      	mov	ip, r2
 8000a5e:	4463      	add	r3, ip
 8000a60:	881a      	ldrh	r2, [r3, #0]
 8000a62:	4c23      	ldr	r4, [pc, #140]	; (8000af0 <HAL_PCD_EP_Close+0x1c0>)
 8000a64:	4022      	ands	r2, r4
 8000a66:	4311      	orrs	r1, r2
 8000a68:	8019      	strh	r1, [r3, #0]
 8000a6a:	e79a      	b.n	80009a2 <HAL_PCD_EP_Close+0x72>
 8000a6c:	781a      	ldrb	r2, [r3, #0]
 8000a6e:	0092      	lsls	r2, r2, #2
 8000a70:	6801      	ldr	r1, [r0, #0]
 8000a72:	468c      	mov	ip, r1
 8000a74:	4462      	add	r2, ip
 8000a76:	8811      	ldrh	r1, [r2, #0]
 8000a78:	044c      	lsls	r4, r1, #17
 8000a7a:	d504      	bpl.n	8000a86 <HAL_PCD_EP_Close+0x156>
 8000a7c:	4c1a      	ldr	r4, [pc, #104]	; (8000ae8 <HAL_PCD_EP_Close+0x1b8>)
 8000a7e:	4021      	ands	r1, r4
 8000a80:	4c1d      	ldr	r4, [pc, #116]	; (8000af8 <HAL_PCD_EP_Close+0x1c8>)
 8000a82:	4321      	orrs	r1, r4
 8000a84:	8011      	strh	r1, [r2, #0]
 8000a86:	781a      	ldrb	r2, [r3, #0]
 8000a88:	0092      	lsls	r2, r2, #2
 8000a8a:	6801      	ldr	r1, [r0, #0]
 8000a8c:	468c      	mov	ip, r1
 8000a8e:	4462      	add	r2, ip
 8000a90:	8811      	ldrh	r1, [r2, #0]
 8000a92:	064c      	lsls	r4, r1, #25
 8000a94:	d504      	bpl.n	8000aa0 <HAL_PCD_EP_Close+0x170>
 8000a96:	4c14      	ldr	r4, [pc, #80]	; (8000ae8 <HAL_PCD_EP_Close+0x1b8>)
 8000a98:	4021      	ands	r1, r4
 8000a9a:	4c14      	ldr	r4, [pc, #80]	; (8000aec <HAL_PCD_EP_Close+0x1bc>)
 8000a9c:	4321      	orrs	r1, r4
 8000a9e:	8011      	strh	r1, [r2, #0]
 8000aa0:	781a      	ldrb	r2, [r3, #0]
 8000aa2:	0092      	lsls	r2, r2, #2
 8000aa4:	6801      	ldr	r1, [r0, #0]
 8000aa6:	468c      	mov	ip, r1
 8000aa8:	4462      	add	r2, ip
 8000aaa:	8811      	ldrh	r1, [r2, #0]
 8000aac:	4c0e      	ldr	r4, [pc, #56]	; (8000ae8 <HAL_PCD_EP_Close+0x1b8>)
 8000aae:	400c      	ands	r4, r1
 8000ab0:	4911      	ldr	r1, [pc, #68]	; (8000af8 <HAL_PCD_EP_Close+0x1c8>)
 8000ab2:	4321      	orrs	r1, r4
 8000ab4:	8011      	strh	r1, [r2, #0]
 8000ab6:	781c      	ldrb	r4, [r3, #0]
 8000ab8:	00a4      	lsls	r4, r4, #2
 8000aba:	6802      	ldr	r2, [r0, #0]
 8000abc:	4694      	mov	ip, r2
 8000abe:	4464      	add	r4, ip
 8000ac0:	8822      	ldrh	r2, [r4, #0]
 8000ac2:	490b      	ldr	r1, [pc, #44]	; (8000af0 <HAL_PCD_EP_Close+0x1c0>)
 8000ac4:	400a      	ands	r2, r1
 8000ac6:	490b      	ldr	r1, [pc, #44]	; (8000af4 <HAL_PCD_EP_Close+0x1c4>)
 8000ac8:	430a      	orrs	r2, r1
 8000aca:	8022      	strh	r2, [r4, #0]
 8000acc:	781b      	ldrb	r3, [r3, #0]
 8000ace:	009b      	lsls	r3, r3, #2
 8000ad0:	6802      	ldr	r2, [r0, #0]
 8000ad2:	4694      	mov	ip, r2
 8000ad4:	4463      	add	r3, ip
 8000ad6:	881a      	ldrh	r2, [r3, #0]
 8000ad8:	4c08      	ldr	r4, [pc, #32]	; (8000afc <HAL_PCD_EP_Close+0x1cc>)
 8000ada:	4022      	ands	r2, r4
 8000adc:	4311      	orrs	r1, r2
 8000ade:	8019      	strh	r1, [r3, #0]
 8000ae0:	e75f      	b.n	80009a2 <HAL_PCD_EP_Close+0x72>
 8000ae2:	2002      	movs	r0, #2
 8000ae4:	e762      	b.n	80009ac <HAL_PCD_EP_Close+0x7c>
 8000ae6:	46c0      	nop			; (mov r8, r8)
 8000ae8:	00000f0f 	.word	0x00000f0f
 8000aec:	ffff80c0 	.word	0xffff80c0
 8000af0:	ffff8fbf 	.word	0xffff8fbf
 8000af4:	ffff8080 	.word	0xffff8080
 8000af8:	ffffc080 	.word	0xffffc080
 8000afc:	ffffbf8f 	.word	0xffffbf8f

08000b00 <HAL_PCD_EP_Receive>:
 8000b00:	b570      	push	{r4, r5, r6, lr}
 8000b02:	247f      	movs	r4, #127	; 0x7f
 8000b04:	4021      	ands	r1, r4
 8000b06:	00cc      	lsls	r4, r1, #3
 8000b08:	1a64      	subs	r4, r4, r1
 8000b0a:	00a4      	lsls	r4, r4, #2
 8000b0c:	1904      	adds	r4, r0, r4
 8000b0e:	0025      	movs	r5, r4
 8000b10:	3519      	adds	r5, #25
 8000b12:	35ff      	adds	r5, #255	; 0xff
 8000b14:	602a      	str	r2, [r5, #0]
 8000b16:	0022      	movs	r2, r4
 8000b18:	321d      	adds	r2, #29
 8000b1a:	32ff      	adds	r2, #255	; 0xff
 8000b1c:	6013      	str	r3, [r2, #0]
 8000b1e:	3508      	adds	r5, #8
 8000b20:	2200      	movs	r2, #0
 8000b22:	602a      	str	r2, [r5, #0]
 8000b24:	3d17      	subs	r5, #23
 8000b26:	702a      	strb	r2, [r5, #0]
 8000b28:	0022      	movs	r2, r4
 8000b2a:	3209      	adds	r2, #9
 8000b2c:	32ff      	adds	r2, #255	; 0xff
 8000b2e:	7011      	strb	r1, [r2, #0]
 8000b30:	3415      	adds	r4, #21
 8000b32:	34ff      	adds	r4, #255	; 0xff
 8000b34:	6822      	ldr	r2, [r4, #0]
 8000b36:	4293      	cmp	r3, r2
 8000b38:	d941      	bls.n	8000bbe <HAL_PCD_EP_Receive+0xbe>
 8000b3a:	00cc      	lsls	r4, r1, #3
 8000b3c:	1a64      	subs	r4, r4, r1
 8000b3e:	00a4      	lsls	r4, r4, #2
 8000b40:	1904      	adds	r4, r0, r4
 8000b42:	341d      	adds	r4, #29
 8000b44:	34ff      	adds	r4, #255	; 0xff
 8000b46:	1a9b      	subs	r3, r3, r2
 8000b48:	6023      	str	r3, [r4, #0]
 8000b4a:	00cb      	lsls	r3, r1, #3
 8000b4c:	1a5b      	subs	r3, r3, r1
 8000b4e:	009b      	lsls	r3, r3, #2
 8000b50:	18c3      	adds	r3, r0, r3
 8000b52:	3313      	adds	r3, #19
 8000b54:	33ff      	adds	r3, #255	; 0xff
 8000b56:	781b      	ldrb	r3, [r3, #0]
 8000b58:	2b00      	cmp	r3, #0
 8000b5a:	d143      	bne.n	8000be4 <HAL_PCD_EP_Receive+0xe4>
 8000b5c:	6804      	ldr	r4, [r0, #0]
 8000b5e:	3350      	adds	r3, #80	; 0x50
 8000b60:	5ae5      	ldrh	r5, [r4, r3]
 8000b62:	00cb      	lsls	r3, r1, #3
 8000b64:	1a5b      	subs	r3, r3, r1
 8000b66:	009b      	lsls	r3, r3, #2
 8000b68:	18c3      	adds	r3, r0, r3
 8000b6a:	3309      	adds	r3, #9
 8000b6c:	33ff      	adds	r3, #255	; 0xff
 8000b6e:	781b      	ldrb	r3, [r3, #0]
 8000b70:	00db      	lsls	r3, r3, #3
 8000b72:	18eb      	adds	r3, r5, r3
 8000b74:	4d76      	ldr	r5, [pc, #472]	; (8000d50 <HAL_PCD_EP_Receive+0x250>)
 8000b76:	46ac      	mov	ip, r5
 8000b78:	4464      	add	r4, ip
 8000b7a:	191c      	adds	r4, r3, r4
 8000b7c:	2a3e      	cmp	r2, #62	; 0x3e
 8000b7e:	d928      	bls.n	8000bd2 <HAL_PCD_EP_Receive+0xd2>
 8000b80:	0953      	lsrs	r3, r2, #5
 8000b82:	b29b      	uxth	r3, r3
 8000b84:	06d2      	lsls	r2, r2, #27
 8000b86:	d101      	bne.n	8000b8c <HAL_PCD_EP_Receive+0x8c>
 8000b88:	3b01      	subs	r3, #1
 8000b8a:	b29b      	uxth	r3, r3
 8000b8c:	029b      	lsls	r3, r3, #10
 8000b8e:	4a71      	ldr	r2, [pc, #452]	; (8000d54 <HAL_PCD_EP_Receive+0x254>)
 8000b90:	4313      	orrs	r3, r2
 8000b92:	8023      	strh	r3, [r4, #0]
 8000b94:	00cb      	lsls	r3, r1, #3
 8000b96:	1a59      	subs	r1, r3, r1
 8000b98:	0089      	lsls	r1, r1, #2
 8000b9a:	1841      	adds	r1, r0, r1
 8000b9c:	3109      	adds	r1, #9
 8000b9e:	31ff      	adds	r1, #255	; 0xff
 8000ba0:	780a      	ldrb	r2, [r1, #0]
 8000ba2:	0092      	lsls	r2, r2, #2
 8000ba4:	6803      	ldr	r3, [r0, #0]
 8000ba6:	189b      	adds	r3, r3, r2
 8000ba8:	8819      	ldrh	r1, [r3, #0]
 8000baa:	4a6b      	ldr	r2, [pc, #428]	; (8000d58 <HAL_PCD_EP_Receive+0x258>)
 8000bac:	4011      	ands	r1, r2
 8000bae:	22c0      	movs	r2, #192	; 0xc0
 8000bb0:	0192      	lsls	r2, r2, #6
 8000bb2:	4051      	eors	r1, r2
 8000bb4:	4a69      	ldr	r2, [pc, #420]	; (8000d5c <HAL_PCD_EP_Receive+0x25c>)
 8000bb6:	430a      	orrs	r2, r1
 8000bb8:	801a      	strh	r2, [r3, #0]
 8000bba:	2000      	movs	r0, #0
 8000bbc:	bd70      	pop	{r4, r5, r6, pc}
 8000bbe:	00ca      	lsls	r2, r1, #3
 8000bc0:	1a52      	subs	r2, r2, r1
 8000bc2:	0092      	lsls	r2, r2, #2
 8000bc4:	1882      	adds	r2, r0, r2
 8000bc6:	321d      	adds	r2, #29
 8000bc8:	32ff      	adds	r2, #255	; 0xff
 8000bca:	2400      	movs	r4, #0
 8000bcc:	6014      	str	r4, [r2, #0]
 8000bce:	001a      	movs	r2, r3
 8000bd0:	e7bb      	b.n	8000b4a <HAL_PCD_EP_Receive+0x4a>
 8000bd2:	0853      	lsrs	r3, r2, #1
 8000bd4:	b29b      	uxth	r3, r3
 8000bd6:	07d2      	lsls	r2, r2, #31
 8000bd8:	d501      	bpl.n	8000bde <HAL_PCD_EP_Receive+0xde>
 8000bda:	3301      	adds	r3, #1
 8000bdc:	b29b      	uxth	r3, r3
 8000bde:	029b      	lsls	r3, r3, #10
 8000be0:	8023      	strh	r3, [r4, #0]
 8000be2:	e7d7      	b.n	8000b94 <HAL_PCD_EP_Receive+0x94>
 8000be4:	00cb      	lsls	r3, r1, #3
 8000be6:	1a5b      	subs	r3, r3, r1
 8000be8:	009b      	lsls	r3, r3, #2
 8000bea:	18c3      	adds	r3, r0, r3
 8000bec:	330a      	adds	r3, #10
 8000bee:	33ff      	adds	r3, #255	; 0xff
 8000bf0:	781b      	ldrb	r3, [r3, #0]
 8000bf2:	2b00      	cmp	r3, #0
 8000bf4:	d169      	bne.n	8000cca <HAL_PCD_EP_Receive+0x1ca>
 8000bf6:	6804      	ldr	r4, [r0, #0]
 8000bf8:	3350      	adds	r3, #80	; 0x50
 8000bfa:	5ae5      	ldrh	r5, [r4, r3]
 8000bfc:	00cb      	lsls	r3, r1, #3
 8000bfe:	1a5b      	subs	r3, r3, r1
 8000c00:	009b      	lsls	r3, r3, #2
 8000c02:	18c3      	adds	r3, r0, r3
 8000c04:	3309      	adds	r3, #9
 8000c06:	33ff      	adds	r3, #255	; 0xff
 8000c08:	781b      	ldrb	r3, [r3, #0]
 8000c0a:	00db      	lsls	r3, r3, #3
 8000c0c:	18eb      	adds	r3, r5, r3
 8000c0e:	4d54      	ldr	r5, [pc, #336]	; (8000d60 <HAL_PCD_EP_Receive+0x260>)
 8000c10:	46ac      	mov	ip, r5
 8000c12:	4464      	add	r4, ip
 8000c14:	191c      	adds	r4, r3, r4
 8000c16:	2a3e      	cmp	r2, #62	; 0x3e
 8000c18:	d92d      	bls.n	8000c76 <HAL_PCD_EP_Receive+0x176>
 8000c1a:	0953      	lsrs	r3, r2, #5
 8000c1c:	b29b      	uxth	r3, r3
 8000c1e:	06d5      	lsls	r5, r2, #27
 8000c20:	d101      	bne.n	8000c26 <HAL_PCD_EP_Receive+0x126>
 8000c22:	3b01      	subs	r3, #1
 8000c24:	b29b      	uxth	r3, r3
 8000c26:	029b      	lsls	r3, r3, #10
 8000c28:	4d4a      	ldr	r5, [pc, #296]	; (8000d54 <HAL_PCD_EP_Receive+0x254>)
 8000c2a:	432b      	orrs	r3, r5
 8000c2c:	8023      	strh	r3, [r4, #0]
 8000c2e:	00cb      	lsls	r3, r1, #3
 8000c30:	1a5b      	subs	r3, r3, r1
 8000c32:	009b      	lsls	r3, r3, #2
 8000c34:	18c3      	adds	r3, r0, r3
 8000c36:	330a      	adds	r3, #10
 8000c38:	33ff      	adds	r3, #255	; 0xff
 8000c3a:	781b      	ldrb	r3, [r3, #0]
 8000c3c:	2b00      	cmp	r3, #0
 8000c3e:	d171      	bne.n	8000d24 <HAL_PCD_EP_Receive+0x224>
 8000c40:	6805      	ldr	r5, [r0, #0]
 8000c42:	2350      	movs	r3, #80	; 0x50
 8000c44:	5aec      	ldrh	r4, [r5, r3]
 8000c46:	00cb      	lsls	r3, r1, #3
 8000c48:	1a5b      	subs	r3, r3, r1
 8000c4a:	009b      	lsls	r3, r3, #2
 8000c4c:	18c3      	adds	r3, r0, r3
 8000c4e:	3309      	adds	r3, #9
 8000c50:	33ff      	adds	r3, #255	; 0xff
 8000c52:	781b      	ldrb	r3, [r3, #0]
 8000c54:	00db      	lsls	r3, r3, #3
 8000c56:	18e4      	adds	r4, r4, r3
 8000c58:	4b3d      	ldr	r3, [pc, #244]	; (8000d50 <HAL_PCD_EP_Receive+0x250>)
 8000c5a:	469c      	mov	ip, r3
 8000c5c:	4465      	add	r5, ip
 8000c5e:	1964      	adds	r4, r4, r5
 8000c60:	0953      	lsrs	r3, r2, #5
 8000c62:	b29b      	uxth	r3, r3
 8000c64:	06d2      	lsls	r2, r2, #27
 8000c66:	d101      	bne.n	8000c6c <HAL_PCD_EP_Receive+0x16c>
 8000c68:	3b01      	subs	r3, #1
 8000c6a:	b29b      	uxth	r3, r3
 8000c6c:	029b      	lsls	r3, r3, #10
 8000c6e:	4a39      	ldr	r2, [pc, #228]	; (8000d54 <HAL_PCD_EP_Receive+0x254>)
 8000c70:	4313      	orrs	r3, r2
 8000c72:	8023      	strh	r3, [r4, #0]
 8000c74:	e78e      	b.n	8000b94 <HAL_PCD_EP_Receive+0x94>
 8000c76:	0853      	lsrs	r3, r2, #1
 8000c78:	b29b      	uxth	r3, r3
 8000c7a:	07d5      	lsls	r5, r2, #31
 8000c7c:	d501      	bpl.n	8000c82 <HAL_PCD_EP_Receive+0x182>
 8000c7e:	3301      	adds	r3, #1
 8000c80:	b29b      	uxth	r3, r3
 8000c82:	029b      	lsls	r3, r3, #10
 8000c84:	8023      	strh	r3, [r4, #0]
 8000c86:	00cb      	lsls	r3, r1, #3
 8000c88:	1a5b      	subs	r3, r3, r1
 8000c8a:	009b      	lsls	r3, r3, #2
 8000c8c:	18c3      	adds	r3, r0, r3
 8000c8e:	330a      	adds	r3, #10
 8000c90:	33ff      	adds	r3, #255	; 0xff
 8000c92:	781b      	ldrb	r3, [r3, #0]
 8000c94:	2b00      	cmp	r3, #0
 8000c96:	d145      	bne.n	8000d24 <HAL_PCD_EP_Receive+0x224>
 8000c98:	6805      	ldr	r5, [r0, #0]
 8000c9a:	2350      	movs	r3, #80	; 0x50
 8000c9c:	5aec      	ldrh	r4, [r5, r3]
 8000c9e:	00cb      	lsls	r3, r1, #3
 8000ca0:	1a5b      	subs	r3, r3, r1
 8000ca2:	009b      	lsls	r3, r3, #2
 8000ca4:	18c3      	adds	r3, r0, r3
 8000ca6:	3309      	adds	r3, #9
 8000ca8:	33ff      	adds	r3, #255	; 0xff
 8000caa:	781b      	ldrb	r3, [r3, #0]
 8000cac:	00db      	lsls	r3, r3, #3
 8000cae:	18e4      	adds	r4, r4, r3
 8000cb0:	4b27      	ldr	r3, [pc, #156]	; (8000d50 <HAL_PCD_EP_Receive+0x250>)
 8000cb2:	469c      	mov	ip, r3
 8000cb4:	4465      	add	r5, ip
 8000cb6:	1964      	adds	r4, r4, r5
 8000cb8:	0853      	lsrs	r3, r2, #1
 8000cba:	b29b      	uxth	r3, r3
 8000cbc:	07d2      	lsls	r2, r2, #31
 8000cbe:	d501      	bpl.n	8000cc4 <HAL_PCD_EP_Receive+0x1c4>
 8000cc0:	3301      	adds	r3, #1
 8000cc2:	b29b      	uxth	r3, r3
 8000cc4:	029b      	lsls	r3, r3, #10
 8000cc6:	8023      	strh	r3, [r4, #0]
 8000cc8:	e764      	b.n	8000b94 <HAL_PCD_EP_Receive+0x94>
 8000cca:	2b01      	cmp	r3, #1
 8000ccc:	d000      	beq.n	8000cd0 <HAL_PCD_EP_Receive+0x1d0>
 8000cce:	e761      	b.n	8000b94 <HAL_PCD_EP_Receive+0x94>
 8000cd0:	6805      	ldr	r5, [r0, #0]
 8000cd2:	334f      	adds	r3, #79	; 0x4f
 8000cd4:	5aec      	ldrh	r4, [r5, r3]
 8000cd6:	00cb      	lsls	r3, r1, #3
 8000cd8:	1a5b      	subs	r3, r3, r1
 8000cda:	009b      	lsls	r3, r3, #2
 8000cdc:	18c3      	adds	r3, r0, r3
 8000cde:	001e      	movs	r6, r3
 8000ce0:	3609      	adds	r6, #9
 8000ce2:	36ff      	adds	r6, #255	; 0xff
 8000ce4:	7836      	ldrb	r6, [r6, #0]
 8000ce6:	00f6      	lsls	r6, r6, #3
 8000ce8:	19ad      	adds	r5, r5, r6
 8000cea:	1964      	adds	r4, r4, r5
 8000cec:	4d1c      	ldr	r5, [pc, #112]	; (8000d60 <HAL_PCD_EP_Receive+0x260>)
 8000cee:	46ac      	mov	ip, r5
 8000cf0:	4464      	add	r4, ip
 8000cf2:	8022      	strh	r2, [r4, #0]
 8000cf4:	330a      	adds	r3, #10
 8000cf6:	33ff      	adds	r3, #255	; 0xff
 8000cf8:	781b      	ldrb	r3, [r3, #0]
 8000cfa:	2b00      	cmp	r3, #0
 8000cfc:	d112      	bne.n	8000d24 <HAL_PCD_EP_Receive+0x224>
 8000cfe:	6805      	ldr	r5, [r0, #0]
 8000d00:	3350      	adds	r3, #80	; 0x50
 8000d02:	5aec      	ldrh	r4, [r5, r3]
 8000d04:	00cb      	lsls	r3, r1, #3
 8000d06:	1a5b      	subs	r3, r3, r1
 8000d08:	009b      	lsls	r3, r3, #2
 8000d0a:	18c3      	adds	r3, r0, r3
 8000d0c:	3309      	adds	r3, #9
 8000d0e:	33ff      	adds	r3, #255	; 0xff
 8000d10:	781b      	ldrb	r3, [r3, #0]
 8000d12:	00db      	lsls	r3, r3, #3
 8000d14:	18e4      	adds	r4, r4, r3
 8000d16:	4b0e      	ldr	r3, [pc, #56]	; (8000d50 <HAL_PCD_EP_Receive+0x250>)
 8000d18:	469c      	mov	ip, r3
 8000d1a:	4465      	add	r5, ip
 8000d1c:	1964      	adds	r4, r4, r5
 8000d1e:	2a3e      	cmp	r2, #62	; 0x3e
 8000d20:	d9ca      	bls.n	8000cb8 <HAL_PCD_EP_Receive+0x1b8>
 8000d22:	e79d      	b.n	8000c60 <HAL_PCD_EP_Receive+0x160>
 8000d24:	2b01      	cmp	r3, #1
 8000d26:	d000      	beq.n	8000d2a <HAL_PCD_EP_Receive+0x22a>
 8000d28:	e734      	b.n	8000b94 <HAL_PCD_EP_Receive+0x94>
 8000d2a:	6804      	ldr	r4, [r0, #0]
 8000d2c:	334f      	adds	r3, #79	; 0x4f
 8000d2e:	5ae5      	ldrh	r5, [r4, r3]
 8000d30:	00cb      	lsls	r3, r1, #3
 8000d32:	1a5b      	subs	r3, r3, r1
 8000d34:	009b      	lsls	r3, r3, #2
 8000d36:	18c3      	adds	r3, r0, r3
 8000d38:	3309      	adds	r3, #9
 8000d3a:	33ff      	adds	r3, #255	; 0xff
 8000d3c:	781b      	ldrb	r3, [r3, #0]
 8000d3e:	00db      	lsls	r3, r3, #3
 8000d40:	18e4      	adds	r4, r4, r3
 8000d42:	192c      	adds	r4, r5, r4
 8000d44:	4b02      	ldr	r3, [pc, #8]	; (8000d50 <HAL_PCD_EP_Receive+0x250>)
 8000d46:	469c      	mov	ip, r3
 8000d48:	4464      	add	r4, ip
 8000d4a:	8022      	strh	r2, [r4, #0]
 8000d4c:	e722      	b.n	8000b94 <HAL_PCD_EP_Receive+0x94>
 8000d4e:	46c0      	nop			; (mov r8, r8)
 8000d50:	00000406 	.word	0x00000406
 8000d54:	ffff8000 	.word	0xffff8000
 8000d58:	ffffbf8f 	.word	0xffffbf8f
 8000d5c:	ffff8080 	.word	0xffff8080
 8000d60:	00000402 	.word	0x00000402

08000d64 <HAL_PCD_EP_GetRxCount>:
 8000d64:	000b      	movs	r3, r1
 8000d66:	217f      	movs	r1, #127	; 0x7f
 8000d68:	4019      	ands	r1, r3
 8000d6a:	00cb      	lsls	r3, r1, #3
 8000d6c:	1a59      	subs	r1, r3, r1
 8000d6e:	0089      	lsls	r1, r1, #2
 8000d70:	1840      	adds	r0, r0, r1
 8000d72:	3021      	adds	r0, #33	; 0x21
 8000d74:	30ff      	adds	r0, #255	; 0xff
 8000d76:	8800      	ldrh	r0, [r0, #0]
 8000d78:	4770      	bx	lr
	...

08000d7c <HAL_PCD_EP_SetStall>:
 8000d7c:	b530      	push	{r4, r5, lr}
 8000d7e:	23f4      	movs	r3, #244	; 0xf4
 8000d80:	005b      	lsls	r3, r3, #1
 8000d82:	5cc3      	ldrb	r3, [r0, r3]
 8000d84:	2b01      	cmp	r3, #1
 8000d86:	d057      	beq.n	8000e38 <HAL_PCD_EP_SetStall+0xbc>
 8000d88:	23f4      	movs	r3, #244	; 0xf4
 8000d8a:	005b      	lsls	r3, r3, #1
 8000d8c:	2201      	movs	r2, #1
 8000d8e:	54c2      	strb	r2, [r0, r3]
 8000d90:	b24b      	sxtb	r3, r1
 8000d92:	2b00      	cmp	r3, #0
 8000d94:	db25      	blt.n	8000de2 <HAL_PCD_EP_SetStall+0x66>
 8000d96:	00cb      	lsls	r3, r1, #3
 8000d98:	1a5a      	subs	r2, r3, r1
 8000d9a:	0092      	lsls	r2, r2, #2
 8000d9c:	1882      	adds	r2, r0, r2
 8000d9e:	0014      	movs	r4, r2
 8000da0:	340b      	adds	r4, #11
 8000da2:	34ff      	adds	r4, #255	; 0xff
 8000da4:	2501      	movs	r5, #1
 8000da6:	7025      	strb	r5, [r4, #0]
 8000da8:	247f      	movs	r4, #127	; 0x7f
 8000daa:	400c      	ands	r4, r1
 8000dac:	3209      	adds	r2, #9
 8000dae:	32ff      	adds	r2, #255	; 0xff
 8000db0:	7014      	strb	r4, [r2, #0]
 8000db2:	1a5b      	subs	r3, r3, r1
 8000db4:	009b      	lsls	r3, r3, #2
 8000db6:	18c3      	adds	r3, r0, r3
 8000db8:	330a      	adds	r3, #10
 8000dba:	33ff      	adds	r3, #255	; 0xff
 8000dbc:	2200      	movs	r2, #0
 8000dbe:	701a      	strb	r2, [r3, #0]
 8000dc0:	2c00      	cmp	r4, #0
 8000dc2:	d12b      	bne.n	8000e1c <HAL_PCD_EP_SetStall+0xa0>
 8000dc4:	6801      	ldr	r1, [r0, #0]
 8000dc6:	880a      	ldrh	r2, [r1, #0]
 8000dc8:	4b1c      	ldr	r3, [pc, #112]	; (8000e3c <HAL_PCD_EP_SetStall+0xc0>)
 8000dca:	401a      	ands	r2, r3
 8000dcc:	4b1c      	ldr	r3, [pc, #112]	; (8000e40 <HAL_PCD_EP_SetStall+0xc4>)
 8000dce:	405a      	eors	r2, r3
 8000dd0:	4b1c      	ldr	r3, [pc, #112]	; (8000e44 <HAL_PCD_EP_SetStall+0xc8>)
 8000dd2:	4313      	orrs	r3, r2
 8000dd4:	800b      	strh	r3, [r1, #0]
 8000dd6:	23f4      	movs	r3, #244	; 0xf4
 8000dd8:	005b      	lsls	r3, r3, #1
 8000dda:	2200      	movs	r2, #0
 8000ddc:	54c2      	strb	r2, [r0, r3]
 8000dde:	2000      	movs	r0, #0
 8000de0:	bd30      	pop	{r4, r5, pc}
 8000de2:	237f      	movs	r3, #127	; 0x7f
 8000de4:	400b      	ands	r3, r1
 8000de6:	00da      	lsls	r2, r3, #3
 8000de8:	1ad2      	subs	r2, r2, r3
 8000dea:	0092      	lsls	r2, r2, #2
 8000dec:	1882      	adds	r2, r0, r2
 8000dee:	0014      	movs	r4, r2
 8000df0:	342a      	adds	r4, #42	; 0x2a
 8000df2:	2101      	movs	r1, #1
 8000df4:	7021      	strb	r1, [r4, #0]
 8000df6:	3c02      	subs	r4, #2
 8000df8:	7023      	strb	r3, [r4, #0]
 8000dfa:	3229      	adds	r2, #41	; 0x29
 8000dfc:	7011      	strb	r1, [r2, #0]
 8000dfe:	2b00      	cmp	r3, #0
 8000e00:	d0e0      	beq.n	8000dc4 <HAL_PCD_EP_SetStall+0x48>
 8000e02:	009b      	lsls	r3, r3, #2
 8000e04:	6802      	ldr	r2, [r0, #0]
 8000e06:	4694      	mov	ip, r2
 8000e08:	4463      	add	r3, ip
 8000e0a:	881a      	ldrh	r2, [r3, #0]
 8000e0c:	490e      	ldr	r1, [pc, #56]	; (8000e48 <HAL_PCD_EP_SetStall+0xcc>)
 8000e0e:	400a      	ands	r2, r1
 8000e10:	2110      	movs	r1, #16
 8000e12:	404a      	eors	r2, r1
 8000e14:	490b      	ldr	r1, [pc, #44]	; (8000e44 <HAL_PCD_EP_SetStall+0xc8>)
 8000e16:	430a      	orrs	r2, r1
 8000e18:	801a      	strh	r2, [r3, #0]
 8000e1a:	e7dc      	b.n	8000dd6 <HAL_PCD_EP_SetStall+0x5a>
 8000e1c:	00a4      	lsls	r4, r4, #2
 8000e1e:	6803      	ldr	r3, [r0, #0]
 8000e20:	469c      	mov	ip, r3
 8000e22:	4464      	add	r4, ip
 8000e24:	8822      	ldrh	r2, [r4, #0]
 8000e26:	4b09      	ldr	r3, [pc, #36]	; (8000e4c <HAL_PCD_EP_SetStall+0xd0>)
 8000e28:	401a      	ands	r2, r3
 8000e2a:	2380      	movs	r3, #128	; 0x80
 8000e2c:	015b      	lsls	r3, r3, #5
 8000e2e:	405a      	eors	r2, r3
 8000e30:	4b04      	ldr	r3, [pc, #16]	; (8000e44 <HAL_PCD_EP_SetStall+0xc8>)
 8000e32:	4313      	orrs	r3, r2
 8000e34:	8023      	strh	r3, [r4, #0]
 8000e36:	e7ce      	b.n	8000dd6 <HAL_PCD_EP_SetStall+0x5a>
 8000e38:	2002      	movs	r0, #2
 8000e3a:	e7d1      	b.n	8000de0 <HAL_PCD_EP_SetStall+0x64>
 8000e3c:	ffffbfbf 	.word	0xffffbfbf
 8000e40:	00001010 	.word	0x00001010
 8000e44:	ffff8080 	.word	0xffff8080
 8000e48:	ffff8fbf 	.word	0xffff8fbf
 8000e4c:	ffffbf8f 	.word	0xffffbf8f

08000e50 <HAL_PCD_EP_ClrStall>:
 8000e50:	b510      	push	{r4, lr}
 8000e52:	b24a      	sxtb	r2, r1
 8000e54:	2a00      	cmp	r2, #0
 8000e56:	db38      	blt.n	8000eca <HAL_PCD_EP_ClrStall+0x7a>
 8000e58:	00cb      	lsls	r3, r1, #3
 8000e5a:	1a5b      	subs	r3, r3, r1
 8000e5c:	009b      	lsls	r3, r3, #2
 8000e5e:	3309      	adds	r3, #9
 8000e60:	33ff      	adds	r3, #255	; 0xff
 8000e62:	18c3      	adds	r3, r0, r3
 8000e64:	2400      	movs	r4, #0
 8000e66:	709c      	strb	r4, [r3, #2]
 8000e68:	347f      	adds	r4, #127	; 0x7f
 8000e6a:	4021      	ands	r1, r4
 8000e6c:	7019      	strb	r1, [r3, #0]
 8000e6e:	0fd2      	lsrs	r2, r2, #31
 8000e70:	705a      	strb	r2, [r3, #1]
 8000e72:	22f4      	movs	r2, #244	; 0xf4
 8000e74:	0052      	lsls	r2, r2, #1
 8000e76:	5c82      	ldrb	r2, [r0, r2]
 8000e78:	2a01      	cmp	r2, #1
 8000e7a:	d04a      	beq.n	8000f12 <HAL_PCD_EP_ClrStall+0xc2>
 8000e7c:	22f4      	movs	r2, #244	; 0xf4
 8000e7e:	0052      	lsls	r2, r2, #1
 8000e80:	2101      	movs	r1, #1
 8000e82:	5481      	strb	r1, [r0, r2]
 8000e84:	785a      	ldrb	r2, [r3, #1]
 8000e86:	2a00      	cmp	r2, #0
 8000e88:	d027      	beq.n	8000eda <HAL_PCD_EP_ClrStall+0x8a>
 8000e8a:	781a      	ldrb	r2, [r3, #0]
 8000e8c:	0092      	lsls	r2, r2, #2
 8000e8e:	6801      	ldr	r1, [r0, #0]
 8000e90:	468c      	mov	ip, r1
 8000e92:	4462      	add	r2, ip
 8000e94:	8811      	ldrh	r1, [r2, #0]
 8000e96:	064c      	lsls	r4, r1, #25
 8000e98:	d504      	bpl.n	8000ea4 <HAL_PCD_EP_ClrStall+0x54>
 8000e9a:	4c1f      	ldr	r4, [pc, #124]	; (8000f18 <HAL_PCD_EP_ClrStall+0xc8>)
 8000e9c:	4021      	ands	r1, r4
 8000e9e:	4c1f      	ldr	r4, [pc, #124]	; (8000f1c <HAL_PCD_EP_ClrStall+0xcc>)
 8000ea0:	4321      	orrs	r1, r4
 8000ea2:	8011      	strh	r1, [r2, #0]
 8000ea4:	781a      	ldrb	r2, [r3, #0]
 8000ea6:	0092      	lsls	r2, r2, #2
 8000ea8:	6803      	ldr	r3, [r0, #0]
 8000eaa:	469c      	mov	ip, r3
 8000eac:	4462      	add	r2, ip
 8000eae:	8813      	ldrh	r3, [r2, #0]
 8000eb0:	491b      	ldr	r1, [pc, #108]	; (8000f20 <HAL_PCD_EP_ClrStall+0xd0>)
 8000eb2:	400b      	ands	r3, r1
 8000eb4:	2130      	movs	r1, #48	; 0x30
 8000eb6:	404b      	eors	r3, r1
 8000eb8:	491a      	ldr	r1, [pc, #104]	; (8000f24 <HAL_PCD_EP_ClrStall+0xd4>)
 8000eba:	430b      	orrs	r3, r1
 8000ebc:	8013      	strh	r3, [r2, #0]
 8000ebe:	23f4      	movs	r3, #244	; 0xf4
 8000ec0:	005b      	lsls	r3, r3, #1
 8000ec2:	2200      	movs	r2, #0
 8000ec4:	54c2      	strb	r2, [r0, r3]
 8000ec6:	2000      	movs	r0, #0
 8000ec8:	bd10      	pop	{r4, pc}
 8000eca:	247f      	movs	r4, #127	; 0x7f
 8000ecc:	400c      	ands	r4, r1
 8000ece:	00e3      	lsls	r3, r4, #3
 8000ed0:	1b1b      	subs	r3, r3, r4
 8000ed2:	009b      	lsls	r3, r3, #2
 8000ed4:	3328      	adds	r3, #40	; 0x28
 8000ed6:	18c3      	adds	r3, r0, r3
 8000ed8:	e7c4      	b.n	8000e64 <HAL_PCD_EP_ClrStall+0x14>
 8000eda:	781a      	ldrb	r2, [r3, #0]
 8000edc:	0092      	lsls	r2, r2, #2
 8000ede:	6801      	ldr	r1, [r0, #0]
 8000ee0:	468c      	mov	ip, r1
 8000ee2:	4462      	add	r2, ip
 8000ee4:	8811      	ldrh	r1, [r2, #0]
 8000ee6:	044c      	lsls	r4, r1, #17
 8000ee8:	d504      	bpl.n	8000ef4 <HAL_PCD_EP_ClrStall+0xa4>
 8000eea:	4c0b      	ldr	r4, [pc, #44]	; (8000f18 <HAL_PCD_EP_ClrStall+0xc8>)
 8000eec:	4021      	ands	r1, r4
 8000eee:	4c0e      	ldr	r4, [pc, #56]	; (8000f28 <HAL_PCD_EP_ClrStall+0xd8>)
 8000ef0:	4321      	orrs	r1, r4
 8000ef2:	8011      	strh	r1, [r2, #0]
 8000ef4:	781b      	ldrb	r3, [r3, #0]
 8000ef6:	009b      	lsls	r3, r3, #2
 8000ef8:	6802      	ldr	r2, [r0, #0]
 8000efa:	4694      	mov	ip, r2
 8000efc:	4463      	add	r3, ip
 8000efe:	8819      	ldrh	r1, [r3, #0]
 8000f00:	4a0a      	ldr	r2, [pc, #40]	; (8000f2c <HAL_PCD_EP_ClrStall+0xdc>)
 8000f02:	4011      	ands	r1, r2
 8000f04:	22c0      	movs	r2, #192	; 0xc0
 8000f06:	0192      	lsls	r2, r2, #6
 8000f08:	4051      	eors	r1, r2
 8000f0a:	4a06      	ldr	r2, [pc, #24]	; (8000f24 <HAL_PCD_EP_ClrStall+0xd4>)
 8000f0c:	430a      	orrs	r2, r1
 8000f0e:	801a      	strh	r2, [r3, #0]
 8000f10:	e7d5      	b.n	8000ebe <HAL_PCD_EP_ClrStall+0x6e>
 8000f12:	2002      	movs	r0, #2
 8000f14:	e7d8      	b.n	8000ec8 <HAL_PCD_EP_ClrStall+0x78>
 8000f16:	46c0      	nop			; (mov r8, r8)
 8000f18:	00000f0f 	.word	0x00000f0f
 8000f1c:	ffff80c0 	.word	0xffff80c0
 8000f20:	ffff8fbf 	.word	0xffff8fbf
 8000f24:	ffff8080 	.word	0xffff8080
 8000f28:	ffffc080 	.word	0xffffc080
 8000f2c:	ffffbf8f 	.word	0xffffbf8f

08000f30 <PCD_WritePMA>:
 8000f30:	b510      	push	{r4, lr}
 8000f32:	3301      	adds	r3, #1
 8000f34:	085b      	lsrs	r3, r3, #1
 8000f36:	2480      	movs	r4, #128	; 0x80
 8000f38:	00e4      	lsls	r4, r4, #3
 8000f3a:	46a4      	mov	ip, r4
 8000f3c:	4460      	add	r0, ip
 8000f3e:	1880      	adds	r0, r0, r2
 8000f40:	2b00      	cmp	r3, #0
 8000f42:	d00a      	beq.n	8000f5a <PCD_WritePMA+0x2a>
 8000f44:	000c      	movs	r4, r1
 8000f46:	1a41      	subs	r1, r0, r1
 8000f48:	7860      	ldrb	r0, [r4, #1]
 8000f4a:	0200      	lsls	r0, r0, #8
 8000f4c:	7822      	ldrb	r2, [r4, #0]
 8000f4e:	4302      	orrs	r2, r0
 8000f50:	530a      	strh	r2, [r1, r4]
 8000f52:	3b01      	subs	r3, #1
 8000f54:	3402      	adds	r4, #2
 8000f56:	2b00      	cmp	r3, #0
 8000f58:	d1f6      	bne.n	8000f48 <PCD_WritePMA+0x18>
 8000f5a:	bd10      	pop	{r4, pc}

08000f5c <HAL_PCD_EP_Transmit>:
 8000f5c:	b5f8      	push	{r3, r4, r5, r6, r7, lr}
 8000f5e:	0005      	movs	r5, r0
 8000f60:	247f      	movs	r4, #127	; 0x7f
 8000f62:	400c      	ands	r4, r1
 8000f64:	00e1      	lsls	r1, r4, #3
 8000f66:	1b09      	subs	r1, r1, r4
 8000f68:	0089      	lsls	r1, r1, #2
 8000f6a:	1841      	adds	r1, r0, r1
 8000f6c:	638a      	str	r2, [r1, #56]	; 0x38
 8000f6e:	63cb      	str	r3, [r1, #60]	; 0x3c
 8000f70:	2200      	movs	r2, #0
 8000f72:	640a      	str	r2, [r1, #64]	; 0x40
 8000f74:	000a      	movs	r2, r1
 8000f76:	3229      	adds	r2, #41	; 0x29
 8000f78:	2001      	movs	r0, #1
 8000f7a:	7010      	strb	r0, [r2, #0]
 8000f7c:	3a01      	subs	r2, #1
 8000f7e:	7014      	strb	r4, [r2, #0]
 8000f80:	6b4f      	ldr	r7, [r1, #52]	; 0x34
 8000f82:	42bb      	cmp	r3, r7
 8000f84:	d931      	bls.n	8000fea <HAL_PCD_EP_Transmit+0x8e>
 8000f86:	1bdb      	subs	r3, r3, r7
 8000f88:	63cb      	str	r3, [r1, #60]	; 0x3c
 8000f8a:	00e2      	lsls	r2, r4, #3
 8000f8c:	1b12      	subs	r2, r2, r4
 8000f8e:	0092      	lsls	r2, r2, #2
 8000f90:	18aa      	adds	r2, r5, r2
 8000f92:	3232      	adds	r2, #50	; 0x32
 8000f94:	7813      	ldrb	r3, [r2, #0]
 8000f96:	2b00      	cmp	r3, #0
 8000f98:	d02f      	beq.n	8000ffa <HAL_PCD_EP_Transmit+0x9e>
 8000f9a:	682a      	ldr	r2, [r5, #0]
 8000f9c:	00e3      	lsls	r3, r4, #3
 8000f9e:	1b1b      	subs	r3, r3, r4
 8000fa0:	009b      	lsls	r3, r3, #2
 8000fa2:	18eb      	adds	r3, r5, r3
 8000fa4:	3328      	adds	r3, #40	; 0x28
 8000fa6:	7818      	ldrb	r0, [r3, #0]
 8000fa8:	0083      	lsls	r3, r0, #2
 8000faa:	5a9b      	ldrh	r3, [r3, r2]
 8000fac:	065b      	lsls	r3, r3, #25
 8000fae:	d576      	bpl.n	800109e <HAL_PCD_EP_Transmit+0x142>
 8000fb0:	00e3      	lsls	r3, r4, #3
 8000fb2:	1b1b      	subs	r3, r3, r4
 8000fb4:	009b      	lsls	r3, r3, #2
 8000fb6:	18eb      	adds	r3, r5, r3
 8000fb8:	3329      	adds	r3, #41	; 0x29
 8000fba:	781b      	ldrb	r3, [r3, #0]
 8000fbc:	2b00      	cmp	r3, #0
 8000fbe:	d13d      	bne.n	800103c <HAL_PCD_EP_Transmit+0xe0>
 8000fc0:	3350      	adds	r3, #80	; 0x50
 8000fc2:	5ad3      	ldrh	r3, [r2, r3]
 8000fc4:	00c0      	lsls	r0, r0, #3
 8000fc6:	1818      	adds	r0, r3, r0
 8000fc8:	4b62      	ldr	r3, [pc, #392]	; (8001154 <HAL_PCD_EP_Transmit+0x1f8>)
 8000fca:	469c      	mov	ip, r3
 8000fcc:	4462      	add	r2, ip
 8000fce:	1882      	adds	r2, r0, r2
 8000fd0:	2f3e      	cmp	r7, #62	; 0x3e
 8000fd2:	d92a      	bls.n	800102a <HAL_PCD_EP_Transmit+0xce>
 8000fd4:	097b      	lsrs	r3, r7, #5
 8000fd6:	b29b      	uxth	r3, r3
 8000fd8:	06f9      	lsls	r1, r7, #27
 8000fda:	d101      	bne.n	8000fe0 <HAL_PCD_EP_Transmit+0x84>
 8000fdc:	3b01      	subs	r3, #1
 8000fde:	b29b      	uxth	r3, r3
 8000fe0:	029b      	lsls	r3, r3, #10
 8000fe2:	485d      	ldr	r0, [pc, #372]	; (8001158 <HAL_PCD_EP_Transmit+0x1fc>)
 8000fe4:	4303      	orrs	r3, r0
 8000fe6:	8013      	strh	r3, [r2, #0]
 8000fe8:	e02a      	b.n	8001040 <HAL_PCD_EP_Transmit+0xe4>
 8000fea:	00e2      	lsls	r2, r4, #3
 8000fec:	1b12      	subs	r2, r2, r4
 8000fee:	0092      	lsls	r2, r2, #2
 8000ff0:	18aa      	adds	r2, r5, r2
 8000ff2:	2100      	movs	r1, #0
 8000ff4:	63d1      	str	r1, [r2, #60]	; 0x3c
 8000ff6:	001f      	movs	r7, r3
 8000ff8:	e7c7      	b.n	8000f8a <HAL_PCD_EP_Transmit+0x2e>
 8000ffa:	b2bf      	uxth	r7, r7
 8000ffc:	00e6      	lsls	r6, r4, #3
 8000ffe:	1b36      	subs	r6, r6, r4
 8001000:	00b6      	lsls	r6, r6, #2
 8001002:	19ae      	adds	r6, r5, r6
 8001004:	8db2      	ldrh	r2, [r6, #44]	; 0x2c
 8001006:	003b      	movs	r3, r7
 8001008:	6bb1      	ldr	r1, [r6, #56]	; 0x38
 800100a:	6828      	ldr	r0, [r5, #0]
 800100c:	f7ff ff90 	bl	8000f30 <PCD_WritePMA>
 8001010:	682a      	ldr	r2, [r5, #0]
 8001012:	2350      	movs	r3, #80	; 0x50
 8001014:	5ad3      	ldrh	r3, [r2, r3]
 8001016:	3628      	adds	r6, #40	; 0x28
 8001018:	7831      	ldrb	r1, [r6, #0]
 800101a:	00c9      	lsls	r1, r1, #3
 800101c:	1852      	adds	r2, r2, r1
 800101e:	189b      	adds	r3, r3, r2
 8001020:	4a4e      	ldr	r2, [pc, #312]	; (800115c <HAL_PCD_EP_Transmit+0x200>)
 8001022:	4694      	mov	ip, r2
 8001024:	4463      	add	r3, ip
 8001026:	801f      	strh	r7, [r3, #0]
 8001028:	e081      	b.n	800112e <HAL_PCD_EP_Transmit+0x1d2>
 800102a:	087b      	lsrs	r3, r7, #1
 800102c:	b29b      	uxth	r3, r3
 800102e:	07f9      	lsls	r1, r7, #31
 8001030:	d501      	bpl.n	8001036 <HAL_PCD_EP_Transmit+0xda>
 8001032:	3301      	adds	r3, #1
 8001034:	b29b      	uxth	r3, r3
 8001036:	029b      	lsls	r3, r3, #10
 8001038:	8013      	strh	r3, [r2, #0]
 800103a:	e001      	b.n	8001040 <HAL_PCD_EP_Transmit+0xe4>
 800103c:	2b01      	cmp	r3, #1
 800103e:	d024      	beq.n	800108a <HAL_PCD_EP_Transmit+0x12e>
 8001040:	00e3      	lsls	r3, r4, #3
 8001042:	1b1b      	subs	r3, r3, r4
 8001044:	009b      	lsls	r3, r3, #2
 8001046:	18eb      	adds	r3, r5, r3
 8001048:	8e1a      	ldrh	r2, [r3, #48]	; 0x30
 800104a:	b2bb      	uxth	r3, r7
 800104c:	00e6      	lsls	r6, r4, #3
 800104e:	1b36      	subs	r6, r6, r4
 8001050:	00b6      	lsls	r6, r6, #2
 8001052:	19ae      	adds	r6, r5, r6
 8001054:	6bb1      	ldr	r1, [r6, #56]	; 0x38
 8001056:	6828      	ldr	r0, [r5, #0]
 8001058:	f7ff ff6a 	bl	8000f30 <PCD_WritePMA>
 800105c:	3629      	adds	r6, #41	; 0x29
 800105e:	7833      	ldrb	r3, [r6, #0]
 8001060:	2b00      	cmp	r3, #0
 8001062:	d054      	beq.n	800110e <HAL_PCD_EP_Transmit+0x1b2>
 8001064:	2b01      	cmp	r3, #1
 8001066:	d162      	bne.n	800112e <HAL_PCD_EP_Transmit+0x1d2>
 8001068:	00e3      	lsls	r3, r4, #3
 800106a:	1b1b      	subs	r3, r3, r4
 800106c:	009b      	lsls	r3, r3, #2
 800106e:	18eb      	adds	r3, r5, r3
 8001070:	3328      	adds	r3, #40	; 0x28
 8001072:	781b      	ldrb	r3, [r3, #0]
 8001074:	009b      	lsls	r3, r3, #2
 8001076:	682a      	ldr	r2, [r5, #0]
 8001078:	4694      	mov	ip, r2
 800107a:	4463      	add	r3, ip
 800107c:	881a      	ldrh	r2, [r3, #0]
 800107e:	4938      	ldr	r1, [pc, #224]	; (8001160 <HAL_PCD_EP_Transmit+0x204>)
 8001080:	4011      	ands	r1, r2
 8001082:	4a38      	ldr	r2, [pc, #224]	; (8001164 <HAL_PCD_EP_Transmit+0x208>)
 8001084:	430a      	orrs	r2, r1
 8001086:	801a      	strh	r2, [r3, #0]
 8001088:	e051      	b.n	800112e <HAL_PCD_EP_Transmit+0x1d2>
 800108a:	334f      	adds	r3, #79	; 0x4f
 800108c:	5ad3      	ldrh	r3, [r2, r3]
 800108e:	00c0      	lsls	r0, r0, #3
 8001090:	1812      	adds	r2, r2, r0
 8001092:	189a      	adds	r2, r3, r2
 8001094:	4b2f      	ldr	r3, [pc, #188]	; (8001154 <HAL_PCD_EP_Transmit+0x1f8>)
 8001096:	469c      	mov	ip, r3
 8001098:	4462      	add	r2, ip
 800109a:	8017      	strh	r7, [r2, #0]
 800109c:	e7d0      	b.n	8001040 <HAL_PCD_EP_Transmit+0xe4>
 800109e:	00e3      	lsls	r3, r4, #3
 80010a0:	1b1b      	subs	r3, r3, r4
 80010a2:	009b      	lsls	r3, r3, #2
 80010a4:	18eb      	adds	r3, r5, r3
 80010a6:	3329      	adds	r3, #41	; 0x29
 80010a8:	781b      	ldrb	r3, [r3, #0]
 80010aa:	2b00      	cmp	r3, #0
 80010ac:	d11d      	bne.n	80010ea <HAL_PCD_EP_Transmit+0x18e>
 80010ae:	3350      	adds	r3, #80	; 0x50
 80010b0:	5ad3      	ldrh	r3, [r2, r3]
 80010b2:	00c0      	lsls	r0, r0, #3
 80010b4:	1818      	adds	r0, r3, r0
 80010b6:	4b29      	ldr	r3, [pc, #164]	; (800115c <HAL_PCD_EP_Transmit+0x200>)
 80010b8:	469c      	mov	ip, r3
 80010ba:	4462      	add	r2, ip
 80010bc:	1882      	adds	r2, r0, r2
 80010be:	2f3e      	cmp	r7, #62	; 0x3e
 80010c0:	d90a      	bls.n	80010d8 <HAL_PCD_EP_Transmit+0x17c>
 80010c2:	097b      	lsrs	r3, r7, #5
 80010c4:	b29b      	uxth	r3, r3
 80010c6:	06f9      	lsls	r1, r7, #27
 80010c8:	d101      	bne.n	80010ce <HAL_PCD_EP_Transmit+0x172>
 80010ca:	3b01      	subs	r3, #1
 80010cc:	b29b      	uxth	r3, r3
 80010ce:	029b      	lsls	r3, r3, #10
 80010d0:	4821      	ldr	r0, [pc, #132]	; (8001158 <HAL_PCD_EP_Transmit+0x1fc>)
 80010d2:	4303      	orrs	r3, r0
 80010d4:	8013      	strh	r3, [r2, #0]
 80010d6:	e00a      	b.n	80010ee <HAL_PCD_EP_Transmit+0x192>
 80010d8:	087b      	lsrs	r3, r7, #1
 80010da:	b29b      	uxth	r3, r3
 80010dc:	07f9      	lsls	r1, r7, #31
 80010de:	d501      	bpl.n	80010e4 <HAL_PCD_EP_Transmit+0x188>
 80010e0:	3301      	adds	r3, #1
 80010e2:	b29b      	uxth	r3, r3
 80010e4:	029b      	lsls	r3, r3, #10
 80010e6:	8013      	strh	r3, [r2, #0]
 80010e8:	e001      	b.n	80010ee <HAL_PCD_EP_Transmit+0x192>
 80010ea:	2b01      	cmp	r3, #1
 80010ec:	d005      	beq.n	80010fa <HAL_PCD_EP_Transmit+0x19e>
 80010ee:	00e3      	lsls	r3, r4, #3
 80010f0:	1b1b      	subs	r3, r3, r4
 80010f2:	009b      	lsls	r3, r3, #2
 80010f4:	18eb      	adds	r3, r5, r3
 80010f6:	8dda      	ldrh	r2, [r3, #46]	; 0x2e
 80010f8:	e7a7      	b.n	800104a <HAL_PCD_EP_Transmit+0xee>
 80010fa:	334f      	adds	r3, #79	; 0x4f
 80010fc:	5ad3      	ldrh	r3, [r2, r3]
 80010fe:	00c0      	lsls	r0, r0, #3
 8001100:	1812      	adds	r2, r2, r0
 8001102:	189a      	adds	r2, r3, r2
 8001104:	4b15      	ldr	r3, [pc, #84]	; (800115c <HAL_PCD_EP_Transmit+0x200>)
 8001106:	469c      	mov	ip, r3
 8001108:	4462      	add	r2, ip
 800110a:	8017      	strh	r7, [r2, #0]
 800110c:	e7ef      	b.n	80010ee <HAL_PCD_EP_Transmit+0x192>
 800110e:	00e3      	lsls	r3, r4, #3
 8001110:	1b1b      	subs	r3, r3, r4
 8001112:	009b      	lsls	r3, r3, #2
 8001114:	18eb      	adds	r3, r5, r3
 8001116:	3328      	adds	r3, #40	; 0x28
 8001118:	781b      	ldrb	r3, [r3, #0]
 800111a:	009b      	lsls	r3, r3, #2
 800111c:	682a      	ldr	r2, [r5, #0]
 800111e:	4694      	mov	ip, r2
 8001120:	4463      	add	r3, ip
 8001122:	881a      	ldrh	r2, [r3, #0]
 8001124:	490e      	ldr	r1, [pc, #56]	; (8001160 <HAL_PCD_EP_Transmit+0x204>)
 8001126:	4011      	ands	r1, r2
 8001128:	4a0f      	ldr	r2, [pc, #60]	; (8001168 <HAL_PCD_EP_Transmit+0x20c>)
 800112a:	430a      	orrs	r2, r1
 800112c:	801a      	strh	r2, [r3, #0]
 800112e:	00e1      	lsls	r1, r4, #3
 8001130:	1b0c      	subs	r4, r1, r4
 8001132:	00a4      	lsls	r4, r4, #2
 8001134:	192c      	adds	r4, r5, r4
 8001136:	3428      	adds	r4, #40	; 0x28
 8001138:	7823      	ldrb	r3, [r4, #0]
 800113a:	009b      	lsls	r3, r3, #2
 800113c:	682a      	ldr	r2, [r5, #0]
 800113e:	18d2      	adds	r2, r2, r3
 8001140:	8813      	ldrh	r3, [r2, #0]
 8001142:	490a      	ldr	r1, [pc, #40]	; (800116c <HAL_PCD_EP_Transmit+0x210>)
 8001144:	400b      	ands	r3, r1
 8001146:	2130      	movs	r1, #48	; 0x30
 8001148:	404b      	eors	r3, r1
 800114a:	4909      	ldr	r1, [pc, #36]	; (8001170 <HAL_PCD_EP_Transmit+0x214>)
 800114c:	430b      	orrs	r3, r1
 800114e:	8013      	strh	r3, [r2, #0]
 8001150:	2000      	movs	r0, #0
 8001152:	bdf8      	pop	{r3, r4, r5, r6, r7, pc}
 8001154:	00000406 	.word	0x00000406
 8001158:	ffff8000 	.word	0xffff8000
 800115c:	00000402 	.word	0x00000402
 8001160:	00000f0f 	.word	0x00000f0f
 8001164:	ffffc080 	.word	0xffffc080
 8001168:	ffff80c0 	.word	0xffff80c0
 800116c:	ffff8fbf 	.word	0xffff8fbf
 8001170:	ffff8080 	.word	0xffff8080

08001174 <PCD_ReadPMA>:
 8001174:	b5f0      	push	{r4, r5, r6, r7, lr}
 8001176:	085f      	lsrs	r7, r3, #1
 8001178:	2480      	movs	r4, #128	; 0x80
 800117a:	00e4      	lsls	r4, r4, #3
 800117c:	46a4      	mov	ip, r4
 800117e:	4460      	add	r0, ip
 8001180:	1882      	adds	r2, r0, r2
 8001182:	0010      	movs	r0, r2
 8001184:	2f00      	cmp	r7, #0
 8001186:	d00d      	beq.n	80011a4 <PCD_ReadPMA+0x30>
 8001188:	000c      	movs	r4, r1
 800118a:	003e      	movs	r6, r7
 800118c:	1a50      	subs	r0, r2, r1
 800118e:	5b05      	ldrh	r5, [r0, r4]
 8001190:	7025      	strb	r5, [r4, #0]
 8001192:	0a2d      	lsrs	r5, r5, #8
 8001194:	7065      	strb	r5, [r4, #1]
 8001196:	3e01      	subs	r6, #1
 8001198:	3402      	adds	r4, #2
 800119a:	2e00      	cmp	r6, #0
 800119c:	d1f7      	bne.n	800118e <PCD_ReadPMA+0x1a>
 800119e:	007f      	lsls	r7, r7, #1
 80011a0:	19d0      	adds	r0, r2, r7
 80011a2:	19c9      	adds	r1, r1, r7
 80011a4:	07db      	lsls	r3, r3, #31
 80011a6:	d501      	bpl.n	80011ac <PCD_ReadPMA+0x38>
 80011a8:	8803      	ldrh	r3, [r0, #0]
 80011aa:	700b      	strb	r3, [r1, #0]
 80011ac:	bdf0      	pop	{r4, r5, r6, r7, pc}
	...

080011b0 <HAL_PCD_IRQHandler>:
 80011b0:	b5f0      	push	{r4, r5, r6, r7, lr}
 80011b2:	46d6      	mov	lr, sl
 80011b4:	464f      	mov	r7, r9
 80011b6:	4646      	mov	r6, r8
 80011b8:	b5c0      	push	{r6, r7, lr}
 80011ba:	b082      	sub	sp, #8
 80011bc:	0004      	movs	r4, r0
 80011be:	2344      	movs	r3, #68	; 0x44
 80011c0:	6802      	ldr	r2, [r0, #0]
 80011c2:	5ad3      	ldrh	r3, [r2, r3]
 80011c4:	b21b      	sxth	r3, r3
 80011c6:	2b00      	cmp	r3, #0
 80011c8:	db4f      	blt.n	800126a <HAL_PCD_IRQHandler+0xba>
 80011ca:	6823      	ldr	r3, [r4, #0]
 80011cc:	2244      	movs	r2, #68	; 0x44
 80011ce:	5a9a      	ldrh	r2, [r3, r2]
 80011d0:	0552      	lsls	r2, r2, #21
 80011d2:	d500      	bpl.n	80011d6 <HAL_PCD_IRQHandler+0x26>
 80011d4:	e294      	b.n	8001700 <HAL_PCD_IRQHandler+0x550>
 80011d6:	6823      	ldr	r3, [r4, #0]
 80011d8:	2244      	movs	r2, #68	; 0x44
 80011da:	5a9a      	ldrh	r2, [r3, r2]
 80011dc:	0452      	lsls	r2, r2, #17
 80011de:	d504      	bpl.n	80011ea <HAL_PCD_IRQHandler+0x3a>
 80011e0:	2144      	movs	r1, #68	; 0x44
 80011e2:	5a5a      	ldrh	r2, [r3, r1]
 80011e4:	48b9      	ldr	r0, [pc, #740]	; (80014cc <HAL_PCD_IRQHandler+0x31c>)
 80011e6:	4002      	ands	r2, r0
 80011e8:	525a      	strh	r2, [r3, r1]
 80011ea:	6823      	ldr	r3, [r4, #0]
 80011ec:	2244      	movs	r2, #68	; 0x44
 80011ee:	5a9a      	ldrh	r2, [r3, r2]
 80011f0:	0492      	lsls	r2, r2, #18
 80011f2:	d504      	bpl.n	80011fe <HAL_PCD_IRQHandler+0x4e>
 80011f4:	2144      	movs	r1, #68	; 0x44
 80011f6:	5a5a      	ldrh	r2, [r3, r1]
 80011f8:	48b5      	ldr	r0, [pc, #724]	; (80014d0 <HAL_PCD_IRQHandler+0x320>)
 80011fa:	4002      	ands	r2, r0
 80011fc:	525a      	strh	r2, [r3, r1]
 80011fe:	6823      	ldr	r3, [r4, #0]
 8001200:	2244      	movs	r2, #68	; 0x44
 8001202:	5a9a      	ldrh	r2, [r3, r2]
 8001204:	04d2      	lsls	r2, r2, #19
 8001206:	d500      	bpl.n	800120a <HAL_PCD_IRQHandler+0x5a>
 8001208:	e287      	b.n	800171a <HAL_PCD_IRQHandler+0x56a>
 800120a:	6823      	ldr	r3, [r4, #0]
 800120c:	2244      	movs	r2, #68	; 0x44
 800120e:	5a9a      	ldrh	r2, [r3, r2]
 8001210:	0512      	lsls	r2, r2, #20
 8001212:	d514      	bpl.n	800123e <HAL_PCD_IRQHandler+0x8e>
 8001214:	2244      	movs	r2, #68	; 0x44
 8001216:	5a99      	ldrh	r1, [r3, r2]
 8001218:	48ae      	ldr	r0, [pc, #696]	; (80014d4 <HAL_PCD_IRQHandler+0x324>)
 800121a:	4001      	ands	r1, r0
 800121c:	5299      	strh	r1, [r3, r2]
 800121e:	6820      	ldr	r0, [r4, #0]
 8001220:	2340      	movs	r3, #64	; 0x40
 8001222:	5ac1      	ldrh	r1, [r0, r3]
 8001224:	2508      	movs	r5, #8
 8001226:	4329      	orrs	r1, r5
 8001228:	52c1      	strh	r1, [r0, r3]
 800122a:	6820      	ldr	r0, [r4, #0]
 800122c:	5ac1      	ldrh	r1, [r0, r3]
 800122e:	2504      	movs	r5, #4
 8001230:	4329      	orrs	r1, r5
 8001232:	52c1      	strh	r1, [r0, r3]
 8001234:	6823      	ldr	r3, [r4, #0]
 8001236:	5a9b      	ldrh	r3, [r3, r2]
 8001238:	04db      	lsls	r3, r3, #19
 800123a:	d400      	bmi.n	800123e <HAL_PCD_IRQHandler+0x8e>
 800123c:	e27f      	b.n	800173e <HAL_PCD_IRQHandler+0x58e>
 800123e:	6823      	ldr	r3, [r4, #0]
 8001240:	2244      	movs	r2, #68	; 0x44
 8001242:	5a9a      	ldrh	r2, [r3, r2]
 8001244:	0592      	lsls	r2, r2, #22
 8001246:	d500      	bpl.n	800124a <HAL_PCD_IRQHandler+0x9a>
 8001248:	e27d      	b.n	8001746 <HAL_PCD_IRQHandler+0x596>
 800124a:	6823      	ldr	r3, [r4, #0]
 800124c:	2244      	movs	r2, #68	; 0x44
 800124e:	5a9a      	ldrh	r2, [r3, r2]
 8001250:	05d2      	lsls	r2, r2, #23
 8001252:	d504      	bpl.n	800125e <HAL_PCD_IRQHandler+0xae>
 8001254:	2144      	movs	r1, #68	; 0x44
 8001256:	5a5a      	ldrh	r2, [r3, r1]
 8001258:	489f      	ldr	r0, [pc, #636]	; (80014d8 <HAL_PCD_IRQHandler+0x328>)
 800125a:	4002      	ands	r2, r0
 800125c:	525a      	strh	r2, [r3, r1]
 800125e:	b002      	add	sp, #8
 8001260:	bc1c      	pop	{r2, r3, r4}
 8001262:	4690      	mov	r8, r2
 8001264:	4699      	mov	r9, r3
 8001266:	46a2      	mov	sl, r4
 8001268:	bdf0      	pop	{r4, r5, r6, r7, pc}
 800126a:	466b      	mov	r3, sp
 800126c:	2200      	movs	r2, #0
 800126e:	80da      	strh	r2, [r3, #6]
 8001270:	2744      	movs	r7, #68	; 0x44
 8001272:	ae01      	add	r6, sp, #4
 8001274:	230f      	movs	r3, #15
 8001276:	4698      	mov	r8, r3
 8001278:	6820      	ldr	r0, [r4, #0]
 800127a:	5bc3      	ldrh	r3, [r0, r7]
 800127c:	b29b      	uxth	r3, r3
 800127e:	8033      	strh	r3, [r6, #0]
 8001280:	b21b      	sxth	r3, r3
 8001282:	2b00      	cmp	r3, #0
 8001284:	daa1      	bge.n	80011ca <HAL_PCD_IRQHandler+0x1a>
 8001286:	8835      	ldrh	r5, [r6, #0]
 8001288:	4643      	mov	r3, r8
 800128a:	401d      	ands	r5, r3
 800128c:	d000      	beq.n	8001290 <HAL_PCD_IRQHandler+0xe0>
 800128e:	e0b1      	b.n	80013f4 <HAL_PCD_IRQHandler+0x244>
 8001290:	8833      	ldrh	r3, [r6, #0]
 8001292:	06db      	lsls	r3, r3, #27
 8001294:	d54b      	bpl.n	800132e <HAL_PCD_IRQHandler+0x17e>
 8001296:	8802      	ldrh	r2, [r0, #0]
 8001298:	466b      	mov	r3, sp
 800129a:	80da      	strh	r2, [r3, #6]
 800129c:	3306      	adds	r3, #6
 800129e:	881b      	ldrh	r3, [r3, #0]
 80012a0:	051b      	lsls	r3, r3, #20
 80012a2:	d472      	bmi.n	800138a <HAL_PCD_IRQHandler+0x1da>
 80012a4:	466b      	mov	r3, sp
 80012a6:	3306      	adds	r3, #6
 80012a8:	881b      	ldrh	r3, [r3, #0]
 80012aa:	b21b      	sxth	r3, r3
 80012ac:	2b00      	cmp	r3, #0
 80012ae:	dae3      	bge.n	8001278 <HAL_PCD_IRQHandler+0xc8>
 80012b0:	8803      	ldrh	r3, [r0, #0]
 80012b2:	4a8a      	ldr	r2, [pc, #552]	; (80014dc <HAL_PCD_IRQHandler+0x32c>)
 80012b4:	4013      	ands	r3, r2
 80012b6:	8003      	strh	r3, [r0, #0]
 80012b8:	6820      	ldr	r0, [r4, #0]
 80012ba:	2350      	movs	r3, #80	; 0x50
 80012bc:	5ac3      	ldrh	r3, [r0, r3]
 80012be:	2284      	movs	r2, #132	; 0x84
 80012c0:	0052      	lsls	r2, r2, #1
 80012c2:	5ca2      	ldrb	r2, [r4, r2]
 80012c4:	00d2      	lsls	r2, r2, #3
 80012c6:	1882      	adds	r2, r0, r2
 80012c8:	189b      	adds	r3, r3, r2
 80012ca:	4a85      	ldr	r2, [pc, #532]	; (80014e0 <HAL_PCD_IRQHandler+0x330>)
 80012cc:	4694      	mov	ip, r2
 80012ce:	4463      	add	r3, ip
 80012d0:	881b      	ldrh	r3, [r3, #0]
 80012d2:	059b      	lsls	r3, r3, #22
 80012d4:	0d9b      	lsrs	r3, r3, #22
 80012d6:	0022      	movs	r2, r4
 80012d8:	3209      	adds	r2, #9
 80012da:	32ff      	adds	r2, #255	; 0xff
 80012dc:	6193      	str	r3, [r2, #24]
 80012de:	2b00      	cmp	r3, #0
 80012e0:	d174      	bne.n	80013cc <HAL_PCD_IRQHandler+0x21c>
 80012e2:	2100      	movs	r1, #0
 80012e4:	0020      	movs	r0, r4
 80012e6:	f001 fd1d 	bl	8002d24 <HAL_PCD_DataOutStageCallback>
 80012ea:	6823      	ldr	r3, [r4, #0]
 80012ec:	2250      	movs	r2, #80	; 0x50
 80012ee:	5a9a      	ldrh	r2, [r3, r2]
 80012f0:	497b      	ldr	r1, [pc, #492]	; (80014e0 <HAL_PCD_IRQHandler+0x330>)
 80012f2:	468c      	mov	ip, r1
 80012f4:	4463      	add	r3, ip
 80012f6:	189b      	adds	r3, r3, r2
 80012f8:	0022      	movs	r2, r4
 80012fa:	3209      	adds	r2, #9
 80012fc:	32ff      	adds	r2, #255	; 0xff
 80012fe:	68d1      	ldr	r1, [r2, #12]
 8001300:	293e      	cmp	r1, #62	; 0x3e
 8001302:	d96e      	bls.n	80013e2 <HAL_PCD_IRQHandler+0x232>
 8001304:	094a      	lsrs	r2, r1, #5
 8001306:	b292      	uxth	r2, r2
 8001308:	06c9      	lsls	r1, r1, #27
 800130a:	d101      	bne.n	8001310 <HAL_PCD_IRQHandler+0x160>
 800130c:	3a01      	subs	r2, #1
 800130e:	b292      	uxth	r2, r2
 8001310:	0292      	lsls	r2, r2, #10
 8001312:	4974      	ldr	r1, [pc, #464]	; (80014e4 <HAL_PCD_IRQHandler+0x334>)
 8001314:	430a      	orrs	r2, r1
 8001316:	801a      	strh	r2, [r3, #0]
 8001318:	6821      	ldr	r1, [r4, #0]
 800131a:	880a      	ldrh	r2, [r1, #0]
 800131c:	4b72      	ldr	r3, [pc, #456]	; (80014e8 <HAL_PCD_IRQHandler+0x338>)
 800131e:	401a      	ands	r2, r3
 8001320:	23c0      	movs	r3, #192	; 0xc0
 8001322:	019b      	lsls	r3, r3, #6
 8001324:	405a      	eors	r2, r3
 8001326:	4b71      	ldr	r3, [pc, #452]	; (80014ec <HAL_PCD_IRQHandler+0x33c>)
 8001328:	4313      	orrs	r3, r2
 800132a:	800b      	strh	r3, [r1, #0]
 800132c:	e7a4      	b.n	8001278 <HAL_PCD_IRQHandler+0xc8>
 800132e:	8803      	ldrh	r3, [r0, #0]
 8001330:	4a6f      	ldr	r2, [pc, #444]	; (80014f0 <HAL_PCD_IRQHandler+0x340>)
 8001332:	4013      	ands	r3, r2
 8001334:	8003      	strh	r3, [r0, #0]
 8001336:	6821      	ldr	r1, [r4, #0]
 8001338:	2350      	movs	r3, #80	; 0x50
 800133a:	5acb      	ldrh	r3, [r1, r3]
 800133c:	2228      	movs	r2, #40	; 0x28
 800133e:	5ca2      	ldrb	r2, [r4, r2]
 8001340:	00d2      	lsls	r2, r2, #3
 8001342:	188a      	adds	r2, r1, r2
 8001344:	189b      	adds	r3, r3, r2
 8001346:	4a6b      	ldr	r2, [pc, #428]	; (80014f4 <HAL_PCD_IRQHandler+0x344>)
 8001348:	4694      	mov	ip, r2
 800134a:	4463      	add	r3, ip
 800134c:	881b      	ldrh	r3, [r3, #0]
 800134e:	059b      	lsls	r3, r3, #22
 8001350:	0d9b      	lsrs	r3, r3, #22
 8001352:	6423      	str	r3, [r4, #64]	; 0x40
 8001354:	6ba2      	ldr	r2, [r4, #56]	; 0x38
 8001356:	4694      	mov	ip, r2
 8001358:	4463      	add	r3, ip
 800135a:	63a3      	str	r3, [r4, #56]	; 0x38
 800135c:	2100      	movs	r1, #0
 800135e:	0020      	movs	r0, r4
 8001360:	f001 fcee 	bl	8002d40 <HAL_PCD_DataInStageCallback>
 8001364:	2324      	movs	r3, #36	; 0x24
 8001366:	5ce3      	ldrb	r3, [r4, r3]
 8001368:	2b00      	cmp	r3, #0
 800136a:	d100      	bne.n	800136e <HAL_PCD_IRQHandler+0x1be>
 800136c:	e784      	b.n	8001278 <HAL_PCD_IRQHandler+0xc8>
 800136e:	6be3      	ldr	r3, [r4, #60]	; 0x3c
 8001370:	2b00      	cmp	r3, #0
 8001372:	d000      	beq.n	8001376 <HAL_PCD_IRQHandler+0x1c6>
 8001374:	e780      	b.n	8001278 <HAL_PCD_IRQHandler+0xc8>
 8001376:	2224      	movs	r2, #36	; 0x24
 8001378:	5ca3      	ldrb	r3, [r4, r2]
 800137a:	2180      	movs	r1, #128	; 0x80
 800137c:	430b      	orrs	r3, r1
 800137e:	3934      	subs	r1, #52	; 0x34
 8001380:	6820      	ldr	r0, [r4, #0]
 8001382:	5243      	strh	r3, [r0, r1]
 8001384:	2300      	movs	r3, #0
 8001386:	54a3      	strb	r3, [r4, r2]
 8001388:	e776      	b.n	8001278 <HAL_PCD_IRQHandler+0xc8>
 800138a:	2350      	movs	r3, #80	; 0x50
 800138c:	5ac3      	ldrh	r3, [r0, r3]
 800138e:	2284      	movs	r2, #132	; 0x84
 8001390:	0052      	lsls	r2, r2, #1
 8001392:	5ca2      	ldrb	r2, [r4, r2]
 8001394:	00d2      	lsls	r2, r2, #3
 8001396:	1882      	adds	r2, r0, r2
 8001398:	189b      	adds	r3, r3, r2
 800139a:	4a51      	ldr	r2, [pc, #324]	; (80014e0 <HAL_PCD_IRQHandler+0x330>)
 800139c:	4694      	mov	ip, r2
 800139e:	4463      	add	r3, ip
 80013a0:	881b      	ldrh	r3, [r3, #0]
 80013a2:	059b      	lsls	r3, r3, #22
 80013a4:	0d9b      	lsrs	r3, r3, #22
 80013a6:	0022      	movs	r2, r4
 80013a8:	3209      	adds	r2, #9
 80013aa:	32ff      	adds	r2, #255	; 0xff
 80013ac:	6193      	str	r3, [r2, #24]
 80013ae:	8892      	ldrh	r2, [r2, #4]
 80013b0:	0021      	movs	r1, r4
 80013b2:	31ed      	adds	r1, #237	; 0xed
 80013b4:	31ff      	adds	r1, #255	; 0xff
 80013b6:	f7ff fedd 	bl	8001174 <PCD_ReadPMA>
 80013ba:	6822      	ldr	r2, [r4, #0]
 80013bc:	8813      	ldrh	r3, [r2, #0]
 80013be:	4947      	ldr	r1, [pc, #284]	; (80014dc <HAL_PCD_IRQHandler+0x32c>)
 80013c0:	400b      	ands	r3, r1
 80013c2:	8013      	strh	r3, [r2, #0]
 80013c4:	0020      	movs	r0, r4
 80013c6:	f001 fca3 	bl	8002d10 <HAL_PCD_SetupStageCallback>
 80013ca:	e755      	b.n	8001278 <HAL_PCD_IRQHandler+0xc8>
 80013cc:	0015      	movs	r5, r2
 80013ce:	8892      	ldrh	r2, [r2, #4]
 80013d0:	6929      	ldr	r1, [r5, #16]
 80013d2:	f7ff fecf 	bl	8001174 <PCD_ReadPMA>
 80013d6:	692b      	ldr	r3, [r5, #16]
 80013d8:	69aa      	ldr	r2, [r5, #24]
 80013da:	4694      	mov	ip, r2
 80013dc:	4463      	add	r3, ip
 80013de:	612b      	str	r3, [r5, #16]
 80013e0:	e77f      	b.n	80012e2 <HAL_PCD_IRQHandler+0x132>
 80013e2:	084a      	lsrs	r2, r1, #1
 80013e4:	b292      	uxth	r2, r2
 80013e6:	07c9      	lsls	r1, r1, #31
 80013e8:	d501      	bpl.n	80013ee <HAL_PCD_IRQHandler+0x23e>
 80013ea:	3201      	adds	r2, #1
 80013ec:	b292      	uxth	r2, r2
 80013ee:	0292      	lsls	r2, r2, #10
 80013f0:	801a      	strh	r2, [r3, #0]
 80013f2:	e791      	b.n	8001318 <HAL_PCD_IRQHandler+0x168>
 80013f4:	00ab      	lsls	r3, r5, #2
 80013f6:	4699      	mov	r9, r3
 80013f8:	4448      	add	r0, r9
 80013fa:	8802      	ldrh	r2, [r0, #0]
 80013fc:	466b      	mov	r3, sp
 80013fe:	80da      	strh	r2, [r3, #6]
 8001400:	3306      	adds	r3, #6
 8001402:	881b      	ldrh	r3, [r3, #0]
 8001404:	b21b      	sxth	r3, r3
 8001406:	2b00      	cmp	r3, #0
 8001408:	db30      	blt.n	800146c <HAL_PCD_IRQHandler+0x2bc>
 800140a:	466b      	mov	r3, sp
 800140c:	3306      	adds	r3, #6
 800140e:	881b      	ldrh	r3, [r3, #0]
 8001410:	061b      	lsls	r3, r3, #24
 8001412:	d400      	bmi.n	8001416 <HAL_PCD_IRQHandler+0x266>
 8001414:	e730      	b.n	8001278 <HAL_PCD_IRQHandler+0xc8>
 8001416:	6823      	ldr	r3, [r4, #0]
 8001418:	444b      	add	r3, r9
 800141a:	881a      	ldrh	r2, [r3, #0]
 800141c:	4934      	ldr	r1, [pc, #208]	; (80014f0 <HAL_PCD_IRQHandler+0x340>)
 800141e:	400a      	ands	r2, r1
 8001420:	801a      	strh	r2, [r3, #0]
 8001422:	00eb      	lsls	r3, r5, #3
 8001424:	1b5b      	subs	r3, r3, r5
 8001426:	009b      	lsls	r3, r3, #2
 8001428:	18e3      	adds	r3, r4, r3
 800142a:	3332      	adds	r3, #50	; 0x32
 800142c:	781b      	ldrb	r3, [r3, #0]
 800142e:	2b00      	cmp	r3, #0
 8001430:	d000      	beq.n	8001434 <HAL_PCD_IRQHandler+0x284>
 8001432:	e0eb      	b.n	800160c <HAL_PCD_IRQHandler+0x45c>
 8001434:	6820      	ldr	r0, [r4, #0]
 8001436:	3350      	adds	r3, #80	; 0x50
 8001438:	5ac3      	ldrh	r3, [r0, r3]
 800143a:	00ea      	lsls	r2, r5, #3
 800143c:	1b52      	subs	r2, r2, r5
 800143e:	0092      	lsls	r2, r2, #2
 8001440:	18a2      	adds	r2, r4, r2
 8001442:	0011      	movs	r1, r2
 8001444:	3128      	adds	r1, #40	; 0x28
 8001446:	7809      	ldrb	r1, [r1, #0]
 8001448:	00c9      	lsls	r1, r1, #3
 800144a:	1841      	adds	r1, r0, r1
 800144c:	185b      	adds	r3, r3, r1
 800144e:	4929      	ldr	r1, [pc, #164]	; (80014f4 <HAL_PCD_IRQHandler+0x344>)
 8001450:	468c      	mov	ip, r1
 8001452:	4463      	add	r3, ip
 8001454:	881b      	ldrh	r3, [r3, #0]
 8001456:	059b      	lsls	r3, r3, #22
 8001458:	0d9b      	lsrs	r3, r3, #22
 800145a:	6413      	str	r3, [r2, #64]	; 0x40
 800145c:	d100      	bne.n	8001460 <HAL_PCD_IRQHandler+0x2b0>
 800145e:	e102      	b.n	8001666 <HAL_PCD_IRQHandler+0x4b6>
 8001460:	0011      	movs	r1, r2
 8001462:	8d92      	ldrh	r2, [r2, #44]	; 0x2c
 8001464:	6b89      	ldr	r1, [r1, #56]	; 0x38
 8001466:	f7ff fd63 	bl	8000f30 <PCD_WritePMA>
 800146a:	e0fc      	b.n	8001666 <HAL_PCD_IRQHandler+0x4b6>
 800146c:	4b1b      	ldr	r3, [pc, #108]	; (80014dc <HAL_PCD_IRQHandler+0x32c>)
 800146e:	401a      	ands	r2, r3
 8001470:	8002      	strh	r2, [r0, #0]
 8001472:	00eb      	lsls	r3, r5, #3
 8001474:	1b5b      	subs	r3, r3, r5
 8001476:	009b      	lsls	r3, r3, #2
 8001478:	18e3      	adds	r3, r4, r3
 800147a:	3313      	adds	r3, #19
 800147c:	33ff      	adds	r3, #255	; 0xff
 800147e:	781b      	ldrb	r3, [r3, #0]
 8001480:	2b00      	cmp	r3, #0
 8001482:	d139      	bne.n	80014f8 <HAL_PCD_IRQHandler+0x348>
 8001484:	6820      	ldr	r0, [r4, #0]
 8001486:	3350      	adds	r3, #80	; 0x50
 8001488:	5ac2      	ldrh	r2, [r0, r3]
 800148a:	00eb      	lsls	r3, r5, #3
 800148c:	1b5b      	subs	r3, r3, r5
 800148e:	009b      	lsls	r3, r3, #2
 8001490:	18e3      	adds	r3, r4, r3
 8001492:	3309      	adds	r3, #9
 8001494:	33ff      	adds	r3, #255	; 0xff
 8001496:	781b      	ldrb	r3, [r3, #0]
 8001498:	00db      	lsls	r3, r3, #3
 800149a:	18c3      	adds	r3, r0, r3
 800149c:	18d3      	adds	r3, r2, r3
 800149e:	4a10      	ldr	r2, [pc, #64]	; (80014e0 <HAL_PCD_IRQHandler+0x330>)
 80014a0:	4694      	mov	ip, r2
 80014a2:	4463      	add	r3, ip
 80014a4:	881a      	ldrh	r2, [r3, #0]
 80014a6:	0592      	lsls	r2, r2, #22
 80014a8:	0d93      	lsrs	r3, r2, #22
 80014aa:	469a      	mov	sl, r3
 80014ac:	d04e      	beq.n	800154c <HAL_PCD_IRQHandler+0x39c>
 80014ae:	00eb      	lsls	r3, r5, #3
 80014b0:	1b5b      	subs	r3, r3, r5
 80014b2:	009b      	lsls	r3, r3, #2
 80014b4:	18e3      	adds	r3, r4, r3
 80014b6:	001a      	movs	r2, r3
 80014b8:	320d      	adds	r2, #13
 80014ba:	32ff      	adds	r2, #255	; 0xff
 80014bc:	8812      	ldrh	r2, [r2, #0]
 80014be:	3319      	adds	r3, #25
 80014c0:	33ff      	adds	r3, #255	; 0xff
 80014c2:	6819      	ldr	r1, [r3, #0]
 80014c4:	4653      	mov	r3, sl
 80014c6:	f7ff fe55 	bl	8001174 <PCD_ReadPMA>
 80014ca:	e03f      	b.n	800154c <HAL_PCD_IRQHandler+0x39c>
 80014cc:	ffffbfff 	.word	0xffffbfff
 80014d0:	ffffdfff 	.word	0xffffdfff
 80014d4:	fffff7ff 	.word	0xfffff7ff
 80014d8:	fffffeff 	.word	0xfffffeff
 80014dc:	00000f8f 	.word	0x00000f8f
 80014e0:	00000406 	.word	0x00000406
 80014e4:	ffff8000 	.word	0xffff8000
 80014e8:	ffffbf8f 	.word	0xffffbf8f
 80014ec:	ffff8080 	.word	0xffff8080
 80014f0:	ffff8f0f 	.word	0xffff8f0f
 80014f4:	00000402 	.word	0x00000402
 80014f8:	6820      	ldr	r0, [r4, #0]
 80014fa:	00eb      	lsls	r3, r5, #3
 80014fc:	1b5b      	subs	r3, r3, r5
 80014fe:	009b      	lsls	r3, r3, #2
 8001500:	18e3      	adds	r3, r4, r3
 8001502:	3309      	adds	r3, #9
 8001504:	33ff      	adds	r3, #255	; 0xff
 8001506:	781b      	ldrb	r3, [r3, #0]
 8001508:	009a      	lsls	r2, r3, #2
 800150a:	5a12      	ldrh	r2, [r2, r0]
 800150c:	0452      	lsls	r2, r2, #17
 800150e:	d556      	bpl.n	80015be <HAL_PCD_IRQHandler+0x40e>
 8001510:	2250      	movs	r2, #80	; 0x50
 8001512:	5a82      	ldrh	r2, [r0, r2]
 8001514:	00db      	lsls	r3, r3, #3
 8001516:	18c3      	adds	r3, r0, r3
 8001518:	18d3      	adds	r3, r2, r3
 800151a:	4a8f      	ldr	r2, [pc, #572]	; (8001758 <HAL_PCD_IRQHandler+0x5a8>)
 800151c:	4694      	mov	ip, r2
 800151e:	4463      	add	r3, ip
 8001520:	881a      	ldrh	r2, [r3, #0]
 8001522:	0592      	lsls	r2, r2, #22
 8001524:	0d93      	lsrs	r3, r2, #22
 8001526:	469a      	mov	sl, r3
 8001528:	d13a      	bne.n	80015a0 <HAL_PCD_IRQHandler+0x3f0>
 800152a:	00eb      	lsls	r3, r5, #3
 800152c:	1b5b      	subs	r3, r3, r5
 800152e:	009b      	lsls	r3, r3, #2
 8001530:	18e3      	adds	r3, r4, r3
 8001532:	3309      	adds	r3, #9
 8001534:	33ff      	adds	r3, #255	; 0xff
 8001536:	781b      	ldrb	r3, [r3, #0]
 8001538:	009b      	lsls	r3, r3, #2
 800153a:	6822      	ldr	r2, [r4, #0]
 800153c:	4694      	mov	ip, r2
 800153e:	4463      	add	r3, ip
 8001540:	881a      	ldrh	r2, [r3, #0]
 8001542:	4986      	ldr	r1, [pc, #536]	; (800175c <HAL_PCD_IRQHandler+0x5ac>)
 8001544:	4011      	ands	r1, r2
 8001546:	4a86      	ldr	r2, [pc, #536]	; (8001760 <HAL_PCD_IRQHandler+0x5b0>)
 8001548:	430a      	orrs	r2, r1
 800154a:	801a      	strh	r2, [r3, #0]
 800154c:	4650      	mov	r0, sl
 800154e:	00e9      	lsls	r1, r5, #3
 8001550:	1b49      	subs	r1, r1, r5
 8001552:	0089      	lsls	r1, r1, #2
 8001554:	1861      	adds	r1, r4, r1
 8001556:	000a      	movs	r2, r1
 8001558:	3221      	adds	r2, #33	; 0x21
 800155a:	32ff      	adds	r2, #255	; 0xff
 800155c:	6813      	ldr	r3, [r2, #0]
 800155e:	4453      	add	r3, sl
 8001560:	6013      	str	r3, [r2, #0]
 8001562:	000b      	movs	r3, r1
 8001564:	3319      	adds	r3, #25
 8001566:	33ff      	adds	r3, #255	; 0xff
 8001568:	681a      	ldr	r2, [r3, #0]
 800156a:	4452      	add	r2, sl
 800156c:	601a      	str	r2, [r3, #0]
 800156e:	311d      	adds	r1, #29
 8001570:	31ff      	adds	r1, #255	; 0xff
 8001572:	680b      	ldr	r3, [r1, #0]
 8001574:	2b00      	cmp	r3, #0
 8001576:	d008      	beq.n	800158a <HAL_PCD_IRQHandler+0x3da>
 8001578:	00e9      	lsls	r1, r5, #3
 800157a:	1b49      	subs	r1, r1, r5
 800157c:	0089      	lsls	r1, r1, #2
 800157e:	1861      	adds	r1, r4, r1
 8001580:	3115      	adds	r1, #21
 8001582:	31ff      	adds	r1, #255	; 0xff
 8001584:	6809      	ldr	r1, [r1, #0]
 8001586:	4288      	cmp	r0, r1
 8001588:	d235      	bcs.n	80015f6 <HAL_PCD_IRQHandler+0x446>
 800158a:	00eb      	lsls	r3, r5, #3
 800158c:	1b5b      	subs	r3, r3, r5
 800158e:	009b      	lsls	r3, r3, #2
 8001590:	18e3      	adds	r3, r4, r3
 8001592:	3309      	adds	r3, #9
 8001594:	33ff      	adds	r3, #255	; 0xff
 8001596:	7819      	ldrb	r1, [r3, #0]
 8001598:	0020      	movs	r0, r4
 800159a:	f001 fbc3 	bl	8002d24 <HAL_PCD_DataOutStageCallback>
 800159e:	e734      	b.n	800140a <HAL_PCD_IRQHandler+0x25a>
 80015a0:	00eb      	lsls	r3, r5, #3
 80015a2:	1b5b      	subs	r3, r3, r5
 80015a4:	009b      	lsls	r3, r3, #2
 80015a6:	18e3      	adds	r3, r4, r3
 80015a8:	001a      	movs	r2, r3
 80015aa:	320f      	adds	r2, #15
 80015ac:	32ff      	adds	r2, #255	; 0xff
 80015ae:	8812      	ldrh	r2, [r2, #0]
 80015b0:	3319      	adds	r3, #25
 80015b2:	33ff      	adds	r3, #255	; 0xff
 80015b4:	6819      	ldr	r1, [r3, #0]
 80015b6:	4653      	mov	r3, sl
 80015b8:	f7ff fddc 	bl	8001174 <PCD_ReadPMA>
 80015bc:	e7b5      	b.n	800152a <HAL_PCD_IRQHandler+0x37a>
 80015be:	2250      	movs	r2, #80	; 0x50
 80015c0:	5a82      	ldrh	r2, [r0, r2]
 80015c2:	00db      	lsls	r3, r3, #3
 80015c4:	18c3      	adds	r3, r0, r3
 80015c6:	18d3      	adds	r3, r2, r3
 80015c8:	4a66      	ldr	r2, [pc, #408]	; (8001764 <HAL_PCD_IRQHandler+0x5b4>)
 80015ca:	4694      	mov	ip, r2
 80015cc:	4463      	add	r3, ip
 80015ce:	881a      	ldrh	r2, [r3, #0]
 80015d0:	0592      	lsls	r2, r2, #22
 80015d2:	0d93      	lsrs	r3, r2, #22
 80015d4:	469a      	mov	sl, r3
 80015d6:	d0a8      	beq.n	800152a <HAL_PCD_IRQHandler+0x37a>
 80015d8:	00eb      	lsls	r3, r5, #3
 80015da:	1b5b      	subs	r3, r3, r5
 80015dc:	009b      	lsls	r3, r3, #2
 80015de:	18e3      	adds	r3, r4, r3
 80015e0:	001a      	movs	r2, r3
 80015e2:	3211      	adds	r2, #17
 80015e4:	32ff      	adds	r2, #255	; 0xff
 80015e6:	8812      	ldrh	r2, [r2, #0]
 80015e8:	3319      	adds	r3, #25
 80015ea:	33ff      	adds	r3, #255	; 0xff
 80015ec:	6819      	ldr	r1, [r3, #0]
 80015ee:	4653      	mov	r3, sl
 80015f0:	f7ff fdc0 	bl	8001174 <PCD_ReadPMA>
 80015f4:	e799      	b.n	800152a <HAL_PCD_IRQHandler+0x37a>
 80015f6:	00e9      	lsls	r1, r5, #3
 80015f8:	1b49      	subs	r1, r1, r5
 80015fa:	0089      	lsls	r1, r1, #2
 80015fc:	1861      	adds	r1, r4, r1
 80015fe:	3109      	adds	r1, #9
 8001600:	31ff      	adds	r1, #255	; 0xff
 8001602:	7809      	ldrb	r1, [r1, #0]
 8001604:	0020      	movs	r0, r4
 8001606:	f7ff fa7b 	bl	8000b00 <HAL_PCD_EP_Receive>
 800160a:	e6fe      	b.n	800140a <HAL_PCD_IRQHandler+0x25a>
 800160c:	6820      	ldr	r0, [r4, #0]
 800160e:	00eb      	lsls	r3, r5, #3
 8001610:	1b5b      	subs	r3, r3, r5
 8001612:	009b      	lsls	r3, r3, #2
 8001614:	18e3      	adds	r3, r4, r3
 8001616:	3328      	adds	r3, #40	; 0x28
 8001618:	781b      	ldrb	r3, [r3, #0]
 800161a:	009a      	lsls	r2, r3, #2
 800161c:	5a12      	ldrh	r2, [r2, r0]
 800161e:	0652      	lsls	r2, r2, #25
 8001620:	d54c      	bpl.n	80016bc <HAL_PCD_IRQHandler+0x50c>
 8001622:	2250      	movs	r2, #80	; 0x50
 8001624:	5a82      	ldrh	r2, [r0, r2]
 8001626:	00db      	lsls	r3, r3, #3
 8001628:	18c3      	adds	r3, r0, r3
 800162a:	18d3      	adds	r3, r2, r3
 800162c:	4a4a      	ldr	r2, [pc, #296]	; (8001758 <HAL_PCD_IRQHandler+0x5a8>)
 800162e:	4694      	mov	ip, r2
 8001630:	4463      	add	r3, ip
 8001632:	881b      	ldrh	r3, [r3, #0]
 8001634:	059b      	lsls	r3, r3, #22
 8001636:	0d9b      	lsrs	r3, r3, #22
 8001638:	00ea      	lsls	r2, r5, #3
 800163a:	1b52      	subs	r2, r2, r5
 800163c:	0092      	lsls	r2, r2, #2
 800163e:	18a2      	adds	r2, r4, r2
 8001640:	6413      	str	r3, [r2, #64]	; 0x40
 8001642:	2b00      	cmp	r3, #0
 8001644:	d134      	bne.n	80016b0 <HAL_PCD_IRQHandler+0x500>
 8001646:	00eb      	lsls	r3, r5, #3
 8001648:	1b5b      	subs	r3, r3, r5
 800164a:	009b      	lsls	r3, r3, #2
 800164c:	18e3      	adds	r3, r4, r3
 800164e:	3328      	adds	r3, #40	; 0x28
 8001650:	781b      	ldrb	r3, [r3, #0]
 8001652:	009b      	lsls	r3, r3, #2
 8001654:	6822      	ldr	r2, [r4, #0]
 8001656:	4694      	mov	ip, r2
 8001658:	4463      	add	r3, ip
 800165a:	881a      	ldrh	r2, [r3, #0]
 800165c:	493f      	ldr	r1, [pc, #252]	; (800175c <HAL_PCD_IRQHandler+0x5ac>)
 800165e:	4011      	ands	r1, r2
 8001660:	4a41      	ldr	r2, [pc, #260]	; (8001768 <HAL_PCD_IRQHandler+0x5b8>)
 8001662:	430a      	orrs	r2, r1
 8001664:	801a      	strh	r2, [r3, #0]
 8001666:	6821      	ldr	r1, [r4, #0]
 8001668:	2350      	movs	r3, #80	; 0x50
 800166a:	5aca      	ldrh	r2, [r1, r3]
 800166c:	00eb      	lsls	r3, r5, #3
 800166e:	1b5b      	subs	r3, r3, r5
 8001670:	009b      	lsls	r3, r3, #2
 8001672:	18e3      	adds	r3, r4, r3
 8001674:	0018      	movs	r0, r3
 8001676:	3028      	adds	r0, #40	; 0x28
 8001678:	7800      	ldrb	r0, [r0, #0]
 800167a:	00c0      	lsls	r0, r0, #3
 800167c:	1809      	adds	r1, r1, r0
 800167e:	1852      	adds	r2, r2, r1
 8001680:	4935      	ldr	r1, [pc, #212]	; (8001758 <HAL_PCD_IRQHandler+0x5a8>)
 8001682:	468c      	mov	ip, r1
 8001684:	4462      	add	r2, ip
 8001686:	8812      	ldrh	r2, [r2, #0]
 8001688:	0592      	lsls	r2, r2, #22
 800168a:	0d92      	lsrs	r2, r2, #22
 800168c:	641a      	str	r2, [r3, #64]	; 0x40
 800168e:	6b99      	ldr	r1, [r3, #56]	; 0x38
 8001690:	468c      	mov	ip, r1
 8001692:	4462      	add	r2, ip
 8001694:	639a      	str	r2, [r3, #56]	; 0x38
 8001696:	6bdb      	ldr	r3, [r3, #60]	; 0x3c
 8001698:	2b00      	cmp	r3, #0
 800169a:	d127      	bne.n	80016ec <HAL_PCD_IRQHandler+0x53c>
 800169c:	00eb      	lsls	r3, r5, #3
 800169e:	1b5b      	subs	r3, r3, r5
 80016a0:	009b      	lsls	r3, r3, #2
 80016a2:	18e3      	adds	r3, r4, r3
 80016a4:	3328      	adds	r3, #40	; 0x28
 80016a6:	7819      	ldrb	r1, [r3, #0]
 80016a8:	0020      	movs	r0, r4
 80016aa:	f001 fb49 	bl	8002d40 <HAL_PCD_DataInStageCallback>
 80016ae:	e5e3      	b.n	8001278 <HAL_PCD_IRQHandler+0xc8>
 80016b0:	0011      	movs	r1, r2
 80016b2:	8dd2      	ldrh	r2, [r2, #46]	; 0x2e
 80016b4:	6b89      	ldr	r1, [r1, #56]	; 0x38
 80016b6:	f7ff fc3b 	bl	8000f30 <PCD_WritePMA>
 80016ba:	e7c4      	b.n	8001646 <HAL_PCD_IRQHandler+0x496>
 80016bc:	2250      	movs	r2, #80	; 0x50
 80016be:	5a82      	ldrh	r2, [r0, r2]
 80016c0:	00db      	lsls	r3, r3, #3
 80016c2:	18c3      	adds	r3, r0, r3
 80016c4:	18d3      	adds	r3, r2, r3
 80016c6:	4a27      	ldr	r2, [pc, #156]	; (8001764 <HAL_PCD_IRQHandler+0x5b4>)
 80016c8:	4694      	mov	ip, r2
 80016ca:	4463      	add	r3, ip
 80016cc:	881b      	ldrh	r3, [r3, #0]
 80016ce:	059b      	lsls	r3, r3, #22
 80016d0:	0d9b      	lsrs	r3, r3, #22
 80016d2:	00ea      	lsls	r2, r5, #3
 80016d4:	1b52      	subs	r2, r2, r5
 80016d6:	0092      	lsls	r2, r2, #2
 80016d8:	18a2      	adds	r2, r4, r2
 80016da:	6413      	str	r3, [r2, #64]	; 0x40
 80016dc:	2b00      	cmp	r3, #0
 80016de:	d0b2      	beq.n	8001646 <HAL_PCD_IRQHandler+0x496>
 80016e0:	0011      	movs	r1, r2
 80016e2:	8e12      	ldrh	r2, [r2, #48]	; 0x30
 80016e4:	6b89      	ldr	r1, [r1, #56]	; 0x38
 80016e6:	f7ff fc23 	bl	8000f30 <PCD_WritePMA>
 80016ea:	e7ac      	b.n	8001646 <HAL_PCD_IRQHandler+0x496>
 80016ec:	00e9      	lsls	r1, r5, #3
 80016ee:	1b49      	subs	r1, r1, r5
 80016f0:	0089      	lsls	r1, r1, #2
 80016f2:	1861      	adds	r1, r4, r1
 80016f4:	3128      	adds	r1, #40	; 0x28
 80016f6:	7809      	ldrb	r1, [r1, #0]
 80016f8:	0020      	movs	r0, r4
 80016fa:	f7ff fc2f 	bl	8000f5c <HAL_PCD_EP_Transmit>
 80016fe:	e5bb      	b.n	8001278 <HAL_PCD_IRQHandler+0xc8>
 8001700:	2144      	movs	r1, #68	; 0x44
 8001702:	5a5a      	ldrh	r2, [r3, r1]
 8001704:	4819      	ldr	r0, [pc, #100]	; (800176c <HAL_PCD_IRQHandler+0x5bc>)
 8001706:	4002      	ands	r2, r0
 8001708:	525a      	strh	r2, [r3, r1]
 800170a:	0020      	movs	r0, r4
 800170c:	f001 fb2b 	bl	8002d66 <HAL_PCD_ResetCallback>
 8001710:	2100      	movs	r1, #0
 8001712:	0020      	movs	r0, r4
 8001714:	f7fe ff43 	bl	800059e <HAL_PCD_SetAddress>
 8001718:	e55d      	b.n	80011d6 <HAL_PCD_IRQHandler+0x26>
 800171a:	2240      	movs	r2, #64	; 0x40
 800171c:	5a99      	ldrh	r1, [r3, r2]
 800171e:	2004      	movs	r0, #4
 8001720:	4381      	bics	r1, r0
 8001722:	5299      	strh	r1, [r3, r2]
 8001724:	4b12      	ldr	r3, [pc, #72]	; (8001770 <HAL_PCD_IRQHandler+0x5c0>)
 8001726:	6821      	ldr	r1, [r4, #0]
 8001728:	528b      	strh	r3, [r1, r2]
 800172a:	0020      	movs	r0, r4
 800172c:	f001 fb3e 	bl	8002dac <HAL_PCD_ResumeCallback>
 8001730:	6821      	ldr	r1, [r4, #0]
 8001732:	2244      	movs	r2, #68	; 0x44
 8001734:	5a8b      	ldrh	r3, [r1, r2]
 8001736:	480f      	ldr	r0, [pc, #60]	; (8001774 <HAL_PCD_IRQHandler+0x5c4>)
 8001738:	4003      	ands	r3, r0
 800173a:	528b      	strh	r3, [r1, r2]
 800173c:	e565      	b.n	800120a <HAL_PCD_IRQHandler+0x5a>
 800173e:	0020      	movs	r0, r4
 8001740:	f001 fb22 	bl	8002d88 <HAL_PCD_SuspendCallback>
 8001744:	e57b      	b.n	800123e <HAL_PCD_IRQHandler+0x8e>
 8001746:	2144      	movs	r1, #68	; 0x44
 8001748:	5a5a      	ldrh	r2, [r3, r1]
 800174a:	480b      	ldr	r0, [pc, #44]	; (8001778 <HAL_PCD_IRQHandler+0x5c8>)
 800174c:	4002      	ands	r2, r0
 800174e:	525a      	strh	r2, [r3, r1]
 8001750:	0020      	movs	r0, r4
 8001752:	f001 fb01 	bl	8002d58 <HAL_PCD_SOFCallback>
 8001756:	e578      	b.n	800124a <HAL_PCD_IRQHandler+0x9a>
 8001758:	00000402 	.word	0x00000402
 800175c:	00000f0f 	.word	0x00000f0f
 8001760:	ffff80c0 	.word	0xffff80c0
 8001764:	00000406 	.word	0x00000406
 8001768:	ffffc080 	.word	0xffffc080
 800176c:	fffffbff 	.word	0xfffffbff
 8001770:	ffffbd00 	.word	0xffffbd00
 8001774:	ffffefff 	.word	0xffffefff
 8001778:	fffffdff 	.word	0xfffffdff

0800177c <HAL_PCDEx_PMAConfig>:
 800177c:	b510      	push	{r4, lr}
 800177e:	060c      	lsls	r4, r1, #24
 8001780:	d50f      	bpl.n	80017a2 <HAL_PCDEx_PMAConfig+0x26>
 8001782:	247f      	movs	r4, #127	; 0x7f
 8001784:	4021      	ands	r1, r4
 8001786:	00cc      	lsls	r4, r1, #3
 8001788:	1a61      	subs	r1, r4, r1
 800178a:	0089      	lsls	r1, r1, #2
 800178c:	3128      	adds	r1, #40	; 0x28
 800178e:	1840      	adds	r0, r0, r1
 8001790:	2a00      	cmp	r2, #0
 8001792:	d00d      	beq.n	80017b0 <HAL_PCDEx_PMAConfig+0x34>
 8001794:	2201      	movs	r2, #1
 8001796:	7282      	strb	r2, [r0, #10]
 8001798:	80c3      	strh	r3, [r0, #6]
 800179a:	0c1b      	lsrs	r3, r3, #16
 800179c:	8103      	strh	r3, [r0, #8]
 800179e:	2000      	movs	r0, #0
 80017a0:	bd10      	pop	{r4, pc}
 80017a2:	00cc      	lsls	r4, r1, #3
 80017a4:	1a61      	subs	r1, r4, r1
 80017a6:	0089      	lsls	r1, r1, #2
 80017a8:	3109      	adds	r1, #9
 80017aa:	31ff      	adds	r1, #255	; 0xff
 80017ac:	1840      	adds	r0, r0, r1
 80017ae:	e7ef      	b.n	8001790 <HAL_PCDEx_PMAConfig+0x14>
 80017b0:	7282      	strb	r2, [r0, #10]
 80017b2:	8083      	strh	r3, [r0, #4]
 80017b4:	e7f3      	b.n	800179e <HAL_PCDEx_PMAConfig+0x22>
	...

080017b8 <HAL_RCC_GetHCLKFreq>:
 80017b8:	4b01      	ldr	r3, [pc, #4]	; (80017c0 <HAL_RCC_GetHCLKFreq+0x8>)
 80017ba:	6818      	ldr	r0, [r3, #0]
 80017bc:	4770      	bx	lr
 80017be:	46c0      	nop			; (mov r8, r8)
 80017c0:	20000110 	.word	0x20000110

080017c4 <LL_Init1msTick>:
 80017c4:	b510      	push	{r4, lr}
 80017c6:	21fa      	movs	r1, #250	; 0xfa
 80017c8:	0089      	lsls	r1, r1, #2
 80017ca:	f7fe fc9d 	bl	8000108 <__udivsi3>
 80017ce:	3801      	subs	r0, #1
 80017d0:	4b03      	ldr	r3, [pc, #12]	; (80017e0 <LL_Init1msTick+0x1c>)
 80017d2:	6058      	str	r0, [r3, #4]
 80017d4:	2200      	movs	r2, #0
 80017d6:	609a      	str	r2, [r3, #8]
 80017d8:	3205      	adds	r2, #5
 80017da:	601a      	str	r2, [r3, #0]
 80017dc:	bd10      	pop	{r4, pc}
 80017de:	46c0      	nop			; (mov r8, r8)
 80017e0:	e000e010 	.word	0xe000e010

080017e4 <LL_SetSystemCoreClock>:
 80017e4:	4b01      	ldr	r3, [pc, #4]	; (80017ec <LL_SetSystemCoreClock+0x8>)
 80017e6:	6018      	str	r0, [r3, #0]
 80017e8:	4770      	bx	lr
 80017ea:	46c0      	nop			; (mov r8, r8)
 80017ec:	20000110 	.word	0x20000110

080017f0 <USBD_CDC_DataIn>:
 80017f0:	2386      	movs	r3, #134	; 0x86
 80017f2:	009b      	lsls	r3, r3, #2
 80017f4:	58c3      	ldr	r3, [r0, r3]
 80017f6:	2b00      	cmp	r3, #0
 80017f8:	d005      	beq.n	8001806 <USBD_CDC_DataIn+0x16>
 80017fa:	2285      	movs	r2, #133	; 0x85
 80017fc:	0092      	lsls	r2, r2, #2
 80017fe:	2100      	movs	r1, #0
 8001800:	5099      	str	r1, [r3, r2]
 8001802:	2000      	movs	r0, #0
 8001804:	4770      	bx	lr
 8001806:	2002      	movs	r0, #2
 8001808:	e7fc      	b.n	8001804 <USBD_CDC_DataIn+0x14>
	...

0800180c <USBD_CDC_EP0_RxReady>:
 800180c:	b510      	push	{r4, lr}
 800180e:	2387      	movs	r3, #135	; 0x87
 8001810:	009b      	lsls	r3, r3, #2
 8001812:	58c3      	ldr	r3, [r0, r3]
 8001814:	2b00      	cmp	r3, #0
 8001816:	d00f      	beq.n	8001838 <USBD_CDC_EP0_RxReady+0x2c>
 8001818:	2286      	movs	r2, #134	; 0x86
 800181a:	0092      	lsls	r2, r2, #2
 800181c:	5884      	ldr	r4, [r0, r2]
 800181e:	3a18      	subs	r2, #24
 8001820:	5ca0      	ldrb	r0, [r4, r2]
 8001822:	28ff      	cmp	r0, #255	; 0xff
 8001824:	d008      	beq.n	8001838 <USBD_CDC_EP0_RxReady+0x2c>
 8001826:	4a05      	ldr	r2, [pc, #20]	; (800183c <USBD_CDC_EP0_RxReady+0x30>)
 8001828:	5ca2      	ldrb	r2, [r4, r2]
 800182a:	689b      	ldr	r3, [r3, #8]
 800182c:	0021      	movs	r1, r4
 800182e:	4798      	blx	r3
 8001830:	2380      	movs	r3, #128	; 0x80
 8001832:	009b      	lsls	r3, r3, #2
 8001834:	22ff      	movs	r2, #255	; 0xff
 8001836:	54e2      	strb	r2, [r4, r3]
 8001838:	2000      	movs	r0, #0
 800183a:	bd10      	pop	{r4, pc}
 800183c:	00000201 	.word	0x00000201

08001840 <USBD_CDC_GetFSCfgDesc>:
 8001840:	2343      	movs	r3, #67	; 0x43
 8001842:	8003      	strh	r3, [r0, #0]
 8001844:	4800      	ldr	r0, [pc, #0]	; (8001848 <USBD_CDC_GetFSCfgDesc+0x8>)
 8001846:	4770      	bx	lr
 8001848:	20000038 	.word	0x20000038

0800184c <USBD_CDC_GetHSCfgDesc>:
 800184c:	2343      	movs	r3, #67	; 0x43
 800184e:	8003      	strh	r3, [r0, #0]
 8001850:	4800      	ldr	r0, [pc, #0]	; (8001854 <USBD_CDC_GetHSCfgDesc+0x8>)
 8001852:	4770      	bx	lr
 8001854:	2000007c 	.word	0x2000007c

08001858 <USBD_CDC_GetOtherSpeedCfgDesc>:
 8001858:	2343      	movs	r3, #67	; 0x43
 800185a:	8003      	strh	r3, [r0, #0]
 800185c:	4800      	ldr	r0, [pc, #0]	; (8001860 <USBD_CDC_GetOtherSpeedCfgDesc+0x8>)
 800185e:	4770      	bx	lr
 8001860:	200000cc 	.word	0x200000cc

08001864 <USBD_CDC_GetDeviceQualifierDescriptor>:
 8001864:	230a      	movs	r3, #10
 8001866:	8003      	strh	r3, [r0, #0]
 8001868:	4800      	ldr	r0, [pc, #0]	; (800186c <USBD_CDC_GetDeviceQualifierDescriptor+0x8>)
 800186a:	4770      	bx	lr
 800186c:	200000c0 	.word	0x200000c0

08001870 <USBD_CDC_DataOut>:
 8001870:	b570      	push	{r4, r5, r6, lr}
 8001872:	0004      	movs	r4, r0
 8001874:	2686      	movs	r6, #134	; 0x86
 8001876:	00b6      	lsls	r6, r6, #2
 8001878:	5985      	ldr	r5, [r0, r6]
 800187a:	f001 fb54 	bl	8002f26 <USBD_LL_GetRxDataSize>
 800187e:	2383      	movs	r3, #131	; 0x83
 8001880:	009b      	lsls	r3, r3, #2
 8001882:	50e8      	str	r0, [r5, r3]
 8001884:	59a3      	ldr	r3, [r4, r6]
 8001886:	2b00      	cmp	r3, #0
 8001888:	d00a      	beq.n	80018a0 <USBD_CDC_DataOut+0x30>
 800188a:	2383      	movs	r3, #131	; 0x83
 800188c:	009b      	lsls	r3, r3, #2
 800188e:	18e9      	adds	r1, r5, r3
 8001890:	3b08      	subs	r3, #8
 8001892:	58e8      	ldr	r0, [r5, r3]
 8001894:	3318      	adds	r3, #24
 8001896:	58e3      	ldr	r3, [r4, r3]
 8001898:	68db      	ldr	r3, [r3, #12]
 800189a:	4798      	blx	r3
 800189c:	2000      	movs	r0, #0
 800189e:	bd70      	pop	{r4, r5, r6, pc}
 80018a0:	2002      	movs	r0, #2
 80018a2:	e7fc      	b.n	800189e <USBD_CDC_DataOut+0x2e>

080018a4 <USBD_CDC_Setup>:
 80018a4:	b570      	push	{r4, r5, r6, lr}
 80018a6:	0005      	movs	r5, r0
 80018a8:	000c      	movs	r4, r1
 80018aa:	7809      	ldrb	r1, [r1, #0]
 80018ac:	2360      	movs	r3, #96	; 0x60
 80018ae:	400b      	ands	r3, r1
 80018b0:	d02c      	beq.n	800190c <USBD_CDC_Setup+0x68>
 80018b2:	2b20      	cmp	r3, #32
 80018b4:	d10a      	bne.n	80018cc <USBD_CDC_Setup+0x28>
 80018b6:	88e2      	ldrh	r2, [r4, #6]
 80018b8:	2a00      	cmp	r2, #0
 80018ba:	d109      	bne.n	80018d0 <USBD_CDC_Setup+0x2c>
 80018bc:	7860      	ldrb	r0, [r4, #1]
 80018be:	2387      	movs	r3, #135	; 0x87
 80018c0:	009b      	lsls	r3, r3, #2
 80018c2:	58eb      	ldr	r3, [r5, r3]
 80018c4:	689b      	ldr	r3, [r3, #8]
 80018c6:	2200      	movs	r2, #0
 80018c8:	0021      	movs	r1, r4
 80018ca:	4798      	blx	r3
 80018cc:	2000      	movs	r0, #0
 80018ce:	bd70      	pop	{r4, r5, r6, pc}
 80018d0:	33f9      	adds	r3, #249	; 0xf9
 80018d2:	33ff      	adds	r3, #255	; 0xff
 80018d4:	58c6      	ldr	r6, [r0, r3]
 80018d6:	b249      	sxtb	r1, r1
 80018d8:	2900      	cmp	r1, #0
 80018da:	da0b      	bge.n	80018f4 <USBD_CDC_Setup+0x50>
 80018dc:	7860      	ldrb	r0, [r4, #1]
 80018de:	3304      	adds	r3, #4
 80018e0:	58eb      	ldr	r3, [r5, r3]
 80018e2:	689b      	ldr	r3, [r3, #8]
 80018e4:	0031      	movs	r1, r6
 80018e6:	4798      	blx	r3
 80018e8:	88e2      	ldrh	r2, [r4, #6]
 80018ea:	0031      	movs	r1, r6
 80018ec:	0028      	movs	r0, r5
 80018ee:	f000 fca1 	bl	8002234 <USBD_CtlSendData>
 80018f2:	e7eb      	b.n	80018cc <USBD_CDC_Setup+0x28>
 80018f4:	7862      	ldrb	r2, [r4, #1]
 80018f6:	2380      	movs	r3, #128	; 0x80
 80018f8:	009b      	lsls	r3, r3, #2
 80018fa:	54f2      	strb	r2, [r6, r3]
 80018fc:	88e2      	ldrh	r2, [r4, #6]
 80018fe:	4b07      	ldr	r3, [pc, #28]	; (800191c <USBD_CDC_Setup+0x78>)
 8001900:	54f2      	strb	r2, [r6, r3]
 8001902:	88e2      	ldrh	r2, [r4, #6]
 8001904:	0031      	movs	r1, r6
 8001906:	f000 fcab 	bl	8002260 <USBD_CtlPrepareRx>
 800190a:	e7df      	b.n	80018cc <USBD_CDC_Setup+0x28>
 800190c:	7863      	ldrb	r3, [r4, #1]
 800190e:	2b0a      	cmp	r3, #10
 8001910:	d1dc      	bne.n	80018cc <USBD_CDC_Setup+0x28>
 8001912:	2201      	movs	r2, #1
 8001914:	4902      	ldr	r1, [pc, #8]	; (8001920 <USBD_CDC_Setup+0x7c>)
 8001916:	f000 fc8d 	bl	8002234 <USBD_CtlSendData>
 800191a:	e7d7      	b.n	80018cc <USBD_CDC_Setup+0x28>
 800191c:	00000201 	.word	0x00000201
 8001920:	20000190 	.word	0x20000190

08001924 <USBD_CDC_DeInit>:
 8001924:	b570      	push	{r4, r5, r6, lr}
 8001926:	0004      	movs	r4, r0
 8001928:	2181      	movs	r1, #129	; 0x81
 800192a:	f001 faac 	bl	8002e86 <USBD_LL_CloseEP>
 800192e:	2101      	movs	r1, #1
 8001930:	0020      	movs	r0, r4
 8001932:	f001 faa8 	bl	8002e86 <USBD_LL_CloseEP>
 8001936:	2182      	movs	r1, #130	; 0x82
 8001938:	0020      	movs	r0, r4
 800193a:	f001 faa4 	bl	8002e86 <USBD_LL_CloseEP>
 800193e:	2386      	movs	r3, #134	; 0x86
 8001940:	009b      	lsls	r3, r3, #2
 8001942:	58e3      	ldr	r3, [r4, r3]
 8001944:	2b00      	cmp	r3, #0
 8001946:	d00b      	beq.n	8001960 <USBD_CDC_DeInit+0x3c>
 8001948:	2387      	movs	r3, #135	; 0x87
 800194a:	009b      	lsls	r3, r3, #2
 800194c:	58e3      	ldr	r3, [r4, r3]
 800194e:	685b      	ldr	r3, [r3, #4]
 8001950:	4798      	blx	r3
 8001952:	2586      	movs	r5, #134	; 0x86
 8001954:	00ad      	lsls	r5, r5, #2
 8001956:	5960      	ldr	r0, [r4, r5]
 8001958:	f001 faf0 	bl	8002f3c <USBD_static_free>
 800195c:	2300      	movs	r3, #0
 800195e:	5163      	str	r3, [r4, r5]
 8001960:	2000      	movs	r0, #0
 8001962:	bd70      	pop	{r4, r5, r6, pc}

08001964 <USBD_CDC_Init>:
 8001964:	b570      	push	{r4, r5, r6, lr}
 8001966:	0004      	movs	r4, r0
 8001968:	7c03      	ldrb	r3, [r0, #16]
 800196a:	2b00      	cmp	r3, #0
 800196c:	d134      	bne.n	80019d8 <USBD_CDC_Init+0x74>
 800196e:	2580      	movs	r5, #128	; 0x80
 8001970:	00ad      	lsls	r5, r5, #2
 8001972:	002b      	movs	r3, r5
 8001974:	2202      	movs	r2, #2
 8001976:	2181      	movs	r1, #129	; 0x81
 8001978:	f001 fa79 	bl	8002e6e <USBD_LL_OpenEP>
 800197c:	002b      	movs	r3, r5
 800197e:	2202      	movs	r2, #2
 8001980:	2101      	movs	r1, #1
 8001982:	0020      	movs	r0, r4
 8001984:	f001 fa73 	bl	8002e6e <USBD_LL_OpenEP>
 8001988:	2308      	movs	r3, #8
 800198a:	2203      	movs	r2, #3
 800198c:	2182      	movs	r1, #130	; 0x82
 800198e:	0020      	movs	r0, r4
 8001990:	f001 fa6d 	bl	8002e6e <USBD_LL_OpenEP>
 8001994:	2087      	movs	r0, #135	; 0x87
 8001996:	0080      	lsls	r0, r0, #2
 8001998:	f001 facc 	bl	8002f34 <USBD_static_malloc>
 800199c:	0005      	movs	r5, r0
 800199e:	2386      	movs	r3, #134	; 0x86
 80019a0:	009b      	lsls	r3, r3, #2
 80019a2:	50e0      	str	r0, [r4, r3]
 80019a4:	2800      	cmp	r0, #0
 80019a6:	d02d      	beq.n	8001a04 <USBD_CDC_Init+0xa0>
 80019a8:	3304      	adds	r3, #4
 80019aa:	58e3      	ldr	r3, [r4, r3]
 80019ac:	681b      	ldr	r3, [r3, #0]
 80019ae:	4798      	blx	r3
 80019b0:	2300      	movs	r3, #0
 80019b2:	2285      	movs	r2, #133	; 0x85
 80019b4:	0092      	lsls	r2, r2, #2
 80019b6:	50ab      	str	r3, [r5, r2]
 80019b8:	3204      	adds	r2, #4
 80019ba:	50ab      	str	r3, [r5, r2]
 80019bc:	7c23      	ldrb	r3, [r4, #16]
 80019be:	2b00      	cmp	r3, #0
 80019c0:	d016      	beq.n	80019f0 <USBD_CDC_Init+0x8c>
 80019c2:	2381      	movs	r3, #129	; 0x81
 80019c4:	009b      	lsls	r3, r3, #2
 80019c6:	58ea      	ldr	r2, [r5, r3]
 80019c8:	3bc5      	subs	r3, #197	; 0xc5
 80019ca:	3bff      	subs	r3, #255	; 0xff
 80019cc:	2101      	movs	r1, #1
 80019ce:	0020      	movs	r0, r4
 80019d0:	f001 faa0 	bl	8002f14 <USBD_LL_PrepareReceive>
 80019d4:	2000      	movs	r0, #0
 80019d6:	bd70      	pop	{r4, r5, r6, pc}
 80019d8:	2340      	movs	r3, #64	; 0x40
 80019da:	2202      	movs	r2, #2
 80019dc:	2181      	movs	r1, #129	; 0x81
 80019de:	f001 fa46 	bl	8002e6e <USBD_LL_OpenEP>
 80019e2:	2340      	movs	r3, #64	; 0x40
 80019e4:	2202      	movs	r2, #2
 80019e6:	2101      	movs	r1, #1
 80019e8:	0020      	movs	r0, r4
 80019ea:	f001 fa40 	bl	8002e6e <USBD_LL_OpenEP>
 80019ee:	e7cb      	b.n	8001988 <USBD_CDC_Init+0x24>
 80019f0:	3380      	adds	r3, #128	; 0x80
 80019f2:	3a14      	subs	r2, #20
 80019f4:	58aa      	ldr	r2, [r5, r2]
 80019f6:	009b      	lsls	r3, r3, #2
 80019f8:	2101      	movs	r1, #1
 80019fa:	0020      	movs	r0, r4
 80019fc:	f001 fa8a 	bl	8002f14 <USBD_LL_PrepareReceive>
 8001a00:	2000      	movs	r0, #0
 8001a02:	e7e8      	b.n	80019d6 <USBD_CDC_Init+0x72>
 8001a04:	2001      	movs	r0, #1
 8001a06:	e7e6      	b.n	80019d6 <USBD_CDC_Init+0x72>

08001a08 <USBD_CDC_RegisterInterface>:
 8001a08:	2900      	cmp	r1, #0
 8001a0a:	d004      	beq.n	8001a16 <USBD_CDC_RegisterInterface+0xe>
 8001a0c:	2387      	movs	r3, #135	; 0x87
 8001a0e:	009b      	lsls	r3, r3, #2
 8001a10:	50c1      	str	r1, [r0, r3]
 8001a12:	2000      	movs	r0, #0
 8001a14:	4770      	bx	lr
 8001a16:	2002      	movs	r0, #2
 8001a18:	e7fc      	b.n	8001a14 <USBD_CDC_RegisterInterface+0xc>

08001a1a <USBD_CDC_SetTxBuffer>:
 8001a1a:	2386      	movs	r3, #134	; 0x86
 8001a1c:	009b      	lsls	r3, r3, #2
 8001a1e:	58c3      	ldr	r3, [r0, r3]
 8001a20:	2082      	movs	r0, #130	; 0x82
 8001a22:	0080      	lsls	r0, r0, #2
 8001a24:	5019      	str	r1, [r3, r0]
 8001a26:	2184      	movs	r1, #132	; 0x84
 8001a28:	0089      	lsls	r1, r1, #2
 8001a2a:	505a      	str	r2, [r3, r1]
 8001a2c:	2000      	movs	r0, #0
 8001a2e:	4770      	bx	lr

08001a30 <USBD_CDC_SetRxBuffer>:
 8001a30:	2386      	movs	r3, #134	; 0x86
 8001a32:	009b      	lsls	r3, r3, #2
 8001a34:	58c2      	ldr	r2, [r0, r3]
 8001a36:	3b14      	subs	r3, #20
 8001a38:	50d1      	str	r1, [r2, r3]
 8001a3a:	2000      	movs	r0, #0
 8001a3c:	4770      	bx	lr

08001a3e <USBD_CDC_TransmitPacket>:
 8001a3e:	b510      	push	{r4, lr}
 8001a40:	2386      	movs	r3, #134	; 0x86
 8001a42:	009b      	lsls	r3, r3, #2
 8001a44:	58c2      	ldr	r2, [r0, r3]
 8001a46:	2a00      	cmp	r2, #0
 8001a48:	d015      	beq.n	8001a76 <USBD_CDC_TransmitPacket+0x38>
 8001a4a:	3b04      	subs	r3, #4
 8001a4c:	58d1      	ldr	r1, [r2, r3]
 8001a4e:	2301      	movs	r3, #1
 8001a50:	2900      	cmp	r1, #0
 8001a52:	d001      	beq.n	8001a58 <USBD_CDC_TransmitPacket+0x1a>
 8001a54:	0018      	movs	r0, r3
 8001a56:	bd10      	pop	{r4, pc}
 8001a58:	2385      	movs	r3, #133	; 0x85
 8001a5a:	009b      	lsls	r3, r3, #2
 8001a5c:	3101      	adds	r1, #1
 8001a5e:	50d1      	str	r1, [r2, r3]
 8001a60:	3b04      	subs	r3, #4
 8001a62:	5ad3      	ldrh	r3, [r2, r3]
 8001a64:	2182      	movs	r1, #130	; 0x82
 8001a66:	0089      	lsls	r1, r1, #2
 8001a68:	5852      	ldr	r2, [r2, r1]
 8001a6a:	3988      	subs	r1, #136	; 0x88
 8001a6c:	39ff      	subs	r1, #255	; 0xff
 8001a6e:	f001 fa48 	bl	8002f02 <USBD_LL_Transmit>
 8001a72:	2300      	movs	r3, #0
 8001a74:	e7ee      	b.n	8001a54 <USBD_CDC_TransmitPacket+0x16>
 8001a76:	2302      	movs	r3, #2
 8001a78:	e7ec      	b.n	8001a54 <USBD_CDC_TransmitPacket+0x16>

08001a7a <USBD_CDC_ReceivePacket>:
 8001a7a:	b510      	push	{r4, lr}
 8001a7c:	2386      	movs	r3, #134	; 0x86
 8001a7e:	009b      	lsls	r3, r3, #2
 8001a80:	58c2      	ldr	r2, [r0, r3]
 8001a82:	2a00      	cmp	r2, #0
 8001a84:	d016      	beq.n	8001ab4 <USBD_CDC_ReceivePacket+0x3a>
 8001a86:	7c03      	ldrb	r3, [r0, #16]
 8001a88:	2b00      	cmp	r3, #0
 8001a8a:	d009      	beq.n	8001aa0 <USBD_CDC_ReceivePacket+0x26>
 8001a8c:	2381      	movs	r3, #129	; 0x81
 8001a8e:	009b      	lsls	r3, r3, #2
 8001a90:	58d2      	ldr	r2, [r2, r3]
 8001a92:	3bc5      	subs	r3, #197	; 0xc5
 8001a94:	3bff      	subs	r3, #255	; 0xff
 8001a96:	2101      	movs	r1, #1
 8001a98:	f001 fa3c 	bl	8002f14 <USBD_LL_PrepareReceive>
 8001a9c:	2000      	movs	r0, #0
 8001a9e:	bd10      	pop	{r4, pc}
 8001aa0:	3380      	adds	r3, #128	; 0x80
 8001aa2:	2181      	movs	r1, #129	; 0x81
 8001aa4:	0089      	lsls	r1, r1, #2
 8001aa6:	5852      	ldr	r2, [r2, r1]
 8001aa8:	009b      	lsls	r3, r3, #2
 8001aaa:	2101      	movs	r1, #1
 8001aac:	f001 fa32 	bl	8002f14 <USBD_LL_PrepareReceive>
 8001ab0:	2000      	movs	r0, #0
 8001ab2:	e7f4      	b.n	8001a9e <USBD_CDC_ReceivePacket+0x24>
 8001ab4:	2002      	movs	r0, #2
 8001ab6:	e7f2      	b.n	8001a9e <USBD_CDC_ReceivePacket+0x24>

08001ab8 <USBD_Init>:
 8001ab8:	b510      	push	{r4, lr}
 8001aba:	2800      	cmp	r0, #0
 8001abc:	d016      	beq.n	8001aec <USBD_Init+0x34>
 8001abe:	2385      	movs	r3, #133	; 0x85
 8001ac0:	009b      	lsls	r3, r3, #2
 8001ac2:	58c3      	ldr	r3, [r0, r3]
 8001ac4:	2b00      	cmp	r3, #0
 8001ac6:	d003      	beq.n	8001ad0 <USBD_Init+0x18>
 8001ac8:	2385      	movs	r3, #133	; 0x85
 8001aca:	009b      	lsls	r3, r3, #2
 8001acc:	2400      	movs	r4, #0
 8001ace:	50c4      	str	r4, [r0, r3]
 8001ad0:	2900      	cmp	r1, #0
 8001ad2:	d002      	beq.n	8001ada <USBD_Init+0x22>
 8001ad4:	2384      	movs	r3, #132	; 0x84
 8001ad6:	009b      	lsls	r3, r3, #2
 8001ad8:	50c1      	str	r1, [r0, r3]
 8001ada:	23fe      	movs	r3, #254	; 0xfe
 8001adc:	005b      	lsls	r3, r3, #1
 8001ade:	2101      	movs	r1, #1
 8001ae0:	54c1      	strb	r1, [r0, r3]
 8001ae2:	7002      	strb	r2, [r0, #0]
 8001ae4:	f001 f978 	bl	8002dd8 <USBD_LL_Init>
 8001ae8:	2000      	movs	r0, #0
 8001aea:	bd10      	pop	{r4, pc}
 8001aec:	2002      	movs	r0, #2
 8001aee:	e7fc      	b.n	8001aea <USBD_Init+0x32>

08001af0 <USBD_RegisterClass>:
 8001af0:	2900      	cmp	r1, #0
 8001af2:	d004      	beq.n	8001afe <USBD_RegisterClass+0xe>
 8001af4:	2385      	movs	r3, #133	; 0x85
 8001af6:	009b      	lsls	r3, r3, #2
 8001af8:	50c1      	str	r1, [r0, r3]
 8001afa:	2000      	movs	r0, #0
 8001afc:	4770      	bx	lr
 8001afe:	2002      	movs	r0, #2
 8001b00:	e7fc      	b.n	8001afc <USBD_RegisterClass+0xc>

08001b02 <USBD_Start>:
 8001b02:	b510      	push	{r4, lr}
 8001b04:	f001 f9aa 	bl	8002e5c <USBD_LL_Start>
 8001b08:	2000      	movs	r0, #0
 8001b0a:	bd10      	pop	{r4, pc}

08001b0c <USBD_SetClassConfig>:
 8001b0c:	b510      	push	{r4, lr}
 8001b0e:	2385      	movs	r3, #133	; 0x85
 8001b10:	009b      	lsls	r3, r3, #2
 8001b12:	58c3      	ldr	r3, [r0, r3]
 8001b14:	2b00      	cmp	r3, #0
 8001b16:	d005      	beq.n	8001b24 <USBD_SetClassConfig+0x18>
 8001b18:	681b      	ldr	r3, [r3, #0]
 8001b1a:	4798      	blx	r3
 8001b1c:	1e43      	subs	r3, r0, #1
 8001b1e:	4198      	sbcs	r0, r3
 8001b20:	0040      	lsls	r0, r0, #1
 8001b22:	bd10      	pop	{r4, pc}
 8001b24:	2002      	movs	r0, #2
 8001b26:	e7fc      	b.n	8001b22 <USBD_SetClassConfig+0x16>

08001b28 <USBD_ClrClassConfig>:
 8001b28:	b510      	push	{r4, lr}
 8001b2a:	2385      	movs	r3, #133	; 0x85
 8001b2c:	009b      	lsls	r3, r3, #2
 8001b2e:	58c3      	ldr	r3, [r0, r3]
 8001b30:	685b      	ldr	r3, [r3, #4]
 8001b32:	4798      	blx	r3
 8001b34:	2000      	movs	r0, #0
 8001b36:	bd10      	pop	{r4, pc}

08001b38 <USBD_LL_SetupStage>:
 8001b38:	b570      	push	{r4, r5, r6, lr}
 8001b3a:	0004      	movs	r4, r0
 8001b3c:	2382      	movs	r3, #130	; 0x82
 8001b3e:	009b      	lsls	r3, r3, #2
 8001b40:	18c5      	adds	r5, r0, r3
 8001b42:	0028      	movs	r0, r5
 8001b44:	f000 f911 	bl	8001d6a <USBD_ParseSetupRequest>
 8001b48:	23fa      	movs	r3, #250	; 0xfa
 8001b4a:	005b      	lsls	r3, r3, #1
 8001b4c:	2201      	movs	r2, #1
 8001b4e:	50e2      	str	r2, [r4, r3]
 8001b50:	4b12      	ldr	r3, [pc, #72]	; (8001b9c <USBD_LL_SetupStage+0x64>)
 8001b52:	5ae2      	ldrh	r2, [r4, r3]
 8001b54:	3b16      	subs	r3, #22
 8001b56:	50e2      	str	r2, [r4, r3]
 8001b58:	3310      	adds	r3, #16
 8001b5a:	5ce1      	ldrb	r1, [r4, r3]
 8001b5c:	3bea      	subs	r3, #234	; 0xea
 8001b5e:	3bff      	subs	r3, #255	; 0xff
 8001b60:	400b      	ands	r3, r1
 8001b62:	2b01      	cmp	r3, #1
 8001b64:	d00f      	beq.n	8001b86 <USBD_LL_SetupStage+0x4e>
 8001b66:	2b00      	cmp	r3, #0
 8001b68:	d007      	beq.n	8001b7a <USBD_LL_SetupStage+0x42>
 8001b6a:	2b02      	cmp	r3, #2
 8001b6c:	d010      	beq.n	8001b90 <USBD_LL_SetupStage+0x58>
 8001b6e:	237f      	movs	r3, #127	; 0x7f
 8001b70:	4399      	bics	r1, r3
 8001b72:	0020      	movs	r0, r4
 8001b74:	f001 f990 	bl	8002e98 <USBD_LL_StallEP>
 8001b78:	e003      	b.n	8001b82 <USBD_LL_SetupStage+0x4a>
 8001b7a:	0029      	movs	r1, r5
 8001b7c:	0020      	movs	r0, r4
 8001b7e:	f000 f913 	bl	8001da8 <USBD_StdDevReq>
 8001b82:	2000      	movs	r0, #0
 8001b84:	bd70      	pop	{r4, r5, r6, pc}
 8001b86:	0029      	movs	r1, r5
 8001b88:	0020      	movs	r0, r4
 8001b8a:	f000 faa9 	bl	80020e0 <USBD_StdItfReq>
 8001b8e:	e7f8      	b.n	8001b82 <USBD_LL_SetupStage+0x4a>
 8001b90:	0029      	movs	r1, r5
 8001b92:	0020      	movs	r0, r4
 8001b94:	f000 fac3 	bl	800211e <USBD_StdEPReq>
 8001b98:	e7f3      	b.n	8001b82 <USBD_LL_SetupStage+0x4a>
 8001b9a:	46c0      	nop			; (mov r8, r8)
 8001b9c:	0000020e 	.word	0x0000020e

08001ba0 <USBD_LL_DataOutStage>:
 8001ba0:	b510      	push	{r4, lr}
 8001ba2:	0004      	movs	r4, r0
 8001ba4:	0013      	movs	r3, r2
 8001ba6:	2900      	cmp	r1, #0
 8001ba8:	d129      	bne.n	8001bfe <USBD_LL_DataOutStage+0x5e>
 8001baa:	22fa      	movs	r2, #250	; 0xfa
 8001bac:	0052      	lsls	r2, r2, #1
 8001bae:	5882      	ldr	r2, [r0, r2]
 8001bb0:	2a03      	cmp	r2, #3
 8001bb2:	d001      	beq.n	8001bb8 <USBD_LL_DataOutStage+0x18>
 8001bb4:	2000      	movs	r0, #0
 8001bb6:	bd10      	pop	{r4, pc}
 8001bb8:	1d42      	adds	r2, r0, #5
 8001bba:	32ff      	adds	r2, #255	; 0xff
 8001bbc:	6891      	ldr	r1, [r2, #8]
 8001bbe:	68d2      	ldr	r2, [r2, #12]
 8001bc0:	4291      	cmp	r1, r2
 8001bc2:	d80f      	bhi.n	8001be4 <USBD_LL_DataOutStage+0x44>
 8001bc4:	2385      	movs	r3, #133	; 0x85
 8001bc6:	009b      	lsls	r3, r3, #2
 8001bc8:	58c3      	ldr	r3, [r0, r3]
 8001bca:	691b      	ldr	r3, [r3, #16]
 8001bcc:	2b00      	cmp	r3, #0
 8001bce:	d005      	beq.n	8001bdc <USBD_LL_DataOutStage+0x3c>
 8001bd0:	22fe      	movs	r2, #254	; 0xfe
 8001bd2:	0052      	lsls	r2, r2, #1
 8001bd4:	5c82      	ldrb	r2, [r0, r2]
 8001bd6:	2a03      	cmp	r2, #3
 8001bd8:	d100      	bne.n	8001bdc <USBD_LL_DataOutStage+0x3c>
 8001bda:	4798      	blx	r3
 8001bdc:	0020      	movs	r0, r4
 8001bde:	f000 fb57 	bl	8002290 <USBD_CtlSendStatus>
 8001be2:	e7e7      	b.n	8001bb4 <USBD_LL_DataOutStage+0x14>
 8001be4:	1a89      	subs	r1, r1, r2
 8001be6:	3005      	adds	r0, #5
 8001be8:	30ff      	adds	r0, #255	; 0xff
 8001bea:	6081      	str	r1, [r0, #8]
 8001bec:	428a      	cmp	r2, r1
 8001bee:	d900      	bls.n	8001bf2 <USBD_LL_DataOutStage+0x52>
 8001bf0:	000a      	movs	r2, r1
 8001bf2:	b292      	uxth	r2, r2
 8001bf4:	0019      	movs	r1, r3
 8001bf6:	0020      	movs	r0, r4
 8001bf8:	f000 fb42 	bl	8002280 <USBD_CtlContinueRx>
 8001bfc:	e7da      	b.n	8001bb4 <USBD_LL_DataOutStage+0x14>
 8001bfe:	2385      	movs	r3, #133	; 0x85
 8001c00:	009b      	lsls	r3, r3, #2
 8001c02:	58c3      	ldr	r3, [r0, r3]
 8001c04:	699b      	ldr	r3, [r3, #24]
 8001c06:	2b00      	cmp	r3, #0
 8001c08:	d0d4      	beq.n	8001bb4 <USBD_LL_DataOutStage+0x14>
 8001c0a:	22fe      	movs	r2, #254	; 0xfe
 8001c0c:	0052      	lsls	r2, r2, #1
 8001c0e:	5c82      	ldrb	r2, [r0, r2]
 8001c10:	2a03      	cmp	r2, #3
 8001c12:	d1cf      	bne.n	8001bb4 <USBD_LL_DataOutStage+0x14>
 8001c14:	4798      	blx	r3
 8001c16:	e7cd      	b.n	8001bb4 <USBD_LL_DataOutStage+0x14>

08001c18 <USBD_LL_DataInStage>:
 8001c18:	b570      	push	{r4, r5, r6, lr}
 8001c1a:	0004      	movs	r4, r0
 8001c1c:	0013      	movs	r3, r2
 8001c1e:	2900      	cmp	r1, #0
 8001c20:	d14e      	bne.n	8001cc0 <USBD_LL_DataInStage+0xa8>
 8001c22:	22fa      	movs	r2, #250	; 0xfa
 8001c24:	0052      	lsls	r2, r2, #1
 8001c26:	5882      	ldr	r2, [r0, r2]
 8001c28:	2a02      	cmp	r2, #2
 8001c2a:	d006      	beq.n	8001c3a <USBD_LL_DataInStage+0x22>
 8001c2c:	2380      	movs	r3, #128	; 0x80
 8001c2e:	009b      	lsls	r3, r3, #2
 8001c30:	5ce3      	ldrb	r3, [r4, r3]
 8001c32:	2b01      	cmp	r3, #1
 8001c34:	d03f      	beq.n	8001cb6 <USBD_LL_DataInStage+0x9e>
 8001c36:	2000      	movs	r0, #0
 8001c38:	bd70      	pop	{r4, r5, r6, pc}
 8001c3a:	69c2      	ldr	r2, [r0, #28]
 8001c3c:	6a05      	ldr	r5, [r0, #32]
 8001c3e:	42aa      	cmp	r2, r5
 8001c40:	d81e      	bhi.n	8001c80 <USBD_LL_DataInStage+0x68>
 8001c42:	6986      	ldr	r6, [r0, #24]
 8001c44:	0029      	movs	r1, r5
 8001c46:	0030      	movs	r0, r6
 8001c48:	f7fe fae4 	bl	8000214 <__aeabi_uidivmod>
 8001c4c:	2900      	cmp	r1, #0
 8001c4e:	d106      	bne.n	8001c5e <USBD_LL_DataInStage+0x46>
 8001c50:	42b5      	cmp	r5, r6
 8001c52:	d804      	bhi.n	8001c5e <USBD_LL_DataInStage+0x46>
 8001c54:	23fc      	movs	r3, #252	; 0xfc
 8001c56:	005b      	lsls	r3, r3, #1
 8001c58:	58e3      	ldr	r3, [r4, r3]
 8001c5a:	429e      	cmp	r6, r3
 8001c5c:	d31d      	bcc.n	8001c9a <USBD_LL_DataInStage+0x82>
 8001c5e:	2385      	movs	r3, #133	; 0x85
 8001c60:	009b      	lsls	r3, r3, #2
 8001c62:	58e3      	ldr	r3, [r4, r3]
 8001c64:	68db      	ldr	r3, [r3, #12]
 8001c66:	2b00      	cmp	r3, #0
 8001c68:	d006      	beq.n	8001c78 <USBD_LL_DataInStage+0x60>
 8001c6a:	22fe      	movs	r2, #254	; 0xfe
 8001c6c:	0052      	lsls	r2, r2, #1
 8001c6e:	5ca2      	ldrb	r2, [r4, r2]
 8001c70:	2a03      	cmp	r2, #3
 8001c72:	d101      	bne.n	8001c78 <USBD_LL_DataInStage+0x60>
 8001c74:	0020      	movs	r0, r4
 8001c76:	4798      	blx	r3
 8001c78:	0020      	movs	r0, r4
 8001c7a:	f000 fb15 	bl	80022a8 <USBD_CtlReceiveStatus>
 8001c7e:	e7d5      	b.n	8001c2c <USBD_LL_DataInStage+0x14>
 8001c80:	1b52      	subs	r2, r2, r5
 8001c82:	61c2      	str	r2, [r0, #28]
 8001c84:	b292      	uxth	r2, r2
 8001c86:	0019      	movs	r1, r3
 8001c88:	f000 fae2 	bl	8002250 <USBD_CtlContinueSendData>
 8001c8c:	2300      	movs	r3, #0
 8001c8e:	2200      	movs	r2, #0
 8001c90:	2100      	movs	r1, #0
 8001c92:	0020      	movs	r0, r4
 8001c94:	f001 f93e 	bl	8002f14 <USBD_LL_PrepareReceive>
 8001c98:	e7c8      	b.n	8001c2c <USBD_LL_DataInStage+0x14>
 8001c9a:	2200      	movs	r2, #0
 8001c9c:	0020      	movs	r0, r4
 8001c9e:	f000 fad7 	bl	8002250 <USBD_CtlContinueSendData>
 8001ca2:	23fc      	movs	r3, #252	; 0xfc
 8001ca4:	005b      	lsls	r3, r3, #1
 8001ca6:	2200      	movs	r2, #0
 8001ca8:	50e2      	str	r2, [r4, r3]
 8001caa:	2300      	movs	r3, #0
 8001cac:	2100      	movs	r1, #0
 8001cae:	0020      	movs	r0, r4
 8001cb0:	f001 f930 	bl	8002f14 <USBD_LL_PrepareReceive>
 8001cb4:	e7ba      	b.n	8001c2c <USBD_LL_DataInStage+0x14>
 8001cb6:	2380      	movs	r3, #128	; 0x80
 8001cb8:	009b      	lsls	r3, r3, #2
 8001cba:	2200      	movs	r2, #0
 8001cbc:	54e2      	strb	r2, [r4, r3]
 8001cbe:	e7ba      	b.n	8001c36 <USBD_LL_DataInStage+0x1e>
 8001cc0:	2385      	movs	r3, #133	; 0x85
 8001cc2:	009b      	lsls	r3, r3, #2
 8001cc4:	58c3      	ldr	r3, [r0, r3]
 8001cc6:	695b      	ldr	r3, [r3, #20]
 8001cc8:	2b00      	cmp	r3, #0
 8001cca:	d0b4      	beq.n	8001c36 <USBD_LL_DataInStage+0x1e>
 8001ccc:	22fe      	movs	r2, #254	; 0xfe
 8001cce:	0052      	lsls	r2, r2, #1
 8001cd0:	5c82      	ldrb	r2, [r0, r2]
 8001cd2:	2a03      	cmp	r2, #3
 8001cd4:	d1af      	bne.n	8001c36 <USBD_LL_DataInStage+0x1e>
 8001cd6:	4798      	blx	r3
 8001cd8:	e7ad      	b.n	8001c36 <USBD_LL_DataInStage+0x1e>

08001cda <USBD_LL_Reset>:
 8001cda:	b570      	push	{r4, r5, r6, lr}
 8001cdc:	0004      	movs	r4, r0
 8001cde:	2340      	movs	r3, #64	; 0x40
 8001ce0:	2200      	movs	r2, #0
 8001ce2:	2100      	movs	r1, #0
 8001ce4:	f001 f8c3 	bl	8002e6e <USBD_LL_OpenEP>
 8001ce8:	2540      	movs	r5, #64	; 0x40
 8001cea:	2388      	movs	r3, #136	; 0x88
 8001cec:	005b      	lsls	r3, r3, #1
 8001cee:	50e5      	str	r5, [r4, r3]
 8001cf0:	3bd0      	subs	r3, #208	; 0xd0
 8001cf2:	2200      	movs	r2, #0
 8001cf4:	2180      	movs	r1, #128	; 0x80
 8001cf6:	0020      	movs	r0, r4
 8001cf8:	f001 f8b9 	bl	8002e6e <USBD_LL_OpenEP>
 8001cfc:	6225      	str	r5, [r4, #32]
 8001cfe:	23fe      	movs	r3, #254	; 0xfe
 8001d00:	005b      	lsls	r3, r3, #1
 8001d02:	2201      	movs	r2, #1
 8001d04:	54e2      	strb	r2, [r4, r3]
 8001d06:	331c      	adds	r3, #28
 8001d08:	58e3      	ldr	r3, [r4, r3]
 8001d0a:	2b00      	cmp	r3, #0
 8001d0c:	d006      	beq.n	8001d1c <USBD_LL_Reset+0x42>
 8001d0e:	7921      	ldrb	r1, [r4, #4]
 8001d10:	2385      	movs	r3, #133	; 0x85
 8001d12:	009b      	lsls	r3, r3, #2
 8001d14:	58e3      	ldr	r3, [r4, r3]
 8001d16:	685b      	ldr	r3, [r3, #4]
 8001d18:	0020      	movs	r0, r4
 8001d1a:	4798      	blx	r3
 8001d1c:	2000      	movs	r0, #0
 8001d1e:	bd70      	pop	{r4, r5, r6, pc}

08001d20 <USBD_LL_SetSpeed>:
 8001d20:	7401      	strb	r1, [r0, #16]
 8001d22:	2000      	movs	r0, #0
 8001d24:	4770      	bx	lr

08001d26 <USBD_LL_Suspend>:
 8001d26:	23fe      	movs	r3, #254	; 0xfe
 8001d28:	005b      	lsls	r3, r3, #1
 8001d2a:	5cc1      	ldrb	r1, [r0, r3]
 8001d2c:	22fe      	movs	r2, #254	; 0xfe
 8001d2e:	32ff      	adds	r2, #255	; 0xff
 8001d30:	5481      	strb	r1, [r0, r2]
 8001d32:	3afa      	subs	r2, #250	; 0xfa
 8001d34:	3aff      	subs	r2, #255	; 0xff
 8001d36:	54c2      	strb	r2, [r0, r3]
 8001d38:	2000      	movs	r0, #0
 8001d3a:	4770      	bx	lr

08001d3c <USBD_LL_Resume>:
 8001d3c:	23fe      	movs	r3, #254	; 0xfe
 8001d3e:	33ff      	adds	r3, #255	; 0xff
 8001d40:	5cc2      	ldrb	r2, [r0, r3]
 8001d42:	3b01      	subs	r3, #1
 8001d44:	54c2      	strb	r2, [r0, r3]
 8001d46:	2000      	movs	r0, #0
 8001d48:	4770      	bx	lr

08001d4a <USBD_LL_SOF>:
 8001d4a:	b510      	push	{r4, lr}
 8001d4c:	23fe      	movs	r3, #254	; 0xfe
 8001d4e:	005b      	lsls	r3, r3, #1
 8001d50:	5cc3      	ldrb	r3, [r0, r3]
 8001d52:	2b03      	cmp	r3, #3
 8001d54:	d001      	beq.n	8001d5a <USBD_LL_SOF+0x10>
 8001d56:	2000      	movs	r0, #0
 8001d58:	bd10      	pop	{r4, pc}
 8001d5a:	2385      	movs	r3, #133	; 0x85
 8001d5c:	009b      	lsls	r3, r3, #2
 8001d5e:	58c3      	ldr	r3, [r0, r3]
 8001d60:	69db      	ldr	r3, [r3, #28]
 8001d62:	2b00      	cmp	r3, #0
 8001d64:	d0f7      	beq.n	8001d56 <USBD_LL_SOF+0xc>
 8001d66:	4798      	blx	r3
 8001d68:	e7f5      	b.n	8001d56 <USBD_LL_SOF+0xc>

08001d6a <USBD_ParseSetupRequest>:
 8001d6a:	780b      	ldrb	r3, [r1, #0]
 8001d6c:	7003      	strb	r3, [r0, #0]
 8001d6e:	784b      	ldrb	r3, [r1, #1]
 8001d70:	7043      	strb	r3, [r0, #1]
 8001d72:	78ca      	ldrb	r2, [r1, #3]
 8001d74:	0212      	lsls	r2, r2, #8
 8001d76:	788b      	ldrb	r3, [r1, #2]
 8001d78:	189b      	adds	r3, r3, r2
 8001d7a:	8043      	strh	r3, [r0, #2]
 8001d7c:	794a      	ldrb	r2, [r1, #5]
 8001d7e:	0212      	lsls	r2, r2, #8
 8001d80:	790b      	ldrb	r3, [r1, #4]
 8001d82:	189b      	adds	r3, r3, r2
 8001d84:	8083      	strh	r3, [r0, #4]
 8001d86:	79ca      	ldrb	r2, [r1, #7]
 8001d88:	0212      	lsls	r2, r2, #8
 8001d8a:	798b      	ldrb	r3, [r1, #6]
 8001d8c:	189b      	adds	r3, r3, r2
 8001d8e:	80c3      	strh	r3, [r0, #6]
 8001d90:	4770      	bx	lr

08001d92 <USBD_CtlError>:
 8001d92:	b510      	push	{r4, lr}
 8001d94:	0004      	movs	r4, r0
 8001d96:	2180      	movs	r1, #128	; 0x80
 8001d98:	f001 f87e 	bl	8002e98 <USBD_LL_StallEP>
 8001d9c:	2100      	movs	r1, #0
 8001d9e:	0020      	movs	r0, r4
 8001da0:	f001 f87a 	bl	8002e98 <USBD_LL_StallEP>
 8001da4:	bd10      	pop	{r4, pc}
	...

08001da8 <USBD_StdDevReq>:
 8001da8:	b530      	push	{r4, r5, lr}
 8001daa:	b083      	sub	sp, #12
 8001dac:	0005      	movs	r5, r0
 8001dae:	000c      	movs	r4, r1
 8001db0:	784b      	ldrb	r3, [r1, #1]
 8001db2:	2b09      	cmp	r3, #9
 8001db4:	d900      	bls.n	8001db8 <USBD_StdDevReq+0x10>
 8001db6:	e18b      	b.n	80020d0 <USBD_StdDevReq+0x328>
 8001db8:	009b      	lsls	r3, r3, #2
 8001dba:	4ac1      	ldr	r2, [pc, #772]	; (80020c0 <USBD_StdDevReq+0x318>)
 8001dbc:	58d3      	ldr	r3, [r2, r3]
 8001dbe:	469f      	mov	pc, r3
 8001dc0:	884a      	ldrh	r2, [r1, #2]
 8001dc2:	0a13      	lsrs	r3, r2, #8
 8001dc4:	b299      	uxth	r1, r3
 8001dc6:	2907      	cmp	r1, #7
 8001dc8:	d900      	bls.n	8001dcc <USBD_StdDevReq+0x24>
 8001dca:	e099      	b.n	8001f00 <USBD_StdDevReq+0x158>
 8001dcc:	009b      	lsls	r3, r3, #2
 8001dce:	49bd      	ldr	r1, [pc, #756]	; (80020c4 <USBD_StdDevReq+0x31c>)
 8001dd0:	58cb      	ldr	r3, [r1, r3]
 8001dd2:	469f      	mov	pc, r3
 8001dd4:	7c00      	ldrb	r0, [r0, #16]
 8001dd6:	2384      	movs	r3, #132	; 0x84
 8001dd8:	009b      	lsls	r3, r3, #2
 8001dda:	58eb      	ldr	r3, [r5, r3]
 8001ddc:	681b      	ldr	r3, [r3, #0]
 8001dde:	466a      	mov	r2, sp
 8001de0:	1d91      	adds	r1, r2, #6
 8001de2:	4798      	blx	r3
 8001de4:	466b      	mov	r3, sp
 8001de6:	3306      	adds	r3, #6
 8001de8:	881b      	ldrh	r3, [r3, #0]
 8001dea:	2b00      	cmp	r3, #0
 8001dec:	d100      	bne.n	8001df0 <USBD_StdDevReq+0x48>
 8001dee:	e173      	b.n	80020d8 <USBD_StdDevReq+0x330>
 8001df0:	88e2      	ldrh	r2, [r4, #6]
 8001df2:	2a00      	cmp	r2, #0
 8001df4:	d100      	bne.n	8001df8 <USBD_StdDevReq+0x50>
 8001df6:	e16f      	b.n	80020d8 <USBD_StdDevReq+0x330>
 8001df8:	1c19      	adds	r1, r3, #0
 8001dfa:	4293      	cmp	r3, r2
 8001dfc:	d900      	bls.n	8001e00 <USBD_StdDevReq+0x58>
 8001dfe:	1c11      	adds	r1, r2, #0
 8001e00:	b28a      	uxth	r2, r1
 8001e02:	466b      	mov	r3, sp
 8001e04:	80d9      	strh	r1, [r3, #6]
 8001e06:	0001      	movs	r1, r0
 8001e08:	0028      	movs	r0, r5
 8001e0a:	f000 fa13 	bl	8002234 <USBD_CtlSendData>
 8001e0e:	e163      	b.n	80020d8 <USBD_StdDevReq+0x330>
 8001e10:	7c03      	ldrb	r3, [r0, #16]
 8001e12:	2b00      	cmp	r3, #0
 8001e14:	d109      	bne.n	8001e2a <USBD_StdDevReq+0x82>
 8001e16:	2385      	movs	r3, #133	; 0x85
 8001e18:	009b      	lsls	r3, r3, #2
 8001e1a:	58c3      	ldr	r3, [r0, r3]
 8001e1c:	6a9b      	ldr	r3, [r3, #40]	; 0x28
 8001e1e:	466a      	mov	r2, sp
 8001e20:	1d90      	adds	r0, r2, #6
 8001e22:	4798      	blx	r3
 8001e24:	2302      	movs	r3, #2
 8001e26:	7043      	strb	r3, [r0, #1]
 8001e28:	e7dc      	b.n	8001de4 <USBD_StdDevReq+0x3c>
 8001e2a:	2385      	movs	r3, #133	; 0x85
 8001e2c:	009b      	lsls	r3, r3, #2
 8001e2e:	58c3      	ldr	r3, [r0, r3]
 8001e30:	6adb      	ldr	r3, [r3, #44]	; 0x2c
 8001e32:	466a      	mov	r2, sp
 8001e34:	1d90      	adds	r0, r2, #6
 8001e36:	4798      	blx	r3
 8001e38:	2302      	movs	r3, #2
 8001e3a:	7043      	strb	r3, [r0, #1]
 8001e3c:	e7d2      	b.n	8001de4 <USBD_StdDevReq+0x3c>
 8001e3e:	b2d3      	uxtb	r3, r2
 8001e40:	2b05      	cmp	r3, #5
 8001e42:	d839      	bhi.n	8001eb8 <USBD_StdDevReq+0x110>
 8001e44:	009a      	lsls	r2, r3, #2
 8001e46:	4ba0      	ldr	r3, [pc, #640]	; (80020c8 <USBD_StdDevReq+0x320>)
 8001e48:	589b      	ldr	r3, [r3, r2]
 8001e4a:	469f      	mov	pc, r3
 8001e4c:	7c00      	ldrb	r0, [r0, #16]
 8001e4e:	2384      	movs	r3, #132	; 0x84
 8001e50:	009b      	lsls	r3, r3, #2
 8001e52:	58eb      	ldr	r3, [r5, r3]
 8001e54:	685b      	ldr	r3, [r3, #4]
 8001e56:	466a      	mov	r2, sp
 8001e58:	1d91      	adds	r1, r2, #6
 8001e5a:	4798      	blx	r3
 8001e5c:	e7c2      	b.n	8001de4 <USBD_StdDevReq+0x3c>
 8001e5e:	7c00      	ldrb	r0, [r0, #16]
 8001e60:	2384      	movs	r3, #132	; 0x84
 8001e62:	009b      	lsls	r3, r3, #2
 8001e64:	58eb      	ldr	r3, [r5, r3]
 8001e66:	689b      	ldr	r3, [r3, #8]
 8001e68:	466a      	mov	r2, sp
 8001e6a:	1d91      	adds	r1, r2, #6
 8001e6c:	4798      	blx	r3
 8001e6e:	e7b9      	b.n	8001de4 <USBD_StdDevReq+0x3c>
 8001e70:	7c00      	ldrb	r0, [r0, #16]
 8001e72:	2384      	movs	r3, #132	; 0x84
 8001e74:	009b      	lsls	r3, r3, #2
 8001e76:	58eb      	ldr	r3, [r5, r3]
 8001e78:	68db      	ldr	r3, [r3, #12]
 8001e7a:	466a      	mov	r2, sp
 8001e7c:	1d91      	adds	r1, r2, #6
 8001e7e:	4798      	blx	r3
 8001e80:	e7b0      	b.n	8001de4 <USBD_StdDevReq+0x3c>
 8001e82:	7c00      	ldrb	r0, [r0, #16]
 8001e84:	2384      	movs	r3, #132	; 0x84
 8001e86:	009b      	lsls	r3, r3, #2
 8001e88:	58eb      	ldr	r3, [r5, r3]
 8001e8a:	691b      	ldr	r3, [r3, #16]
 8001e8c:	466a      	mov	r2, sp
 8001e8e:	1d91      	adds	r1, r2, #6
 8001e90:	4798      	blx	r3
 8001e92:	e7a7      	b.n	8001de4 <USBD_StdDevReq+0x3c>
 8001e94:	7c00      	ldrb	r0, [r0, #16]
 8001e96:	2384      	movs	r3, #132	; 0x84
 8001e98:	009b      	lsls	r3, r3, #2
 8001e9a:	58eb      	ldr	r3, [r5, r3]
 8001e9c:	695b      	ldr	r3, [r3, #20]
 8001e9e:	466a      	mov	r2, sp
 8001ea0:	1d91      	adds	r1, r2, #6
 8001ea2:	4798      	blx	r3
 8001ea4:	e79e      	b.n	8001de4 <USBD_StdDevReq+0x3c>
 8001ea6:	7c00      	ldrb	r0, [r0, #16]
 8001ea8:	2384      	movs	r3, #132	; 0x84
 8001eaa:	009b      	lsls	r3, r3, #2
 8001eac:	58eb      	ldr	r3, [r5, r3]
 8001eae:	699b      	ldr	r3, [r3, #24]
 8001eb0:	466a      	mov	r2, sp
 8001eb2:	1d91      	adds	r1, r2, #6
 8001eb4:	4798      	blx	r3
 8001eb6:	e795      	b.n	8001de4 <USBD_StdDevReq+0x3c>
 8001eb8:	0021      	movs	r1, r4
 8001eba:	f7ff ff6a 	bl	8001d92 <USBD_CtlError>
 8001ebe:	e10b      	b.n	80020d8 <USBD_StdDevReq+0x330>
 8001ec0:	7c03      	ldrb	r3, [r0, #16]
 8001ec2:	2b00      	cmp	r3, #0
 8001ec4:	d107      	bne.n	8001ed6 <USBD_StdDevReq+0x12e>
 8001ec6:	2385      	movs	r3, #133	; 0x85
 8001ec8:	009b      	lsls	r3, r3, #2
 8001eca:	58c3      	ldr	r3, [r0, r3]
 8001ecc:	6b5b      	ldr	r3, [r3, #52]	; 0x34
 8001ece:	466a      	mov	r2, sp
 8001ed0:	1d90      	adds	r0, r2, #6
 8001ed2:	4798      	blx	r3
 8001ed4:	e786      	b.n	8001de4 <USBD_StdDevReq+0x3c>
 8001ed6:	0021      	movs	r1, r4
 8001ed8:	f7ff ff5b 	bl	8001d92 <USBD_CtlError>
 8001edc:	e0fc      	b.n	80020d8 <USBD_StdDevReq+0x330>
 8001ede:	7c03      	ldrb	r3, [r0, #16]
 8001ee0:	2b00      	cmp	r3, #0
 8001ee2:	d109      	bne.n	8001ef8 <USBD_StdDevReq+0x150>
 8001ee4:	2385      	movs	r3, #133	; 0x85
 8001ee6:	009b      	lsls	r3, r3, #2
 8001ee8:	58c3      	ldr	r3, [r0, r3]
 8001eea:	6b1b      	ldr	r3, [r3, #48]	; 0x30
 8001eec:	466a      	mov	r2, sp
 8001eee:	1d90      	adds	r0, r2, #6
 8001ef0:	4798      	blx	r3
 8001ef2:	2307      	movs	r3, #7
 8001ef4:	7043      	strb	r3, [r0, #1]
 8001ef6:	e775      	b.n	8001de4 <USBD_StdDevReq+0x3c>
 8001ef8:	0021      	movs	r1, r4
 8001efa:	f7ff ff4a 	bl	8001d92 <USBD_CtlError>
 8001efe:	e0eb      	b.n	80020d8 <USBD_StdDevReq+0x330>
 8001f00:	0021      	movs	r1, r4
 8001f02:	0028      	movs	r0, r5
 8001f04:	f7ff ff45 	bl	8001d92 <USBD_CtlError>
 8001f08:	e0e6      	b.n	80020d8 <USBD_StdDevReq+0x330>
 8001f0a:	888b      	ldrh	r3, [r1, #4]
 8001f0c:	2b00      	cmp	r3, #0
 8001f0e:	d122      	bne.n	8001f56 <USBD_StdDevReq+0x1ae>
 8001f10:	88cb      	ldrh	r3, [r1, #6]
 8001f12:	2b00      	cmp	r3, #0
 8001f14:	d11f      	bne.n	8001f56 <USBD_StdDevReq+0x1ae>
 8001f16:	33fd      	adds	r3, #253	; 0xfd
 8001f18:	33ff      	adds	r3, #255	; 0xff
 8001f1a:	5cc3      	ldrb	r3, [r0, r3]
 8001f1c:	2b03      	cmp	r3, #3
 8001f1e:	d012      	beq.n	8001f46 <USBD_StdDevReq+0x19e>
 8001f20:	884b      	ldrh	r3, [r1, #2]
 8001f22:	247f      	movs	r4, #127	; 0x7f
 8001f24:	401c      	ands	r4, r3
 8001f26:	23ff      	movs	r3, #255	; 0xff
 8001f28:	005b      	lsls	r3, r3, #1
 8001f2a:	54c4      	strb	r4, [r0, r3]
 8001f2c:	0021      	movs	r1, r4
 8001f2e:	f000 ffdf 	bl	8002ef0 <USBD_LL_SetUSBAddress>
 8001f32:	0028      	movs	r0, r5
 8001f34:	f000 f9ac 	bl	8002290 <USBD_CtlSendStatus>
 8001f38:	2c00      	cmp	r4, #0
 8001f3a:	d007      	beq.n	8001f4c <USBD_StdDevReq+0x1a4>
 8001f3c:	23fe      	movs	r3, #254	; 0xfe
 8001f3e:	005b      	lsls	r3, r3, #1
 8001f40:	2202      	movs	r2, #2
 8001f42:	54ea      	strb	r2, [r5, r3]
 8001f44:	e0c8      	b.n	80020d8 <USBD_StdDevReq+0x330>
 8001f46:	f7ff ff24 	bl	8001d92 <USBD_CtlError>
 8001f4a:	e0c5      	b.n	80020d8 <USBD_StdDevReq+0x330>
 8001f4c:	23fe      	movs	r3, #254	; 0xfe
 8001f4e:	005b      	lsls	r3, r3, #1
 8001f50:	2201      	movs	r2, #1
 8001f52:	54ea      	strb	r2, [r5, r3]
 8001f54:	e0c0      	b.n	80020d8 <USBD_StdDevReq+0x330>
 8001f56:	0021      	movs	r1, r4
 8001f58:	0028      	movs	r0, r5
 8001f5a:	f7ff ff1a 	bl	8001d92 <USBD_CtlError>
 8001f5e:	e0bb      	b.n	80020d8 <USBD_StdDevReq+0x330>
 8001f60:	7889      	ldrb	r1, [r1, #2]
 8001f62:	4b5a      	ldr	r3, [pc, #360]	; (80020cc <USBD_StdDevReq+0x324>)
 8001f64:	7019      	strb	r1, [r3, #0]
 8001f66:	2901      	cmp	r1, #1
 8001f68:	d80a      	bhi.n	8001f80 <USBD_StdDevReq+0x1d8>
 8001f6a:	23fe      	movs	r3, #254	; 0xfe
 8001f6c:	005b      	lsls	r3, r3, #1
 8001f6e:	5cc3      	ldrb	r3, [r0, r3]
 8001f70:	2b02      	cmp	r3, #2
 8001f72:	d009      	beq.n	8001f88 <USBD_StdDevReq+0x1e0>
 8001f74:	2b03      	cmp	r3, #3
 8001f76:	d01e      	beq.n	8001fb6 <USBD_StdDevReq+0x20e>
 8001f78:	0021      	movs	r1, r4
 8001f7a:	f7ff ff0a 	bl	8001d92 <USBD_CtlError>
 8001f7e:	e0ab      	b.n	80020d8 <USBD_StdDevReq+0x330>
 8001f80:	0021      	movs	r1, r4
 8001f82:	f7ff ff06 	bl	8001d92 <USBD_CtlError>
 8001f86:	e0a7      	b.n	80020d8 <USBD_StdDevReq+0x330>
 8001f88:	2900      	cmp	r1, #0
 8001f8a:	d011      	beq.n	8001fb0 <USBD_StdDevReq+0x208>
 8001f8c:	6041      	str	r1, [r0, #4]
 8001f8e:	23fe      	movs	r3, #254	; 0xfe
 8001f90:	005b      	lsls	r3, r3, #1
 8001f92:	2203      	movs	r2, #3
 8001f94:	54c2      	strb	r2, [r0, r3]
 8001f96:	f7ff fdb9 	bl	8001b0c <USBD_SetClassConfig>
 8001f9a:	2802      	cmp	r0, #2
 8001f9c:	d003      	beq.n	8001fa6 <USBD_StdDevReq+0x1fe>
 8001f9e:	0028      	movs	r0, r5
 8001fa0:	f000 f976 	bl	8002290 <USBD_CtlSendStatus>
 8001fa4:	e098      	b.n	80020d8 <USBD_StdDevReq+0x330>
 8001fa6:	0021      	movs	r1, r4
 8001fa8:	0028      	movs	r0, r5
 8001faa:	f7ff fef2 	bl	8001d92 <USBD_CtlError>
 8001fae:	e093      	b.n	80020d8 <USBD_StdDevReq+0x330>
 8001fb0:	f000 f96e 	bl	8002290 <USBD_CtlSendStatus>
 8001fb4:	e090      	b.n	80020d8 <USBD_StdDevReq+0x330>
 8001fb6:	2900      	cmp	r1, #0
 8001fb8:	d011      	beq.n	8001fde <USBD_StdDevReq+0x236>
 8001fba:	6843      	ldr	r3, [r0, #4]
 8001fbc:	4299      	cmp	r1, r3
 8001fbe:	d01f      	beq.n	8002000 <USBD_StdDevReq+0x258>
 8001fc0:	b2d9      	uxtb	r1, r3
 8001fc2:	f7ff fdb1 	bl	8001b28 <USBD_ClrClassConfig>
 8001fc6:	4b41      	ldr	r3, [pc, #260]	; (80020cc <USBD_StdDevReq+0x324>)
 8001fc8:	7819      	ldrb	r1, [r3, #0]
 8001fca:	6069      	str	r1, [r5, #4]
 8001fcc:	0028      	movs	r0, r5
 8001fce:	f7ff fd9d 	bl	8001b0c <USBD_SetClassConfig>
 8001fd2:	2802      	cmp	r0, #2
 8001fd4:	d00f      	beq.n	8001ff6 <USBD_StdDevReq+0x24e>
 8001fd6:	0028      	movs	r0, r5
 8001fd8:	f000 f95a 	bl	8002290 <USBD_CtlSendStatus>
 8001fdc:	e07c      	b.n	80020d8 <USBD_StdDevReq+0x330>
 8001fde:	23fe      	movs	r3, #254	; 0xfe
 8001fe0:	005b      	lsls	r3, r3, #1
 8001fe2:	2202      	movs	r2, #2
 8001fe4:	54c2      	strb	r2, [r0, r3]
 8001fe6:	2300      	movs	r3, #0
 8001fe8:	6043      	str	r3, [r0, #4]
 8001fea:	f7ff fd9d 	bl	8001b28 <USBD_ClrClassConfig>
 8001fee:	0028      	movs	r0, r5
 8001ff0:	f000 f94e 	bl	8002290 <USBD_CtlSendStatus>
 8001ff4:	e070      	b.n	80020d8 <USBD_StdDevReq+0x330>
 8001ff6:	0021      	movs	r1, r4
 8001ff8:	0028      	movs	r0, r5
 8001ffa:	f7ff feca 	bl	8001d92 <USBD_CtlError>
 8001ffe:	e06b      	b.n	80020d8 <USBD_StdDevReq+0x330>
 8002000:	f000 f946 	bl	8002290 <USBD_CtlSendStatus>
 8002004:	e068      	b.n	80020d8 <USBD_StdDevReq+0x330>
 8002006:	88cb      	ldrh	r3, [r1, #6]
 8002008:	2b01      	cmp	r3, #1
 800200a:	d109      	bne.n	8002020 <USBD_StdDevReq+0x278>
 800200c:	23fe      	movs	r3, #254	; 0xfe
 800200e:	005b      	lsls	r3, r3, #1
 8002010:	5cc3      	ldrb	r3, [r0, r3]
 8002012:	2b02      	cmp	r3, #2
 8002014:	d007      	beq.n	8002026 <USBD_StdDevReq+0x27e>
 8002016:	2b03      	cmp	r3, #3
 8002018:	d00d      	beq.n	8002036 <USBD_StdDevReq+0x28e>
 800201a:	f7ff feba 	bl	8001d92 <USBD_CtlError>
 800201e:	e05b      	b.n	80020d8 <USBD_StdDevReq+0x330>
 8002020:	f7ff feb7 	bl	8001d92 <USBD_CtlError>
 8002024:	e058      	b.n	80020d8 <USBD_StdDevReq+0x330>
 8002026:	2300      	movs	r3, #0
 8002028:	6083      	str	r3, [r0, #8]
 800202a:	0001      	movs	r1, r0
 800202c:	3108      	adds	r1, #8
 800202e:	2201      	movs	r2, #1
 8002030:	f000 f900 	bl	8002234 <USBD_CtlSendData>
 8002034:	e050      	b.n	80020d8 <USBD_StdDevReq+0x330>
 8002036:	1d01      	adds	r1, r0, #4
 8002038:	2201      	movs	r2, #1
 800203a:	f000 f8fb 	bl	8002234 <USBD_CtlSendData>
 800203e:	e04b      	b.n	80020d8 <USBD_StdDevReq+0x330>
 8002040:	23fe      	movs	r3, #254	; 0xfe
 8002042:	005b      	lsls	r3, r3, #1
 8002044:	5cc3      	ldrb	r3, [r0, r3]
 8002046:	3b02      	subs	r3, #2
 8002048:	2b01      	cmp	r3, #1
 800204a:	d80f      	bhi.n	800206c <USBD_StdDevReq+0x2c4>
 800204c:	2301      	movs	r3, #1
 800204e:	60c3      	str	r3, [r0, #12]
 8002050:	2381      	movs	r3, #129	; 0x81
 8002052:	009b      	lsls	r3, r3, #2
 8002054:	58c3      	ldr	r3, [r0, r3]
 8002056:	2b00      	cmp	r3, #0
 8002058:	d001      	beq.n	800205e <USBD_StdDevReq+0x2b6>
 800205a:	2303      	movs	r3, #3
 800205c:	60c3      	str	r3, [r0, #12]
 800205e:	0029      	movs	r1, r5
 8002060:	310c      	adds	r1, #12
 8002062:	2202      	movs	r2, #2
 8002064:	0028      	movs	r0, r5
 8002066:	f000 f8e5 	bl	8002234 <USBD_CtlSendData>
 800206a:	e035      	b.n	80020d8 <USBD_StdDevReq+0x330>
 800206c:	f7ff fe91 	bl	8001d92 <USBD_CtlError>
 8002070:	e032      	b.n	80020d8 <USBD_StdDevReq+0x330>
 8002072:	884b      	ldrh	r3, [r1, #2]
 8002074:	2b01      	cmp	r3, #1
 8002076:	d12f      	bne.n	80020d8 <USBD_StdDevReq+0x330>
 8002078:	2381      	movs	r3, #129	; 0x81
 800207a:	009b      	lsls	r3, r3, #2
 800207c:	2201      	movs	r2, #1
 800207e:	50c2      	str	r2, [r0, r3]
 8002080:	3310      	adds	r3, #16
 8002082:	58c3      	ldr	r3, [r0, r3]
 8002084:	689b      	ldr	r3, [r3, #8]
 8002086:	4798      	blx	r3
 8002088:	0028      	movs	r0, r5
 800208a:	f000 f901 	bl	8002290 <USBD_CtlSendStatus>
 800208e:	e023      	b.n	80020d8 <USBD_StdDevReq+0x330>
 8002090:	23fe      	movs	r3, #254	; 0xfe
 8002092:	005b      	lsls	r3, r3, #1
 8002094:	5cc3      	ldrb	r3, [r0, r3]
 8002096:	3b02      	subs	r3, #2
 8002098:	2b01      	cmp	r3, #1
 800209a:	d80e      	bhi.n	80020ba <USBD_StdDevReq+0x312>
 800209c:	884b      	ldrh	r3, [r1, #2]
 800209e:	2b01      	cmp	r3, #1
 80020a0:	d11a      	bne.n	80020d8 <USBD_StdDevReq+0x330>
 80020a2:	2381      	movs	r3, #129	; 0x81
 80020a4:	009b      	lsls	r3, r3, #2
 80020a6:	2200      	movs	r2, #0
 80020a8:	50c2      	str	r2, [r0, r3]
 80020aa:	3310      	adds	r3, #16
 80020ac:	58c3      	ldr	r3, [r0, r3]
 80020ae:	689b      	ldr	r3, [r3, #8]
 80020b0:	4798      	blx	r3
 80020b2:	0028      	movs	r0, r5
 80020b4:	f000 f8ec 	bl	8002290 <USBD_CtlSendStatus>
 80020b8:	e00e      	b.n	80020d8 <USBD_StdDevReq+0x330>
 80020ba:	f7ff fe6a 	bl	8001d92 <USBD_CtlError>
 80020be:	e00b      	b.n	80020d8 <USBD_StdDevReq+0x330>
 80020c0:	080030dc 	.word	0x080030dc
 80020c4:	08003104 	.word	0x08003104
 80020c8:	08003124 	.word	0x08003124
 80020cc:	20000191 	.word	0x20000191
 80020d0:	0021      	movs	r1, r4
 80020d2:	0028      	movs	r0, r5
 80020d4:	f7ff fe5d 	bl	8001d92 <USBD_CtlError>
 80020d8:	2000      	movs	r0, #0
 80020da:	b003      	add	sp, #12
 80020dc:	bd30      	pop	{r4, r5, pc}
 80020de:	46c0      	nop			; (mov r8, r8)

080020e0 <USBD_StdItfReq>:
 80020e0:	b570      	push	{r4, r5, r6, lr}
 80020e2:	0004      	movs	r4, r0
 80020e4:	000d      	movs	r5, r1
 80020e6:	23fe      	movs	r3, #254	; 0xfe
 80020e8:	005b      	lsls	r3, r3, #1
 80020ea:	5cc3      	ldrb	r3, [r0, r3]
 80020ec:	2b03      	cmp	r3, #3
 80020ee:	d113      	bne.n	8002118 <USBD_StdItfReq+0x38>
 80020f0:	790b      	ldrb	r3, [r1, #4]
 80020f2:	2b01      	cmp	r3, #1
 80020f4:	d80d      	bhi.n	8002112 <USBD_StdItfReq+0x32>
 80020f6:	2385      	movs	r3, #133	; 0x85
 80020f8:	009b      	lsls	r3, r3, #2
 80020fa:	58c3      	ldr	r3, [r0, r3]
 80020fc:	689b      	ldr	r3, [r3, #8]
 80020fe:	4798      	blx	r3
 8002100:	88eb      	ldrh	r3, [r5, #6]
 8002102:	2b00      	cmp	r3, #0
 8002104:	d001      	beq.n	800210a <USBD_StdItfReq+0x2a>
 8002106:	2000      	movs	r0, #0
 8002108:	bd70      	pop	{r4, r5, r6, pc}
 800210a:	0020      	movs	r0, r4
 800210c:	f000 f8c0 	bl	8002290 <USBD_CtlSendStatus>
 8002110:	e7f9      	b.n	8002106 <USBD_StdItfReq+0x26>
 8002112:	f7ff fe3e 	bl	8001d92 <USBD_CtlError>
 8002116:	e7f6      	b.n	8002106 <USBD_StdItfReq+0x26>
 8002118:	f7ff fe3b 	bl	8001d92 <USBD_CtlError>
 800211c:	e7f3      	b.n	8002106 <USBD_StdItfReq+0x26>

0800211e <USBD_StdEPReq>:
 800211e:	b570      	push	{r4, r5, r6, lr}
 8002120:	0005      	movs	r5, r0
 8002122:	000c      	movs	r4, r1
 8002124:	780a      	ldrb	r2, [r1, #0]
 8002126:	2360      	movs	r3, #96	; 0x60
 8002128:	4013      	ands	r3, r2
 800212a:	2b20      	cmp	r3, #32
 800212c:	d106      	bne.n	800213c <USBD_StdEPReq+0x1e>
 800212e:	33f5      	adds	r3, #245	; 0xf5
 8002130:	33ff      	adds	r3, #255	; 0xff
 8002132:	58c3      	ldr	r3, [r0, r3]
 8002134:	689b      	ldr	r3, [r3, #8]
 8002136:	4798      	blx	r3
 8002138:	2000      	movs	r0, #0
 800213a:	bd70      	pop	{r4, r5, r6, pc}
 800213c:	888a      	ldrh	r2, [r1, #4]
 800213e:	b2d1      	uxtb	r1, r2
 8002140:	7863      	ldrb	r3, [r4, #1]
 8002142:	2b01      	cmp	r3, #1
 8002144:	d025      	beq.n	8002192 <USBD_StdEPReq+0x74>
 8002146:	2b00      	cmp	r3, #0
 8002148:	d046      	beq.n	80021d8 <USBD_StdEPReq+0xba>
 800214a:	2b03      	cmp	r3, #3
 800214c:	d1f4      	bne.n	8002138 <USBD_StdEPReq+0x1a>
 800214e:	33fa      	adds	r3, #250	; 0xfa
 8002150:	33ff      	adds	r3, #255	; 0xff
 8002152:	5cc3      	ldrb	r3, [r0, r3]
 8002154:	2b02      	cmp	r3, #2
 8002156:	d005      	beq.n	8002164 <USBD_StdEPReq+0x46>
 8002158:	2b03      	cmp	r3, #3
 800215a:	d008      	beq.n	800216e <USBD_StdEPReq+0x50>
 800215c:	0021      	movs	r1, r4
 800215e:	f7ff fe18 	bl	8001d92 <USBD_CtlError>
 8002162:	e7e9      	b.n	8002138 <USBD_StdEPReq+0x1a>
 8002164:	064b      	lsls	r3, r1, #25
 8002166:	d0e7      	beq.n	8002138 <USBD_StdEPReq+0x1a>
 8002168:	f000 fe96 	bl	8002e98 <USBD_LL_StallEP>
 800216c:	e7e4      	b.n	8002138 <USBD_StdEPReq+0x1a>
 800216e:	8863      	ldrh	r3, [r4, #2]
 8002170:	2b00      	cmp	r3, #0
 8002172:	d103      	bne.n	800217c <USBD_StdEPReq+0x5e>
 8002174:	064b      	lsls	r3, r1, #25
 8002176:	d001      	beq.n	800217c <USBD_StdEPReq+0x5e>
 8002178:	f000 fe8e 	bl	8002e98 <USBD_LL_StallEP>
 800217c:	2385      	movs	r3, #133	; 0x85
 800217e:	009b      	lsls	r3, r3, #2
 8002180:	58eb      	ldr	r3, [r5, r3]
 8002182:	689b      	ldr	r3, [r3, #8]
 8002184:	0021      	movs	r1, r4
 8002186:	0028      	movs	r0, r5
 8002188:	4798      	blx	r3
 800218a:	0028      	movs	r0, r5
 800218c:	f000 f880 	bl	8002290 <USBD_CtlSendStatus>
 8002190:	e7d2      	b.n	8002138 <USBD_StdEPReq+0x1a>
 8002192:	23fe      	movs	r3, #254	; 0xfe
 8002194:	005b      	lsls	r3, r3, #1
 8002196:	5cc3      	ldrb	r3, [r0, r3]
 8002198:	2b02      	cmp	r3, #2
 800219a:	d005      	beq.n	80021a8 <USBD_StdEPReq+0x8a>
 800219c:	2b03      	cmp	r3, #3
 800219e:	d008      	beq.n	80021b2 <USBD_StdEPReq+0x94>
 80021a0:	0021      	movs	r1, r4
 80021a2:	f7ff fdf6 	bl	8001d92 <USBD_CtlError>
 80021a6:	e7c7      	b.n	8002138 <USBD_StdEPReq+0x1a>
 80021a8:	064b      	lsls	r3, r1, #25
 80021aa:	d0c5      	beq.n	8002138 <USBD_StdEPReq+0x1a>
 80021ac:	f000 fe74 	bl	8002e98 <USBD_LL_StallEP>
 80021b0:	e7c2      	b.n	8002138 <USBD_StdEPReq+0x1a>
 80021b2:	8863      	ldrh	r3, [r4, #2]
 80021b4:	2b00      	cmp	r3, #0
 80021b6:	d1bf      	bne.n	8002138 <USBD_StdEPReq+0x1a>
 80021b8:	064b      	lsls	r3, r1, #25
 80021ba:	d103      	bne.n	80021c4 <USBD_StdEPReq+0xa6>
 80021bc:	0028      	movs	r0, r5
 80021be:	f000 f867 	bl	8002290 <USBD_CtlSendStatus>
 80021c2:	e7b9      	b.n	8002138 <USBD_StdEPReq+0x1a>
 80021c4:	f000 fe71 	bl	8002eaa <USBD_LL_ClearStallEP>
 80021c8:	2385      	movs	r3, #133	; 0x85
 80021ca:	009b      	lsls	r3, r3, #2
 80021cc:	58eb      	ldr	r3, [r5, r3]
 80021ce:	689b      	ldr	r3, [r3, #8]
 80021d0:	0021      	movs	r1, r4
 80021d2:	0028      	movs	r0, r5
 80021d4:	4798      	blx	r3
 80021d6:	e7f1      	b.n	80021bc <USBD_StdEPReq+0x9e>
 80021d8:	23fe      	movs	r3, #254	; 0xfe
 80021da:	005b      	lsls	r3, r3, #1
 80021dc:	5cc3      	ldrb	r3, [r0, r3]
 80021de:	2b02      	cmp	r3, #2
 80021e0:	d005      	beq.n	80021ee <USBD_StdEPReq+0xd0>
 80021e2:	2b03      	cmp	r3, #3
 80021e4:	d008      	beq.n	80021f8 <USBD_StdEPReq+0xda>
 80021e6:	0021      	movs	r1, r4
 80021e8:	f7ff fdd3 	bl	8001d92 <USBD_CtlError>
 80021ec:	e7a4      	b.n	8002138 <USBD_StdEPReq+0x1a>
 80021ee:	064b      	lsls	r3, r1, #25
 80021f0:	d0a2      	beq.n	8002138 <USBD_StdEPReq+0x1a>
 80021f2:	f000 fe51 	bl	8002e98 <USBD_LL_StallEP>
 80021f6:	e79f      	b.n	8002138 <USBD_StdEPReq+0x1a>
 80021f8:	0613      	lsls	r3, r2, #24
 80021fa:	d412      	bmi.n	8002222 <USBD_StdEPReq+0x104>
 80021fc:	247f      	movs	r4, #127	; 0x7f
 80021fe:	400c      	ands	r4, r1
 8002200:	0124      	lsls	r4, r4, #4
 8002202:	3405      	adds	r4, #5
 8002204:	34ff      	adds	r4, #255	; 0xff
 8002206:	1904      	adds	r4, r0, r4
 8002208:	0028      	movs	r0, r5
 800220a:	f000 fe57 	bl	8002ebc <USBD_LL_IsStallEP>
 800220e:	2800      	cmp	r0, #0
 8002210:	d00d      	beq.n	800222e <USBD_StdEPReq+0x110>
 8002212:	2301      	movs	r3, #1
 8002214:	6023      	str	r3, [r4, #0]
 8002216:	2202      	movs	r2, #2
 8002218:	0021      	movs	r1, r4
 800221a:	0028      	movs	r0, r5
 800221c:	f000 f80a 	bl	8002234 <USBD_CtlSendData>
 8002220:	e78a      	b.n	8002138 <USBD_StdEPReq+0x1a>
 8002222:	247f      	movs	r4, #127	; 0x7f
 8002224:	400c      	ands	r4, r1
 8002226:	0124      	lsls	r4, r4, #4
 8002228:	3414      	adds	r4, #20
 800222a:	1904      	adds	r4, r0, r4
 800222c:	e7ec      	b.n	8002208 <USBD_StdEPReq+0xea>
 800222e:	2300      	movs	r3, #0
 8002230:	6023      	str	r3, [r4, #0]
 8002232:	e7f0      	b.n	8002216 <USBD_StdEPReq+0xf8>

08002234 <USBD_CtlSendData>:
 8002234:	b510      	push	{r4, lr}
 8002236:	0013      	movs	r3, r2
 8002238:	22fa      	movs	r2, #250	; 0xfa
 800223a:	0052      	lsls	r2, r2, #1
 800223c:	2402      	movs	r4, #2
 800223e:	5084      	str	r4, [r0, r2]
 8002240:	6183      	str	r3, [r0, #24]
 8002242:	61c3      	str	r3, [r0, #28]
 8002244:	000a      	movs	r2, r1
 8002246:	2100      	movs	r1, #0
 8002248:	f000 fe5b 	bl	8002f02 <USBD_LL_Transmit>
 800224c:	2000      	movs	r0, #0
 800224e:	bd10      	pop	{r4, pc}

08002250 <USBD_CtlContinueSendData>:
 8002250:	b510      	push	{r4, lr}
 8002252:	0013      	movs	r3, r2
 8002254:	000a      	movs	r2, r1
 8002256:	2100      	movs	r1, #0
 8002258:	f000 fe53 	bl	8002f02 <USBD_LL_Transmit>
 800225c:	2000      	movs	r0, #0
 800225e:	bd10      	pop	{r4, pc}

08002260 <USBD_CtlPrepareRx>:
 8002260:	b510      	push	{r4, lr}
 8002262:	0013      	movs	r3, r2
 8002264:	22fa      	movs	r2, #250	; 0xfa
 8002266:	0052      	lsls	r2, r2, #1
 8002268:	2403      	movs	r4, #3
 800226a:	5084      	str	r4, [r0, r2]
 800226c:	3aec      	subs	r2, #236	; 0xec
 800226e:	5083      	str	r3, [r0, r2]
 8002270:	3204      	adds	r2, #4
 8002272:	5083      	str	r3, [r0, r2]
 8002274:	000a      	movs	r2, r1
 8002276:	2100      	movs	r1, #0
 8002278:	f000 fe4c 	bl	8002f14 <USBD_LL_PrepareReceive>
 800227c:	2000      	movs	r0, #0
 800227e:	bd10      	pop	{r4, pc}

08002280 <USBD_CtlContinueRx>:
 8002280:	b510      	push	{r4, lr}
 8002282:	0013      	movs	r3, r2
 8002284:	000a      	movs	r2, r1
 8002286:	2100      	movs	r1, #0
 8002288:	f000 fe44 	bl	8002f14 <USBD_LL_PrepareReceive>
 800228c:	2000      	movs	r0, #0
 800228e:	bd10      	pop	{r4, pc}

08002290 <USBD_CtlSendStatus>:
 8002290:	b510      	push	{r4, lr}
 8002292:	23fa      	movs	r3, #250	; 0xfa
 8002294:	005b      	lsls	r3, r3, #1
 8002296:	2204      	movs	r2, #4
 8002298:	50c2      	str	r2, [r0, r3]
 800229a:	2300      	movs	r3, #0
 800229c:	2200      	movs	r2, #0
 800229e:	2100      	movs	r1, #0
 80022a0:	f000 fe2f 	bl	8002f02 <USBD_LL_Transmit>
 80022a4:	2000      	movs	r0, #0
 80022a6:	bd10      	pop	{r4, pc}

080022a8 <USBD_CtlReceiveStatus>:
 80022a8:	b510      	push	{r4, lr}
 80022aa:	23fa      	movs	r3, #250	; 0xfa
 80022ac:	005b      	lsls	r3, r3, #1
 80022ae:	2205      	movs	r2, #5
 80022b0:	50c2      	str	r2, [r0, r3]
 80022b2:	2300      	movs	r3, #0
 80022b4:	2200      	movs	r2, #0
 80022b6:	2100      	movs	r1, #0
 80022b8:	f000 fe2c 	bl	8002f14 <USBD_LL_PrepareReceive>
 80022bc:	2000      	movs	r0, #0
 80022be:	bd10      	pop	{r4, pc}

080022c0 <MX_GPIO_Init>:
 80022c0:	b570      	push	{r4, r5, r6, lr}
 80022c2:	b088      	sub	sp, #32
 80022c4:	4b1d      	ldr	r3, [pc, #116]	; (800233c <MX_GPIO_Init+0x7c>)
 80022c6:	6959      	ldr	r1, [r3, #20]
 80022c8:	2080      	movs	r0, #128	; 0x80
 80022ca:	03c0      	lsls	r0, r0, #15
 80022cc:	4301      	orrs	r1, r0
 80022ce:	6159      	str	r1, [r3, #20]
 80022d0:	695a      	ldr	r2, [r3, #20]
 80022d2:	4002      	ands	r2, r0
 80022d4:	9202      	str	r2, [sp, #8]
 80022d6:	9a02      	ldr	r2, [sp, #8]
 80022d8:	695a      	ldr	r2, [r3, #20]
 80022da:	2180      	movs	r1, #128	; 0x80
 80022dc:	0289      	lsls	r1, r1, #10
 80022de:	430a      	orrs	r2, r1
 80022e0:	615a      	str	r2, [r3, #20]
 80022e2:	695b      	ldr	r3, [r3, #20]
 80022e4:	400b      	ands	r3, r1
 80022e6:	9301      	str	r3, [sp, #4]
 80022e8:	9b01      	ldr	r3, [sp, #4]
 80022ea:	2310      	movs	r3, #16
 80022ec:	9303      	str	r3, [sp, #12]
 80022ee:	2500      	movs	r5, #0
 80022f0:	9506      	str	r5, [sp, #24]
 80022f2:	9504      	str	r5, [sp, #16]
 80022f4:	2601      	movs	r6, #1
 80022f6:	9605      	str	r6, [sp, #20]
 80022f8:	2490      	movs	r4, #144	; 0x90
 80022fa:	05e4      	lsls	r4, r4, #23
 80022fc:	a903      	add	r1, sp, #12
 80022fe:	0020      	movs	r0, r4
 8002300:	f7fe f812 	bl	8000328 <HAL_GPIO_Init>
 8002304:	2340      	movs	r3, #64	; 0x40
 8002306:	9303      	str	r3, [sp, #12]
 8002308:	9506      	str	r5, [sp, #24]
 800230a:	3b3e      	subs	r3, #62	; 0x3e
 800230c:	9304      	str	r3, [sp, #16]
 800230e:	9607      	str	r6, [sp, #28]
 8002310:	a903      	add	r1, sp, #12
 8002312:	0020      	movs	r0, r4
 8002314:	f7fe f808 	bl	8000328 <HAL_GPIO_Init>
 8002318:	2180      	movs	r1, #128	; 0x80
 800231a:	2201      	movs	r2, #1
 800231c:	0189      	lsls	r1, r1, #6
 800231e:	0020      	movs	r0, r4
 8002320:	f7fe f8dc 	bl	80004dc <HAL_GPIO_WritePin>
 8002324:	2320      	movs	r3, #32
 8002326:	9303      	str	r3, [sp, #12]
 8002328:	9506      	str	r5, [sp, #24]
 800232a:	3b1d      	subs	r3, #29
 800232c:	9304      	str	r3, [sp, #16]
 800232e:	a903      	add	r1, sp, #12
 8002330:	0020      	movs	r0, r4
 8002332:	f7fd fff9 	bl	8000328 <HAL_GPIO_Init>
 8002336:	b008      	add	sp, #32
 8002338:	bd70      	pop	{r4, r5, r6, pc}
 800233a:	46c0      	nop			; (mov r8, r8)
 800233c:	40021000 	.word	0x40021000

08002340 <TIM16_IRQHandler>:
 8002340:	b510      	push	{r4, lr}
 8002342:	4b4b      	ldr	r3, [pc, #300]	; (8002470 <TIM16_IRQHandler+0x130>)
 8002344:	781b      	ldrb	r3, [r3, #0]
 8002346:	2b00      	cmp	r3, #0
 8002348:	d100      	bne.n	800234c <TIM16_IRQHandler+0xc>
 800234a:	e08b      	b.n	8002464 <TIM16_IRQHandler+0x124>
 800234c:	4b49      	ldr	r3, [pc, #292]	; (8002474 <TIM16_IRQHandler+0x134>)
 800234e:	681b      	ldr	r3, [r3, #0]
 8002350:	2b00      	cmp	r3, #0
 8002352:	d000      	beq.n	8002356 <TIM16_IRQHandler+0x16>
 8002354:	e082      	b.n	800245c <TIM16_IRQHandler+0x11c>
 8002356:	4b48      	ldr	r3, [pc, #288]	; (8002478 <TIM16_IRQHandler+0x138>)
 8002358:	681b      	ldr	r3, [r3, #0]
 800235a:	2b00      	cmp	r3, #0
 800235c:	d127      	bne.n	80023ae <TIM16_IRQHandler+0x6e>
 800235e:	4a47      	ldr	r2, [pc, #284]	; (800247c <TIM16_IRQHandler+0x13c>)
 8002360:	6993      	ldr	r3, [r2, #24]
 8002362:	2110      	movs	r1, #16
 8002364:	430b      	orrs	r3, r1
 8002366:	6193      	str	r3, [r2, #24]
 8002368:	2303      	movs	r3, #3
 800236a:	4a42      	ldr	r2, [pc, #264]	; (8002474 <TIM16_IRQHandler+0x134>)
 800236c:	6013      	str	r3, [r2, #0]
 800236e:	4a44      	ldr	r2, [pc, #272]	; (8002480 <TIM16_IRQHandler+0x140>)
 8002370:	6812      	ldr	r2, [r2, #0]
 8002372:	4213      	tst	r3, r2
 8002374:	d10a      	bne.n	800238c <TIM16_IRQHandler+0x4c>
 8002376:	4b43      	ldr	r3, [pc, #268]	; (8002484 <TIM16_IRQHandler+0x144>)
 8002378:	681b      	ldr	r3, [r3, #0]
 800237a:	4943      	ldr	r1, [pc, #268]	; (8002488 <TIM16_IRQHandler+0x148>)
 800237c:	680a      	ldr	r2, [r1, #0]
 800237e:	1c50      	adds	r0, r2, #1
 8002380:	6008      	str	r0, [r1, #0]
 8002382:	189b      	adds	r3, r3, r2
 8002384:	781b      	ldrb	r3, [r3, #0]
 8002386:	b2db      	uxtb	r3, r3
 8002388:	4a40      	ldr	r2, [pc, #256]	; (800248c <TIM16_IRQHandler+0x14c>)
 800238a:	7013      	strb	r3, [r2, #0]
 800238c:	4b3f      	ldr	r3, [pc, #252]	; (800248c <TIM16_IRQHandler+0x14c>)
 800238e:	781a      	ldrb	r2, [r3, #0]
 8002390:	2103      	movs	r1, #3
 8002392:	400a      	ands	r2, r1
 8002394:	493e      	ldr	r1, [pc, #248]	; (8002490 <TIM16_IRQHandler+0x150>)
 8002396:	700a      	strb	r2, [r1, #0]
 8002398:	781a      	ldrb	r2, [r3, #0]
 800239a:	0892      	lsrs	r2, r2, #2
 800239c:	701a      	strb	r2, [r3, #0]
 800239e:	4a38      	ldr	r2, [pc, #224]	; (8002480 <TIM16_IRQHandler+0x140>)
 80023a0:	6813      	ldr	r3, [r2, #0]
 80023a2:	3301      	adds	r3, #1
 80023a4:	6013      	str	r3, [r2, #0]
 80023a6:	4b34      	ldr	r3, [pc, #208]	; (8002478 <TIM16_IRQHandler+0x138>)
 80023a8:	2201      	movs	r2, #1
 80023aa:	601a      	str	r2, [r3, #0]
 80023ac:	e05a      	b.n	8002464 <TIM16_IRQHandler+0x124>
 80023ae:	4a33      	ldr	r2, [pc, #204]	; (800247c <TIM16_IRQHandler+0x13c>)
 80023b0:	6993      	ldr	r3, [r2, #24]
 80023b2:	4938      	ldr	r1, [pc, #224]	; (8002494 <TIM16_IRQHandler+0x154>)
 80023b4:	400b      	ands	r3, r1
 80023b6:	6193      	str	r3, [r2, #24]
 80023b8:	4b2f      	ldr	r3, [pc, #188]	; (8002478 <TIM16_IRQHandler+0x138>)
 80023ba:	2200      	movs	r2, #0
 80023bc:	601a      	str	r2, [r3, #0]
 80023be:	4b34      	ldr	r3, [pc, #208]	; (8002490 <TIM16_IRQHandler+0x150>)
 80023c0:	781b      	ldrb	r3, [r3, #0]
 80023c2:	009b      	lsls	r3, r3, #2
 80023c4:	4a34      	ldr	r2, [pc, #208]	; (8002498 <TIM16_IRQHandler+0x158>)
 80023c6:	589a      	ldr	r2, [r3, r2]
 80023c8:	4b2a      	ldr	r3, [pc, #168]	; (8002474 <TIM16_IRQHandler+0x134>)
 80023ca:	601a      	str	r2, [r3, #0]
 80023cc:	4b33      	ldr	r3, [pc, #204]	; (800249c <TIM16_IRQHandler+0x15c>)
 80023ce:	681a      	ldr	r2, [r3, #0]
 80023d0:	4b33      	ldr	r3, [pc, #204]	; (80024a0 <TIM16_IRQHandler+0x160>)
 80023d2:	429a      	cmp	r2, r3
 80023d4:	d909      	bls.n	80023ea <TIM16_IRQHandler+0xaa>
 80023d6:	4a27      	ldr	r2, [pc, #156]	; (8002474 <TIM16_IRQHandler+0x134>)
 80023d8:	6813      	ldr	r3, [r2, #0]
 80023da:	3301      	adds	r3, #1
 80023dc:	6013      	str	r3, [r2, #0]
 80023de:	4a2f      	ldr	r2, [pc, #188]	; (800249c <TIM16_IRQHandler+0x15c>)
 80023e0:	6813      	ldr	r3, [r2, #0]
 80023e2:	4930      	ldr	r1, [pc, #192]	; (80024a4 <TIM16_IRQHandler+0x164>)
 80023e4:	468c      	mov	ip, r1
 80023e6:	4463      	add	r3, ip
 80023e8:	6013      	str	r3, [r2, #0]
 80023ea:	4b29      	ldr	r3, [pc, #164]	; (8002490 <TIM16_IRQHandler+0x150>)
 80023ec:	781a      	ldrb	r2, [r3, #0]
 80023ee:	492b      	ldr	r1, [pc, #172]	; (800249c <TIM16_IRQHandler+0x15c>)
 80023f0:	680b      	ldr	r3, [r1, #0]
 80023f2:	0092      	lsls	r2, r2, #2
 80023f4:	482c      	ldr	r0, [pc, #176]	; (80024a8 <TIM16_IRQHandler+0x168>)
 80023f6:	5812      	ldr	r2, [r2, r0]
 80023f8:	189b      	adds	r3, r3, r2
 80023fa:	600b      	str	r3, [r1, #0]
 80023fc:	4b22      	ldr	r3, [pc, #136]	; (8002488 <TIM16_IRQHandler+0x148>)
 80023fe:	681a      	ldr	r2, [r3, #0]
 8002400:	4b2a      	ldr	r3, [pc, #168]	; (80024ac <TIM16_IRQHandler+0x16c>)
 8002402:	681b      	ldr	r3, [r3, #0]
 8002404:	429a      	cmp	r2, r3
 8002406:	d92d      	bls.n	8002464 <TIM16_IRQHandler+0x124>
 8002408:	4b29      	ldr	r3, [pc, #164]	; (80024b0 <TIM16_IRQHandler+0x170>)
 800240a:	681b      	ldr	r3, [r3, #0]
 800240c:	2b00      	cmp	r3, #0
 800240e:	d114      	bne.n	800243a <TIM16_IRQHandler+0xfa>
 8002410:	4a17      	ldr	r2, [pc, #92]	; (8002470 <TIM16_IRQHandler+0x130>)
 8002412:	2100      	movs	r1, #0
 8002414:	7011      	strb	r1, [r2, #0]
 8002416:	2290      	movs	r2, #144	; 0x90
 8002418:	05d2      	lsls	r2, r2, #23
 800241a:	6912      	ldr	r2, [r2, #16]
 800241c:	06d2      	lsls	r2, r2, #27
 800241e:	d401      	bmi.n	8002424 <TIM16_IRQHandler+0xe4>
 8002420:	2380      	movs	r3, #128	; 0x80
 8002422:	005b      	lsls	r3, r3, #1
 8002424:	4a23      	ldr	r2, [pc, #140]	; (80024b4 <TIM16_IRQHandler+0x174>)
 8002426:	6353      	str	r3, [r2, #52]	; 0x34
 8002428:	4b23      	ldr	r3, [pc, #140]	; (80024b8 <TIM16_IRQHandler+0x178>)
 800242a:	681b      	ldr	r3, [r3, #0]
 800242c:	2b00      	cmp	r3, #0
 800242e:	d119      	bne.n	8002464 <TIM16_IRQHandler+0x124>
 8002430:	2101      	movs	r1, #1
 8002432:	4822      	ldr	r0, [pc, #136]	; (80024bc <TIM16_IRQHandler+0x17c>)
 8002434:	f000 fc2a 	bl	8002c8c <CDC_Transmit_FS>
 8002438:	e014      	b.n	8002464 <TIM16_IRQHandler+0x124>
 800243a:	4a1d      	ldr	r2, [pc, #116]	; (80024b0 <TIM16_IRQHandler+0x170>)
 800243c:	6813      	ldr	r3, [r2, #0]
 800243e:	3b01      	subs	r3, #1
 8002440:	6013      	str	r3, [r2, #0]
 8002442:	2300      	movs	r3, #0
 8002444:	4a10      	ldr	r2, [pc, #64]	; (8002488 <TIM16_IRQHandler+0x148>)
 8002446:	6013      	str	r3, [r2, #0]
 8002448:	4a0d      	ldr	r2, [pc, #52]	; (8002480 <TIM16_IRQHandler+0x140>)
 800244a:	6013      	str	r3, [r2, #0]
 800244c:	600b      	str	r3, [r1, #0]
 800244e:	4b1c      	ldr	r3, [pc, #112]	; (80024c0 <TIM16_IRQHandler+0x180>)
 8002450:	681a      	ldr	r2, [r3, #0]
 8002452:	2332      	movs	r3, #50	; 0x32
 8002454:	4353      	muls	r3, r2
 8002456:	4a07      	ldr	r2, [pc, #28]	; (8002474 <TIM16_IRQHandler+0x134>)
 8002458:	6013      	str	r3, [r2, #0]
 800245a:	e003      	b.n	8002464 <TIM16_IRQHandler+0x124>
 800245c:	4a05      	ldr	r2, [pc, #20]	; (8002474 <TIM16_IRQHandler+0x134>)
 800245e:	6813      	ldr	r3, [r2, #0]
 8002460:	3b01      	subs	r3, #1
 8002462:	6013      	str	r3, [r2, #0]
 8002464:	4a05      	ldr	r2, [pc, #20]	; (800247c <TIM16_IRQHandler+0x13c>)
 8002466:	6913      	ldr	r3, [r2, #16]
 8002468:	4916      	ldr	r1, [pc, #88]	; (80024c4 <TIM16_IRQHandler+0x184>)
 800246a:	400b      	ands	r3, r1
 800246c:	6113      	str	r3, [r2, #16]
 800246e:	bd10      	pop	{r4, pc}
 8002470:	2000029c 	.word	0x2000029c
 8002474:	200004d8 	.word	0x200004d8
 8002478:	200008f4 	.word	0x200008f4
 800247c:	40014400 	.word	0x40014400
 8002480:	200004e4 	.word	0x200004e4
 8002484:	200004ec 	.word	0x200004ec
 8002488:	200004dc 	.word	0x200004dc
 800248c:	200004e0 	.word	0x200004e0
 8002490:	200004d0 	.word	0x200004d0
 8002494:	0000ffef 	.word	0x0000ffef
 8002498:	08003164 	.word	0x08003164
 800249c:	200004e8 	.word	0x200004e8
 80024a0:	000003e7 	.word	0x000003e7
 80024a4:	fffffc18 	.word	0xfffffc18
 80024a8:	08003154 	.word	0x08003154
 80024ac:	200008f0 	.word	0x200008f0
 80024b0:	200004d4 	.word	0x200004d4
 80024b4:	40000400 	.word	0x40000400
 80024b8:	200002a8 	.word	0x200002a8
 80024bc:	0800313c 	.word	0x0800313c
 80024c0:	200002a4 	.word	0x200002a4
 80024c4:	0000fffe 	.word	0x0000fffe

080024c8 <TIM14_IRQHandler>:
 80024c8:	4b04      	ldr	r3, [pc, #16]	; (80024dc <TIM14_IRQHandler+0x14>)
 80024ca:	2201      	movs	r2, #1
 80024cc:	601a      	str	r2, [r3, #0]
 80024ce:	4a04      	ldr	r2, [pc, #16]	; (80024e0 <TIM14_IRQHandler+0x18>)
 80024d0:	6913      	ldr	r3, [r2, #16]
 80024d2:	4904      	ldr	r1, [pc, #16]	; (80024e4 <TIM14_IRQHandler+0x1c>)
 80024d4:	400b      	ands	r3, r1
 80024d6:	6113      	str	r3, [r2, #16]
 80024d8:	4770      	bx	lr
 80024da:	46c0      	nop			; (mov r8, r8)
 80024dc:	200002a0 	.word	0x200002a0
 80024e0:	40002000 	.word	0x40002000
 80024e4:	0000fffe 	.word	0x0000fffe

080024e8 <IRTX>:
 80024e8:	4b0f      	ldr	r3, [pc, #60]	; (8002528 <IRTX+0x40>)
 80024ea:	6018      	str	r0, [r3, #0]
 80024ec:	2300      	movs	r3, #0
 80024ee:	480f      	ldr	r0, [pc, #60]	; (800252c <IRTX+0x44>)
 80024f0:	6003      	str	r3, [r0, #0]
 80024f2:	480f      	ldr	r0, [pc, #60]	; (8002530 <IRTX+0x48>)
 80024f4:	6001      	str	r1, [r0, #0]
 80024f6:	490f      	ldr	r1, [pc, #60]	; (8002534 <IRTX+0x4c>)
 80024f8:	600b      	str	r3, [r1, #0]
 80024fa:	490f      	ldr	r1, [pc, #60]	; (8002538 <IRTX+0x50>)
 80024fc:	600b      	str	r3, [r1, #0]
 80024fe:	490f      	ldr	r1, [pc, #60]	; (800253c <IRTX+0x54>)
 8002500:	600b      	str	r3, [r1, #0]
 8002502:	490f      	ldr	r1, [pc, #60]	; (8002540 <IRTX+0x58>)
 8002504:	600a      	str	r2, [r1, #0]
 8002506:	4a0f      	ldr	r2, [pc, #60]	; (8002544 <IRTX+0x5c>)
 8002508:	6013      	str	r3, [r2, #0]
 800250a:	2101      	movs	r1, #1
 800250c:	4b0e      	ldr	r3, [pc, #56]	; (8002548 <IRTX+0x60>)
 800250e:	7019      	strb	r1, [r3, #0]
 8002510:	4b0e      	ldr	r3, [pc, #56]	; (800254c <IRTX+0x64>)
 8002512:	2280      	movs	r2, #128	; 0x80
 8002514:	01d2      	lsls	r2, r2, #7
 8002516:	635a      	str	r2, [r3, #52]	; 0x34
 8002518:	4b0d      	ldr	r3, [pc, #52]	; (8002550 <IRTX+0x68>)
 800251a:	68da      	ldr	r2, [r3, #12]
 800251c:	430a      	orrs	r2, r1
 800251e:	60da      	str	r2, [r3, #12]
 8002520:	681a      	ldr	r2, [r3, #0]
 8002522:	430a      	orrs	r2, r1
 8002524:	601a      	str	r2, [r3, #0]
 8002526:	4770      	bx	lr
 8002528:	200004ec 	.word	0x200004ec
 800252c:	200004dc 	.word	0x200004dc
 8002530:	200008f0 	.word	0x200008f0
 8002534:	200004d8 	.word	0x200004d8
 8002538:	200008f4 	.word	0x200008f4
 800253c:	200004e4 	.word	0x200004e4
 8002540:	200004d4 	.word	0x200004d4
 8002544:	200004e8 	.word	0x200004e8
 8002548:	2000029c 	.word	0x2000029c
 800254c:	40000400 	.word	0x40000400
 8002550:	40014400 	.word	0x40014400

08002554 <adc_read>:
 8002554:	4b09      	ldr	r3, [pc, #36]	; (800257c <adc_read+0x28>)
 8002556:	2201      	movs	r2, #1
 8002558:	609a      	str	r2, [r3, #8]
 800255a:	0019      	movs	r1, r3
 800255c:	680b      	ldr	r3, [r1, #0]
 800255e:	421a      	tst	r2, r3
 8002560:	d0fc      	beq.n	800255c <adc_read+0x8>
 8002562:	4a06      	ldr	r2, [pc, #24]	; (800257c <adc_read+0x28>)
 8002564:	6893      	ldr	r3, [r2, #8]
 8002566:	2104      	movs	r1, #4
 8002568:	430b      	orrs	r3, r1
 800256a:	6093      	str	r3, [r2, #8]
 800256c:	0011      	movs	r1, r2
 800256e:	2204      	movs	r2, #4
 8002570:	680b      	ldr	r3, [r1, #0]
 8002572:	421a      	tst	r2, r3
 8002574:	d0fc      	beq.n	8002570 <adc_read+0x1c>
 8002576:	4b01      	ldr	r3, [pc, #4]	; (800257c <adc_read+0x28>)
 8002578:	6c18      	ldr	r0, [r3, #64]	; 0x40
 800257a:	4770      	bx	lr
 800257c:	40012400 	.word	0x40012400

08002580 <SystemClock_Config>:
 8002580:	b510      	push	{r4, lr}
 8002582:	4b28      	ldr	r3, [pc, #160]	; (8002624 <SystemClock_Config+0xa4>)
 8002584:	681a      	ldr	r2, [r3, #0]
 8002586:	2101      	movs	r1, #1
 8002588:	430a      	orrs	r2, r1
 800258a:	601a      	str	r2, [r3, #0]
 800258c:	681b      	ldr	r3, [r3, #0]
 800258e:	4a26      	ldr	r2, [pc, #152]	; (8002628 <SystemClock_Config+0xa8>)
 8002590:	6811      	ldr	r1, [r2, #0]
 8002592:	2380      	movs	r3, #128	; 0x80
 8002594:	025b      	lsls	r3, r3, #9
 8002596:	430b      	orrs	r3, r1
 8002598:	6013      	str	r3, [r2, #0]
 800259a:	0011      	movs	r1, r2
 800259c:	2280      	movs	r2, #128	; 0x80
 800259e:	0292      	lsls	r2, r2, #10
 80025a0:	680b      	ldr	r3, [r1, #0]
 80025a2:	4213      	tst	r3, r2
 80025a4:	d0fc      	beq.n	80025a0 <SystemClock_Config+0x20>
 80025a6:	4b20      	ldr	r3, [pc, #128]	; (8002628 <SystemClock_Config+0xa8>)
 80025a8:	685a      	ldr	r2, [r3, #4]
 80025aa:	4920      	ldr	r1, [pc, #128]	; (800262c <SystemClock_Config+0xac>)
 80025ac:	4011      	ands	r1, r2
 80025ae:	2288      	movs	r2, #136	; 0x88
 80025b0:	0352      	lsls	r2, r2, #13
 80025b2:	430a      	orrs	r2, r1
 80025b4:	605a      	str	r2, [r3, #4]
 80025b6:	6ada      	ldr	r2, [r3, #44]	; 0x2c
 80025b8:	210f      	movs	r1, #15
 80025ba:	438a      	bics	r2, r1
 80025bc:	62da      	str	r2, [r3, #44]	; 0x2c
 80025be:	6819      	ldr	r1, [r3, #0]
 80025c0:	2280      	movs	r2, #128	; 0x80
 80025c2:	0452      	lsls	r2, r2, #17
 80025c4:	430a      	orrs	r2, r1
 80025c6:	601a      	str	r2, [r3, #0]
 80025c8:	0019      	movs	r1, r3
 80025ca:	2280      	movs	r2, #128	; 0x80
 80025cc:	0492      	lsls	r2, r2, #18
 80025ce:	680b      	ldr	r3, [r1, #0]
 80025d0:	4213      	tst	r3, r2
 80025d2:	d0fc      	beq.n	80025ce <SystemClock_Config+0x4e>
 80025d4:	4b14      	ldr	r3, [pc, #80]	; (8002628 <SystemClock_Config+0xa8>)
 80025d6:	685a      	ldr	r2, [r3, #4]
 80025d8:	21f0      	movs	r1, #240	; 0xf0
 80025da:	438a      	bics	r2, r1
 80025dc:	605a      	str	r2, [r3, #4]
 80025de:	685a      	ldr	r2, [r3, #4]
 80025e0:	4913      	ldr	r1, [pc, #76]	; (8002630 <SystemClock_Config+0xb0>)
 80025e2:	400a      	ands	r2, r1
 80025e4:	605a      	str	r2, [r3, #4]
 80025e6:	685a      	ldr	r2, [r3, #4]
 80025e8:	2103      	movs	r1, #3
 80025ea:	438a      	bics	r2, r1
 80025ec:	3901      	subs	r1, #1
 80025ee:	430a      	orrs	r2, r1
 80025f0:	605a      	str	r2, [r3, #4]
 80025f2:	0019      	movs	r1, r3
 80025f4:	220c      	movs	r2, #12
 80025f6:	684b      	ldr	r3, [r1, #4]
 80025f8:	4013      	ands	r3, r2
 80025fa:	2b08      	cmp	r3, #8
 80025fc:	d1fb      	bne.n	80025f6 <SystemClock_Config+0x76>
 80025fe:	4c0d      	ldr	r4, [pc, #52]	; (8002634 <SystemClock_Config+0xb4>)
 8002600:	0020      	movs	r0, r4
 8002602:	f7ff f8df 	bl	80017c4 <LL_Init1msTick>
 8002606:	4a0c      	ldr	r2, [pc, #48]	; (8002638 <SystemClock_Config+0xb8>)
 8002608:	6813      	ldr	r3, [r2, #0]
 800260a:	2104      	movs	r1, #4
 800260c:	430b      	orrs	r3, r1
 800260e:	6013      	str	r3, [r2, #0]
 8002610:	0020      	movs	r0, r4
 8002612:	f7ff f8e7 	bl	80017e4 <LL_SetSystemCoreClock>
 8002616:	4a04      	ldr	r2, [pc, #16]	; (8002628 <SystemClock_Config+0xa8>)
 8002618:	6b13      	ldr	r3, [r2, #48]	; 0x30
 800261a:	2180      	movs	r1, #128	; 0x80
 800261c:	430b      	orrs	r3, r1
 800261e:	6313      	str	r3, [r2, #48]	; 0x30
 8002620:	bd10      	pop	{r4, pc}
 8002622:	46c0      	nop			; (mov r8, r8)
 8002624:	40022000 	.word	0x40022000
 8002628:	40021000 	.word	0x40021000
 800262c:	ffc27fff 	.word	0xffc27fff
 8002630:	fffff8ff 	.word	0xfffff8ff
 8002634:	02dc6c00 	.word	0x02dc6c00
 8002638:	e000e010 	.word	0xe000e010

0800263c <main>:
 800263c:	b5f0      	push	{r4, r5, r6, r7, lr}
 800263e:	46de      	mov	lr, fp
 8002640:	4657      	mov	r7, sl
 8002642:	464e      	mov	r6, r9
 8002644:	4645      	mov	r5, r8
 8002646:	b5e0      	push	{r5, r6, r7, lr}
 8002648:	b0cf      	sub	sp, #316	; 0x13c
 800264a:	f7fd fdfb 	bl	8000244 <HAL_Init>
 800264e:	f7ff ff97 	bl	8002580 <SystemClock_Config>
 8002652:	f7ff fe35 	bl	80022c0 <MX_GPIO_Init>
 8002656:	f000 fa9b 	bl	8002b90 <MX_USB_DEVICE_Init>
 800265a:	4bcb      	ldr	r3, [pc, #812]	; (8002988 <main+0x34c>)
 800265c:	69d9      	ldr	r1, [r3, #28]
 800265e:	2202      	movs	r2, #2
 8002660:	4311      	orrs	r1, r2
 8002662:	61d9      	str	r1, [r3, #28]
 8002664:	69d9      	ldr	r1, [r3, #28]
 8002666:	4011      	ands	r1, r2
 8002668:	9108      	str	r1, [sp, #32]
 800266a:	9908      	ldr	r1, [sp, #32]
 800266c:	69d8      	ldr	r0, [r3, #28]
 800266e:	2480      	movs	r4, #128	; 0x80
 8002670:	0064      	lsls	r4, r4, #1
 8002672:	4320      	orrs	r0, r4
 8002674:	61d8      	str	r0, [r3, #28]
 8002676:	69d9      	ldr	r1, [r3, #28]
 8002678:	4021      	ands	r1, r4
 800267a:	9107      	str	r1, [sp, #28]
 800267c:	9907      	ldr	r1, [sp, #28]
 800267e:	6998      	ldr	r0, [r3, #24]
 8002680:	3401      	adds	r4, #1
 8002682:	34ff      	adds	r4, #255	; 0xff
 8002684:	4320      	orrs	r0, r4
 8002686:	6198      	str	r0, [r3, #24]
 8002688:	6999      	ldr	r1, [r3, #24]
 800268a:	4021      	ands	r1, r4
 800268c:	9106      	str	r1, [sp, #24]
 800268e:	9906      	ldr	r1, [sp, #24]
 8002690:	6998      	ldr	r0, [r3, #24]
 8002692:	2480      	movs	r4, #128	; 0x80
 8002694:	02a4      	lsls	r4, r4, #10
 8002696:	4320      	orrs	r0, r4
 8002698:	6198      	str	r0, [r3, #24]
 800269a:	6999      	ldr	r1, [r3, #24]
 800269c:	4021      	ands	r1, r4
 800269e:	9105      	str	r1, [sp, #20]
 80026a0:	9905      	ldr	r1, [sp, #20]
 80026a2:	6998      	ldr	r0, [r3, #24]
 80026a4:	2480      	movs	r4, #128	; 0x80
 80026a6:	02e4      	lsls	r4, r4, #11
 80026a8:	4320      	orrs	r0, r4
 80026aa:	6198      	str	r0, [r3, #24]
 80026ac:	6999      	ldr	r1, [r3, #24]
 80026ae:	4021      	ands	r1, r4
 80026b0:	9104      	str	r1, [sp, #16]
 80026b2:	9904      	ldr	r1, [sp, #16]
 80026b4:	6999      	ldr	r1, [r3, #24]
 80026b6:	2401      	movs	r4, #1
 80026b8:	4321      	orrs	r1, r4
 80026ba:	6199      	str	r1, [r3, #24]
 80026bc:	699b      	ldr	r3, [r3, #24]
 80026be:	4023      	ands	r3, r4
 80026c0:	9303      	str	r3, [sp, #12]
 80026c2:	9b03      	ldr	r3, [sp, #12]
 80026c4:	2380      	movs	r3, #128	; 0x80
 80026c6:	019b      	lsls	r3, r3, #6
 80026c8:	9309      	str	r3, [sp, #36]	; 0x24
 80026ca:	2500      	movs	r5, #0
 80026cc:	950c      	str	r5, [sp, #48]	; 0x30
 80026ce:	920a      	str	r2, [sp, #40]	; 0x28
 80026d0:	940d      	str	r4, [sp, #52]	; 0x34
 80026d2:	2090      	movs	r0, #144	; 0x90
 80026d4:	a909      	add	r1, sp, #36	; 0x24
 80026d6:	05c0      	lsls	r0, r0, #23
 80026d8:	f7fd fe26 	bl	8000328 <HAL_GPIO_Init>
 80026dc:	4bab      	ldr	r3, [pc, #684]	; (800298c <main+0x350>)
 80026de:	629d      	str	r5, [r3, #40]	; 0x28
 80026e0:	2225      	movs	r2, #37	; 0x25
 80026e2:	62da      	str	r2, [r3, #44]	; 0x2c
 80026e4:	3a13      	subs	r2, #19
 80026e6:	635a      	str	r2, [r3, #52]	; 0x34
 80026e8:	699a      	ldr	r2, [r3, #24]
 80026ea:	2168      	movs	r1, #104	; 0x68
 80026ec:	430a      	orrs	r2, r1
 80026ee:	619a      	str	r2, [r3, #24]
 80026f0:	6a1a      	ldr	r2, [r3, #32]
 80026f2:	4322      	orrs	r2, r4
 80026f4:	621a      	str	r2, [r3, #32]
 80026f6:	6c5a      	ldr	r2, [r3, #68]	; 0x44
 80026f8:	2180      	movs	r1, #128	; 0x80
 80026fa:	0209      	lsls	r1, r1, #8
 80026fc:	430a      	orrs	r2, r1
 80026fe:	645a      	str	r2, [r3, #68]	; 0x44
 8002700:	4aa3      	ldr	r2, [pc, #652]	; (8002990 <main+0x354>)
 8002702:	6295      	str	r5, [r2, #40]	; 0x28
 8002704:	20e4      	movs	r0, #228	; 0xe4
 8002706:	30ff      	adds	r0, #255	; 0xff
 8002708:	62d0      	str	r0, [r2, #44]	; 0x2c
 800270a:	6990      	ldr	r0, [r2, #24]
 800270c:	2640      	movs	r6, #64	; 0x40
 800270e:	4330      	orrs	r0, r6
 8002710:	6190      	str	r0, [r2, #24]
 8002712:	6a10      	ldr	r0, [r2, #32]
 8002714:	4320      	orrs	r0, r4
 8002716:	6210      	str	r0, [r2, #32]
 8002718:	6c50      	ldr	r0, [r2, #68]	; 0x44
 800271a:	4301      	orrs	r1, r0
 800271c:	6451      	str	r1, [r2, #68]	; 0x44
 800271e:	68d1      	ldr	r1, [r2, #12]
 8002720:	4321      	orrs	r1, r4
 8002722:	60d1      	str	r1, [r2, #12]
 8002724:	681a      	ldr	r2, [r3, #0]
 8002726:	4322      	orrs	r2, r4
 8002728:	601a      	str	r2, [r3, #0]
 800272a:	695a      	ldr	r2, [r3, #20]
 800272c:	4322      	orrs	r2, r4
 800272e:	615a      	str	r2, [r3, #20]
 8002730:	4a98      	ldr	r2, [pc, #608]	; (8002994 <main+0x358>)
 8002732:	2380      	movs	r3, #128	; 0x80
 8002734:	039b      	lsls	r3, r3, #14
 8002736:	6013      	str	r3, [r2, #0]
 8002738:	21c5      	movs	r1, #197	; 0xc5
 800273a:	0089      	lsls	r1, r1, #2
 800273c:	5853      	ldr	r3, [r2, r1]
 800273e:	4896      	ldr	r0, [pc, #600]	; (8002998 <main+0x35c>)
 8002740:	4003      	ands	r3, r0
 8002742:	5053      	str	r3, [r2, r1]
 8002744:	4b95      	ldr	r3, [pc, #596]	; (800299c <main+0x360>)
 8002746:	2164      	movs	r1, #100	; 0x64
 8002748:	6299      	str	r1, [r3, #40]	; 0x28
 800274a:	4895      	ldr	r0, [pc, #596]	; (80029a0 <main+0x364>)
 800274c:	62d8      	str	r0, [r3, #44]	; 0x2c
 800274e:	619d      	str	r5, [r3, #24]
 8002750:	621d      	str	r5, [r3, #32]
 8002752:	68d9      	ldr	r1, [r3, #12]
 8002754:	4321      	orrs	r1, r4
 8002756:	60d9      	str	r1, [r3, #12]
 8002758:	6819      	ldr	r1, [r3, #0]
 800275a:	4321      	orrs	r1, r4
 800275c:	6019      	str	r1, [r3, #0]
 800275e:	6959      	ldr	r1, [r3, #20]
 8002760:	4321      	orrs	r1, r4
 8002762:	6159      	str	r1, [r3, #20]
 8002764:	2380      	movs	r3, #128	; 0x80
 8002766:	031b      	lsls	r3, r3, #12
 8002768:	6013      	str	r3, [r2, #0]
 800276a:	26c4      	movs	r6, #196	; 0xc4
 800276c:	00b6      	lsls	r6, r6, #2
 800276e:	5993      	ldr	r3, [r2, r6]
 8002770:	021b      	lsls	r3, r3, #8
 8002772:	0a1b      	lsrs	r3, r3, #8
 8002774:	2180      	movs	r1, #128	; 0x80
 8002776:	05c9      	lsls	r1, r1, #23
 8002778:	430b      	orrs	r3, r1
 800277a:	5193      	str	r3, [r2, r6]
 800277c:	4b89      	ldr	r3, [pc, #548]	; (80029a4 <main+0x368>)
 800277e:	62d8      	str	r0, [r3, #44]	; 0x2c
 8002780:	2270      	movs	r2, #112	; 0x70
 8002782:	619a      	str	r2, [r3, #24]
 8002784:	621c      	str	r4, [r3, #32]
 8002786:	2280      	movs	r2, #128	; 0x80
 8002788:	0152      	lsls	r2, r2, #5
 800278a:	635a      	str	r2, [r3, #52]	; 0x34
 800278c:	681a      	ldr	r2, [r3, #0]
 800278e:	4322      	orrs	r2, r4
 8002790:	601a      	str	r2, [r3, #0]
 8002792:	695a      	ldr	r2, [r3, #20]
 8002794:	4314      	orrs	r4, r2
 8002796:	615c      	str	r4, [r3, #20]
 8002798:	4b83      	ldr	r3, [pc, #524]	; (80029a8 <main+0x36c>)
 800279a:	60dd      	str	r5, [r3, #12]
 800279c:	2207      	movs	r2, #7
 800279e:	615a      	str	r2, [r3, #20]
 80027a0:	3219      	adds	r2, #25
 80027a2:	629a      	str	r2, [r3, #40]	; 0x28
 80027a4:	f7ff fed6 	bl	8002554 <adc_read>
 80027a8:	4b80      	ldr	r3, [pc, #512]	; (80029ac <main+0x370>)
 80027aa:	4298      	cmp	r0, r3
 80027ac:	d82e      	bhi.n	800280c <main+0x1d0>
 80027ae:	4b80      	ldr	r3, [pc, #512]	; (80029b0 <main+0x374>)
 80027b0:	881b      	ldrh	r3, [r3, #0]
 80027b2:	4698      	mov	r8, r3
 80027b4:	4b7f      	ldr	r3, [pc, #508]	; (80029b4 <main+0x378>)
 80027b6:	2201      	movs	r2, #1
 80027b8:	601a      	str	r2, [r3, #0]
 80027ba:	4b7d      	ldr	r3, [pc, #500]	; (80029b0 <main+0x374>)
 80027bc:	4699      	mov	r9, r3
 80027be:	4e7e      	ldr	r6, [pc, #504]	; (80029b8 <main+0x37c>)
 80027c0:	ac0e      	add	r4, sp, #56	; 0x38
 80027c2:	e00b      	b.n	80027dc <main+0x1a0>
 80027c4:	4662      	mov	r2, ip
 80027c6:	0020      	movs	r0, r4
 80027c8:	f7ff fe8e 	bl	80024e8 <IRTX>
 80027cc:	4a7b      	ldr	r2, [pc, #492]	; (80029bc <main+0x380>)
 80027ce:	7813      	ldrb	r3, [r2, #0]
 80027d0:	2b00      	cmp	r3, #0
 80027d2:	d1fc      	bne.n	80027ce <main+0x192>
 80027d4:	3501      	adds	r5, #1
 80027d6:	4545      	cmp	r5, r8
 80027d8:	419b      	sbcs	r3, r3
 80027da:	401d      	ands	r5, r3
 80027dc:	00eb      	lsls	r3, r5, #3
 80027de:	195b      	adds	r3, r3, r5
 80027e0:	00db      	lsls	r3, r3, #3
 80027e2:	444b      	add	r3, r9
 80027e4:	8919      	ldrh	r1, [r3, #8]
 80027e6:	889a      	ldrh	r2, [r3, #4]
 80027e8:	4694      	mov	ip, r2
 80027ea:	88db      	ldrh	r3, [r3, #6]
 80027ec:	6033      	str	r3, [r6, #0]
 80027ee:	2900      	cmp	r1, #0
 80027f0:	d0e8      	beq.n	80027c4 <main+0x188>
 80027f2:	00ea      	lsls	r2, r5, #3
 80027f4:	1952      	adds	r2, r2, r5
 80027f6:	00d2      	lsls	r2, r2, #3
 80027f8:	2300      	movs	r3, #0
 80027fa:	4f6d      	ldr	r7, [pc, #436]	; (80029b0 <main+0x374>)
 80027fc:	18d0      	adds	r0, r2, r3
 80027fe:	19c0      	adds	r0, r0, r7
 8002800:	7a80      	ldrb	r0, [r0, #10]
 8002802:	5518      	strb	r0, [r3, r4]
 8002804:	3301      	adds	r3, #1
 8002806:	4299      	cmp	r1, r3
 8002808:	d8f8      	bhi.n	80027fc <main+0x1c0>
 800280a:	e7db      	b.n	80027c4 <main+0x188>
 800280c:	2300      	movs	r3, #0
 800280e:	469a      	mov	sl, r3
 8002810:	469b      	mov	fp, r3
 8002812:	9301      	str	r3, [sp, #4]
 8002814:	9300      	str	r3, [sp, #0]
 8002816:	2600      	movs	r6, #0
 8002818:	4b69      	ldr	r3, [pc, #420]	; (80029c0 <main+0x384>)
 800281a:	4699      	mov	r9, r3
 800281c:	4a69      	ldr	r2, [pc, #420]	; (80029c4 <main+0x388>)
 800281e:	1a9b      	subs	r3, r3, r2
 8002820:	4698      	mov	r8, r3
 8002822:	4b69      	ldr	r3, [pc, #420]	; (80029c8 <main+0x38c>)
 8002824:	681b      	ldr	r3, [r3, #0]
 8002826:	2b00      	cmp	r3, #0
 8002828:	d011      	beq.n	800284e <main+0x212>
 800282a:	4b67      	ldr	r3, [pc, #412]	; (80029c8 <main+0x38c>)
 800282c:	2200      	movs	r2, #0
 800282e:	601a      	str	r2, [r3, #0]
 8002830:	4b62      	ldr	r3, [pc, #392]	; (80029bc <main+0x380>)
 8002832:	781b      	ldrb	r3, [r3, #0]
 8002834:	2600      	movs	r6, #0
 8002836:	2b00      	cmp	r3, #0
 8002838:	d109      	bne.n	800284e <main+0x212>
 800283a:	2390      	movs	r3, #144	; 0x90
 800283c:	05db      	lsls	r3, r3, #23
 800283e:	691a      	ldr	r2, [r3, #16]
 8002840:	2310      	movs	r3, #16
 8002842:	4013      	ands	r3, r2
 8002844:	425a      	negs	r2, r3
 8002846:	4153      	adcs	r3, r2
 8002848:	021b      	lsls	r3, r3, #8
 800284a:	4a56      	ldr	r2, [pc, #344]	; (80029a4 <main+0x368>)
 800284c:	6353      	str	r3, [r2, #52]	; 0x34
 800284e:	4b5f      	ldr	r3, [pc, #380]	; (80029cc <main+0x390>)
 8002850:	681a      	ldr	r2, [r3, #0]
 8002852:	685b      	ldr	r3, [r3, #4]
 8002854:	429a      	cmp	r2, r3
 8002856:	d000      	beq.n	800285a <main+0x21e>
 8002858:	e0d3      	b.n	8002a02 <main+0x3c6>
 800285a:	e7e2      	b.n	8002822 <main+0x1e6>
 800285c:	9a01      	ldr	r2, [sp, #4]
 800285e:	9900      	ldr	r1, [sp, #0]
 8002860:	a80e      	add	r0, sp, #56	; 0x38
 8002862:	f7ff fe41 	bl	80024e8 <IRTX>
 8002866:	e0c1      	b.n	80029ec <main+0x3b0>
 8002868:	210c      	movs	r1, #12
 800286a:	4859      	ldr	r0, [pc, #356]	; (80029d0 <main+0x394>)
 800286c:	f000 fa0e 	bl	8002c8c <CDC_Transmit_FS>
 8002870:	e0bc      	b.n	80029ec <main+0x3b0>
 8002872:	4d53      	ldr	r5, [pc, #332]	; (80029c0 <main+0x384>)
 8002874:	ab02      	add	r3, sp, #8
 8002876:	1c9c      	adds	r4, r3, #2
 8002878:	4f56      	ldr	r7, [pc, #344]	; (80029d4 <main+0x398>)
 800287a:	882b      	ldrh	r3, [r5, #0]
 800287c:	8023      	strh	r3, [r4, #0]
 800287e:	2102      	movs	r1, #2
 8002880:	0020      	movs	r0, r4
 8002882:	f000 fa03 	bl	8002c8c <CDC_Transmit_FS>
 8002886:	2800      	cmp	r0, #0
 8002888:	d1f9      	bne.n	800287e <main+0x242>
 800288a:	3504      	adds	r5, #4
 800288c:	42bd      	cmp	r5, r7
 800288e:	d1f4      	bne.n	800287a <main+0x23e>
 8002890:	e0ac      	b.n	80029ec <main+0x3b0>
 8002892:	2e01      	cmp	r6, #1
 8002894:	d100      	bne.n	8002898 <main+0x25c>
 8002896:	e0a7      	b.n	80029e8 <main+0x3ac>
 8002898:	2e02      	cmp	r6, #2
 800289a:	d100      	bne.n	800289e <main+0x262>
 800289c:	e0d4      	b.n	8002a48 <main+0x40c>
 800289e:	2e03      	cmp	r6, #3
 80028a0:	d100      	bne.n	80028a4 <main+0x268>
 80028a2:	e0d5      	b.n	8002a50 <main+0x414>
 80028a4:	2e04      	cmp	r6, #4
 80028a6:	d100      	bne.n	80028aa <main+0x26e>
 80028a8:	e0d5      	b.n	8002a56 <main+0x41a>
 80028aa:	2e05      	cmp	r6, #5
 80028ac:	d100      	bne.n	80028b0 <main+0x274>
 80028ae:	e0da      	b.n	8002a66 <main+0x42a>
 80028b0:	2e06      	cmp	r6, #6
 80028b2:	d000      	beq.n	80028b6 <main+0x27a>
 80028b4:	e09a      	b.n	80029ec <main+0x3b0>
 80028b6:	4652      	mov	r2, sl
 80028b8:	1c54      	adds	r4, r2, #1
 80028ba:	4a42      	ldr	r2, [pc, #264]	; (80029c4 <main+0x388>)
 80028bc:	4651      	mov	r1, sl
 80028be:	5453      	strb	r3, [r2, r1]
 80028c0:	0663      	lsls	r3, r4, #25
 80028c2:	d100      	bne.n	80028c6 <main+0x28a>
 80028c4:	e0da      	b.n	8002a7c <main+0x440>
 80028c6:	2380      	movs	r3, #128	; 0x80
 80028c8:	00db      	lsls	r3, r3, #3
 80028ca:	46a2      	mov	sl, r4
 80028cc:	429c      	cmp	r4, r3
 80028ce:	d000      	beq.n	80028d2 <main+0x296>
 80028d0:	e08c      	b.n	80029ec <main+0x3b0>
 80028d2:	4a41      	ldr	r2, [pc, #260]	; (80029d8 <main+0x39c>)
 80028d4:	2301      	movs	r3, #1
 80028d6:	68d1      	ldr	r1, [r2, #12]
 80028d8:	420b      	tst	r3, r1
 80028da:	d1fc      	bne.n	80028d6 <main+0x29a>
 80028dc:	4b3e      	ldr	r3, [pc, #248]	; (80029d8 <main+0x39c>)
 80028de:	691b      	ldr	r3, [r3, #16]
 80028e0:	061b      	lsls	r3, r3, #24
 80028e2:	d504      	bpl.n	80028ee <main+0x2b2>
 80028e4:	4b3c      	ldr	r3, [pc, #240]	; (80029d8 <main+0x39c>)
 80028e6:	4a3d      	ldr	r2, [pc, #244]	; (80029dc <main+0x3a0>)
 80028e8:	605a      	str	r2, [r3, #4]
 80028ea:	4a3d      	ldr	r2, [pc, #244]	; (80029e0 <main+0x3a4>)
 80028ec:	605a      	str	r2, [r3, #4]
 80028ee:	4b3a      	ldr	r3, [pc, #232]	; (80029d8 <main+0x39c>)
 80028f0:	691a      	ldr	r2, [r3, #16]
 80028f2:	2102      	movs	r1, #2
 80028f4:	430a      	orrs	r2, r1
 80028f6:	611a      	str	r2, [r3, #16]
 80028f8:	464a      	mov	r2, r9
 80028fa:	615a      	str	r2, [r3, #20]
 80028fc:	691a      	ldr	r2, [r3, #16]
 80028fe:	313e      	adds	r1, #62	; 0x3e
 8002900:	430a      	orrs	r2, r1
 8002902:	611a      	str	r2, [r3, #16]
 8002904:	001a      	movs	r2, r3
 8002906:	2301      	movs	r3, #1
 8002908:	68d1      	ldr	r1, [r2, #12]
 800290a:	420b      	tst	r3, r1
 800290c:	d1fc      	bne.n	8002908 <main+0x2cc>
 800290e:	4b32      	ldr	r3, [pc, #200]	; (80029d8 <main+0x39c>)
 8002910:	68db      	ldr	r3, [r3, #12]
 8002912:	069b      	lsls	r3, r3, #26
 8002914:	d400      	bmi.n	8002918 <main+0x2dc>
 8002916:	e0b6      	b.n	8002a86 <main+0x44a>
 8002918:	4b2f      	ldr	r3, [pc, #188]	; (80029d8 <main+0x39c>)
 800291a:	2220      	movs	r2, #32
 800291c:	60da      	str	r2, [r3, #12]
 800291e:	4b2e      	ldr	r3, [pc, #184]	; (80029d8 <main+0x39c>)
 8002920:	691a      	ldr	r2, [r3, #16]
 8002922:	2102      	movs	r1, #2
 8002924:	438a      	bics	r2, r1
 8002926:	611a      	str	r2, [r3, #16]
 8002928:	691a      	ldr	r2, [r3, #16]
 800292a:	3901      	subs	r1, #1
 800292c:	430a      	orrs	r2, r1
 800292e:	611a      	str	r2, [r3, #16]
 8002930:	4b24      	ldr	r3, [pc, #144]	; (80029c4 <main+0x388>)
 8002932:	001a      	movs	r2, r3
 8002934:	2180      	movs	r1, #128	; 0x80
 8002936:	00c9      	lsls	r1, r1, #3
 8002938:	468c      	mov	ip, r1
 800293a:	4462      	add	r2, ip
 800293c:	0010      	movs	r0, r2
 800293e:	4645      	mov	r5, r8
 8002940:	195a      	adds	r2, r3, r5
 8002942:	8819      	ldrh	r1, [r3, #0]
 8002944:	8011      	strh	r1, [r2, #0]
 8002946:	3302      	adds	r3, #2
 8002948:	4283      	cmp	r3, r0
 800294a:	d1f9      	bne.n	8002940 <main+0x304>
 800294c:	46a8      	mov	r8, r5
 800294e:	4a22      	ldr	r2, [pc, #136]	; (80029d8 <main+0x39c>)
 8002950:	2301      	movs	r3, #1
 8002952:	68d1      	ldr	r1, [r2, #12]
 8002954:	420b      	tst	r3, r1
 8002956:	d1fc      	bne.n	8002952 <main+0x316>
 8002958:	4b1f      	ldr	r3, [pc, #124]	; (80029d8 <main+0x39c>)
 800295a:	68db      	ldr	r3, [r3, #12]
 800295c:	069b      	lsls	r3, r3, #26
 800295e:	d400      	bmi.n	8002962 <main+0x326>
 8002960:	e096      	b.n	8002a90 <main+0x454>
 8002962:	4b1d      	ldr	r3, [pc, #116]	; (80029d8 <main+0x39c>)
 8002964:	2220      	movs	r2, #32
 8002966:	60da      	str	r2, [r3, #12]
 8002968:	4a1b      	ldr	r2, [pc, #108]	; (80029d8 <main+0x39c>)
 800296a:	6913      	ldr	r3, [r2, #16]
 800296c:	2101      	movs	r1, #1
 800296e:	438b      	bics	r3, r1
 8002970:	6113      	str	r3, [r2, #16]
 8002972:	481c      	ldr	r0, [pc, #112]	; (80029e4 <main+0x3a8>)
 8002974:	f000 f98a 	bl	8002c8c <CDC_Transmit_FS>
 8002978:	4b0a      	ldr	r3, [pc, #40]	; (80029a4 <main+0x368>)
 800297a:	2280      	movs	r2, #128	; 0x80
 800297c:	01d2      	lsls	r2, r2, #7
 800297e:	635a      	str	r2, [r3, #52]	; 0x34
 8002980:	46a2      	mov	sl, r4
 8002982:	2600      	movs	r6, #0
 8002984:	e032      	b.n	80029ec <main+0x3b0>
 8002986:	46c0      	nop			; (mov r8, r8)
 8002988:	40021000 	.word	0x40021000
 800298c:	40014800 	.word	0x40014800
 8002990:	40014400 	.word	0x40014400
 8002994:	e000e100 	.word	0xe000e100
 8002998:	ffff00ff 	.word	0xffff00ff
 800299c:	40002000 	.word	0x40002000
 80029a0:	0000ffff 	.word	0x0000ffff
 80029a4:	40000400 	.word	0x40000400
 80029a8:	40012400 	.word	0x40012400
 80029ac:	00000a8b 	.word	0x00000a8b
 80029b0:	08007c00 	.word	0x08007c00
 80029b4:	200002a8 	.word	0x200002a8
 80029b8:	200002a4 	.word	0x200002a4
 80029bc:	2000029c 	.word	0x2000029c
 80029c0:	08007c00 	.word	0x08007c00
 80029c4:	200004f0 	.word	0x200004f0
 80029c8:	200002a0 	.word	0x200002a0
 80029cc:	20000194 	.word	0x20000194
 80029d0:	08003140 	.word	0x08003140
 80029d4:	08008000 	.word	0x08008000
 80029d8:	40022000 	.word	0x40022000
 80029dc:	45670123 	.word	0x45670123
 80029e0:	cdef89ab 	.word	0xcdef89ab
 80029e4:	0800313c 	.word	0x0800313c
 80029e8:	9300      	str	r3, [sp, #0]
 80029ea:	3601      	adds	r6, #1
 80029ec:	4b2e      	ldr	r3, [pc, #184]	; (8002aa8 <main+0x46c>)
 80029ee:	6859      	ldr	r1, [r3, #4]
 80029f0:	3101      	adds	r1, #1
 80029f2:	22ff      	movs	r2, #255	; 0xff
 80029f4:	400a      	ands	r2, r1
 80029f6:	605a      	str	r2, [r3, #4]
 80029f8:	681a      	ldr	r2, [r3, #0]
 80029fa:	685b      	ldr	r3, [r3, #4]
 80029fc:	429a      	cmp	r2, r3
 80029fe:	d100      	bne.n	8002a02 <main+0x3c6>
 8002a00:	e70f      	b.n	8002822 <main+0x1e6>
 8002a02:	4b2a      	ldr	r3, [pc, #168]	; (8002aac <main+0x470>)
 8002a04:	2200      	movs	r2, #0
 8002a06:	625a      	str	r2, [r3, #36]	; 0x24
 8002a08:	4b27      	ldr	r3, [pc, #156]	; (8002aa8 <main+0x46c>)
 8002a0a:	685a      	ldr	r2, [r3, #4]
 8002a0c:	189b      	adds	r3, r3, r2
 8002a0e:	7a1b      	ldrb	r3, [r3, #8]
 8002a10:	b2db      	uxtb	r3, r3
 8002a12:	2e00      	cmp	r6, #0
 8002a14:	d000      	beq.n	8002a18 <main+0x3dc>
 8002a16:	e73c      	b.n	8002892 <main+0x256>
 8002a18:	2b4c      	cmp	r3, #76	; 0x4c
 8002a1a:	d03e      	beq.n	8002a9a <main+0x45e>
 8002a1c:	2b54      	cmp	r3, #84	; 0x54
 8002a1e:	d100      	bne.n	8002a22 <main+0x3e6>
 8002a20:	e71c      	b.n	800285c <main+0x220>
 8002a22:	2b3f      	cmp	r3, #63	; 0x3f
 8002a24:	d100      	bne.n	8002a28 <main+0x3ec>
 8002a26:	e71f      	b.n	8002868 <main+0x22c>
 8002a28:	2b57      	cmp	r3, #87	; 0x57
 8002a2a:	d038      	beq.n	8002a9e <main+0x462>
 8002a2c:	2b52      	cmp	r3, #82	; 0x52
 8002a2e:	d100      	bne.n	8002a32 <main+0x3f6>
 8002a30:	e71f      	b.n	8002872 <main+0x236>
 8002a32:	2b53      	cmp	r3, #83	; 0x53
 8002a34:	d1da      	bne.n	80029ec <main+0x3b0>
 8002a36:	4a1e      	ldr	r2, [pc, #120]	; (8002ab0 <main+0x474>)
 8002a38:	6993      	ldr	r3, [r2, #24]
 8002a3a:	491e      	ldr	r1, [pc, #120]	; (8002ab4 <main+0x478>)
 8002a3c:	400b      	ands	r3, r1
 8002a3e:	6193      	str	r3, [r2, #24]
 8002a40:	4b1d      	ldr	r3, [pc, #116]	; (8002ab8 <main+0x47c>)
 8002a42:	2200      	movs	r2, #0
 8002a44:	701a      	strb	r2, [r3, #0]
 8002a46:	e7d1      	b.n	80029ec <main+0x3b0>
 8002a48:	4a1c      	ldr	r2, [pc, #112]	; (8002abc <main+0x480>)
 8002a4a:	6013      	str	r3, [r2, #0]
 8002a4c:	3601      	adds	r6, #1
 8002a4e:	e7cd      	b.n	80029ec <main+0x3b0>
 8002a50:	9301      	str	r3, [sp, #4]
 8002a52:	3601      	adds	r6, #1
 8002a54:	e7ca      	b.n	80029ec <main+0x3b0>
 8002a56:	021b      	lsls	r3, r3, #8
 8002a58:	9a01      	ldr	r2, [sp, #4]
 8002a5a:	431a      	orrs	r2, r3
 8002a5c:	9201      	str	r2, [sp, #4]
 8002a5e:	2300      	movs	r3, #0
 8002a60:	469b      	mov	fp, r3
 8002a62:	3601      	adds	r6, #1
 8002a64:	e7c2      	b.n	80029ec <main+0x3b0>
 8002a66:	465a      	mov	r2, fp
 8002a68:	3201      	adds	r2, #1
 8002a6a:	a90e      	add	r1, sp, #56	; 0x38
 8002a6c:	4658      	mov	r0, fp
 8002a6e:	540b      	strb	r3, [r1, r0]
 8002a70:	4693      	mov	fp, r2
 8002a72:	9b00      	ldr	r3, [sp, #0]
 8002a74:	429a      	cmp	r2, r3
 8002a76:	d1b9      	bne.n	80029ec <main+0x3b0>
 8002a78:	2600      	movs	r6, #0
 8002a7a:	e7b7      	b.n	80029ec <main+0x3b0>
 8002a7c:	2101      	movs	r1, #1
 8002a7e:	4810      	ldr	r0, [pc, #64]	; (8002ac0 <main+0x484>)
 8002a80:	f000 f904 	bl	8002c8c <CDC_Transmit_FS>
 8002a84:	e71f      	b.n	80028c6 <main+0x28a>
 8002a86:	2101      	movs	r1, #1
 8002a88:	480e      	ldr	r0, [pc, #56]	; (8002ac4 <main+0x488>)
 8002a8a:	f000 f8ff 	bl	8002c8c <CDC_Transmit_FS>
 8002a8e:	e746      	b.n	800291e <main+0x2e2>
 8002a90:	2101      	movs	r1, #1
 8002a92:	480c      	ldr	r0, [pc, #48]	; (8002ac4 <main+0x488>)
 8002a94:	f000 f8fa 	bl	8002c8c <CDC_Transmit_FS>
 8002a98:	e766      	b.n	8002968 <main+0x32c>
 8002a9a:	2601      	movs	r6, #1
 8002a9c:	e7a6      	b.n	80029ec <main+0x3b0>
 8002a9e:	2300      	movs	r3, #0
 8002aa0:	469a      	mov	sl, r3
 8002aa2:	2606      	movs	r6, #6
 8002aa4:	e7a2      	b.n	80029ec <main+0x3b0>
 8002aa6:	46c0      	nop			; (mov r8, r8)
 8002aa8:	20000194 	.word	0x20000194
 8002aac:	40002000 	.word	0x40002000
 8002ab0:	40014400 	.word	0x40014400
 8002ab4:	0000ffef 	.word	0x0000ffef
 8002ab8:	2000029c 	.word	0x2000029c
 8002abc:	200002a4 	.word	0x200002a4
 8002ac0:	0800313c 	.word	0x0800313c
 8002ac4:	08003150 	.word	0x08003150

08002ac8 <Error_Handler>:
 8002ac8:	4770      	bx	lr
	...

08002acc <HAL_MspInit>:
 8002acc:	b082      	sub	sp, #8
 8002ace:	4b0c      	ldr	r3, [pc, #48]	; (8002b00 <HAL_MspInit+0x34>)
 8002ad0:	6999      	ldr	r1, [r3, #24]
 8002ad2:	2201      	movs	r2, #1
 8002ad4:	4311      	orrs	r1, r2
 8002ad6:	6199      	str	r1, [r3, #24]
 8002ad8:	6999      	ldr	r1, [r3, #24]
 8002ada:	400a      	ands	r2, r1
 8002adc:	9200      	str	r2, [sp, #0]
 8002ade:	9a00      	ldr	r2, [sp, #0]
 8002ae0:	69da      	ldr	r2, [r3, #28]
 8002ae2:	2180      	movs	r1, #128	; 0x80
 8002ae4:	0549      	lsls	r1, r1, #21
 8002ae6:	430a      	orrs	r2, r1
 8002ae8:	61da      	str	r2, [r3, #28]
 8002aea:	69db      	ldr	r3, [r3, #28]
 8002aec:	400b      	ands	r3, r1
 8002aee:	9301      	str	r3, [sp, #4]
 8002af0:	9b01      	ldr	r3, [sp, #4]
 8002af2:	4a04      	ldr	r2, [pc, #16]	; (8002b04 <HAL_MspInit+0x38>)
 8002af4:	6813      	ldr	r3, [r2, #0]
 8002af6:	2110      	movs	r1, #16
 8002af8:	430b      	orrs	r3, r1
 8002afa:	6013      	str	r3, [r2, #0]
 8002afc:	b002      	add	sp, #8
 8002afe:	4770      	bx	lr
 8002b00:	40021000 	.word	0x40021000
 8002b04:	40010000 	.word	0x40010000

08002b08 <NMI_Handler>:
 8002b08:	4770      	bx	lr

08002b0a <HardFault_Handler>:
 8002b0a:	e7fe      	b.n	8002b0a <HardFault_Handler>

08002b0c <SVC_Handler>:
 8002b0c:	4770      	bx	lr

08002b0e <PendSV_Handler>:
 8002b0e:	4770      	bx	lr

08002b10 <SysTick_Handler>:
 8002b10:	b510      	push	{r4, lr}
 8002b12:	f7fd fba7 	bl	8000264 <HAL_IncTick>
 8002b16:	bd10      	pop	{r4, pc}

08002b18 <USB_IRQHandler>:
 8002b18:	b510      	push	{r4, lr}
 8002b1a:	4802      	ldr	r0, [pc, #8]	; (8002b24 <USB_IRQHandler+0xc>)
 8002b1c:	f7fe fb48 	bl	80011b0 <HAL_PCD_IRQHandler>
 8002b20:	bd10      	pop	{r4, pc}
 8002b22:	46c0      	nop			; (mov r8, r8)
 8002b24:	20000d1c 	.word	0x20000d1c

08002b28 <SystemInit>:
 8002b28:	4b13      	ldr	r3, [pc, #76]	; (8002b78 <SystemInit+0x50>)
 8002b2a:	681a      	ldr	r2, [r3, #0]
 8002b2c:	2101      	movs	r1, #1
 8002b2e:	430a      	orrs	r2, r1
 8002b30:	601a      	str	r2, [r3, #0]
 8002b32:	685a      	ldr	r2, [r3, #4]
 8002b34:	4811      	ldr	r0, [pc, #68]	; (8002b7c <SystemInit+0x54>)
 8002b36:	4002      	ands	r2, r0
 8002b38:	605a      	str	r2, [r3, #4]
 8002b3a:	681a      	ldr	r2, [r3, #0]
 8002b3c:	4810      	ldr	r0, [pc, #64]	; (8002b80 <SystemInit+0x58>)
 8002b3e:	4002      	ands	r2, r0
 8002b40:	601a      	str	r2, [r3, #0]
 8002b42:	681a      	ldr	r2, [r3, #0]
 8002b44:	480f      	ldr	r0, [pc, #60]	; (8002b84 <SystemInit+0x5c>)
 8002b46:	4002      	ands	r2, r0
 8002b48:	601a      	str	r2, [r3, #0]
 8002b4a:	685a      	ldr	r2, [r3, #4]
 8002b4c:	480e      	ldr	r0, [pc, #56]	; (8002b88 <SystemInit+0x60>)
 8002b4e:	4002      	ands	r2, r0
 8002b50:	605a      	str	r2, [r3, #4]
 8002b52:	6ada      	ldr	r2, [r3, #44]	; 0x2c
 8002b54:	200f      	movs	r0, #15
 8002b56:	4382      	bics	r2, r0
 8002b58:	62da      	str	r2, [r3, #44]	; 0x2c
 8002b5a:	6b1a      	ldr	r2, [r3, #48]	; 0x30
 8002b5c:	480b      	ldr	r0, [pc, #44]	; (8002b8c <SystemInit+0x64>)
 8002b5e:	4002      	ands	r2, r0
 8002b60:	631a      	str	r2, [r3, #48]	; 0x30
 8002b62:	6b1a      	ldr	r2, [r3, #48]	; 0x30
 8002b64:	2080      	movs	r0, #128	; 0x80
 8002b66:	4302      	orrs	r2, r0
 8002b68:	631a      	str	r2, [r3, #48]	; 0x30
 8002b6a:	6b5a      	ldr	r2, [r3, #52]	; 0x34
 8002b6c:	438a      	bics	r2, r1
 8002b6e:	635a      	str	r2, [r3, #52]	; 0x34
 8002b70:	2200      	movs	r2, #0
 8002b72:	609a      	str	r2, [r3, #8]
 8002b74:	4770      	bx	lr
 8002b76:	46c0      	nop			; (mov r8, r8)
 8002b78:	40021000 	.word	0x40021000
 8002b7c:	08ffb80c 	.word	0x08ffb80c
 8002b80:	fef6ffff 	.word	0xfef6ffff
 8002b84:	fffbffff 	.word	0xfffbffff
 8002b88:	ffc0ffff 	.word	0xffc0ffff
 8002b8c:	fffffe6c 	.word	0xfffffe6c

08002b90 <MX_USB_DEVICE_Init>:
 8002b90:	b510      	push	{r4, lr}
 8002b92:	2200      	movs	r2, #0
 8002b94:	4911      	ldr	r1, [pc, #68]	; (8002bdc <MX_USB_DEVICE_Init+0x4c>)
 8002b96:	4812      	ldr	r0, [pc, #72]	; (8002be0 <MX_USB_DEVICE_Init+0x50>)
 8002b98:	f7fe ff8e 	bl	8001ab8 <USBD_Init>
 8002b9c:	2800      	cmp	r0, #0
 8002b9e:	d111      	bne.n	8002bc4 <MX_USB_DEVICE_Init+0x34>
 8002ba0:	4910      	ldr	r1, [pc, #64]	; (8002be4 <MX_USB_DEVICE_Init+0x54>)
 8002ba2:	480f      	ldr	r0, [pc, #60]	; (8002be0 <MX_USB_DEVICE_Init+0x50>)
 8002ba4:	f7fe ffa4 	bl	8001af0 <USBD_RegisterClass>
 8002ba8:	2800      	cmp	r0, #0
 8002baa:	d10e      	bne.n	8002bca <MX_USB_DEVICE_Init+0x3a>
 8002bac:	490e      	ldr	r1, [pc, #56]	; (8002be8 <MX_USB_DEVICE_Init+0x58>)
 8002bae:	480c      	ldr	r0, [pc, #48]	; (8002be0 <MX_USB_DEVICE_Init+0x50>)
 8002bb0:	f7fe ff2a 	bl	8001a08 <USBD_CDC_RegisterInterface>
 8002bb4:	2800      	cmp	r0, #0
 8002bb6:	d10b      	bne.n	8002bd0 <MX_USB_DEVICE_Init+0x40>
 8002bb8:	4809      	ldr	r0, [pc, #36]	; (8002be0 <MX_USB_DEVICE_Init+0x50>)
 8002bba:	f7fe ffa2 	bl	8001b02 <USBD_Start>
 8002bbe:	2800      	cmp	r0, #0
 8002bc0:	d109      	bne.n	8002bd6 <MX_USB_DEVICE_Init+0x46>
 8002bc2:	bd10      	pop	{r4, pc}
 8002bc4:	f7ff ff80 	bl	8002ac8 <Error_Handler>
 8002bc8:	e7ea      	b.n	8002ba0 <MX_USB_DEVICE_Init+0x10>
 8002bca:	f7ff ff7d 	bl	8002ac8 <Error_Handler>
 8002bce:	e7ed      	b.n	8002bac <MX_USB_DEVICE_Init+0x1c>
 8002bd0:	f7ff ff7a 	bl	8002ac8 <Error_Handler>
 8002bd4:	e7f0      	b.n	8002bb8 <MX_USB_DEVICE_Init+0x28>
 8002bd6:	f7ff ff77 	bl	8002ac8 <Error_Handler>
 8002bda:	e7f2      	b.n	8002bc2 <MX_USB_DEVICE_Init+0x32>
 8002bdc:	20000124 	.word	0x20000124
 8002be0:	200008f8 	.word	0x200008f8
 8002be4:	20000000 	.word	0x20000000
 8002be8:	20000114 	.word	0x20000114

08002bec <CDC_DeInit_FS>:
 8002bec:	2000      	movs	r0, #0
 8002bee:	4770      	bx	lr

08002bf0 <CDC_Control_FS>:
 8002bf0:	2000      	movs	r0, #0
 8002bf2:	4770      	bx	lr

08002bf4 <CDC_Receive_FS>:
 8002bf4:	b570      	push	{r4, r5, r6, lr}
 8002bf6:	0005      	movs	r5, r0
 8002bf8:	680e      	ldr	r6, [r1, #0]
 8002bfa:	4c18      	ldr	r4, [pc, #96]	; (8002c5c <CDC_Receive_FS+0x68>)
 8002bfc:	0001      	movs	r1, r0
 8002bfe:	0020      	movs	r0, r4
 8002c00:	f7fe ff16 	bl	8001a30 <USBD_CDC_SetRxBuffer>
 8002c04:	0020      	movs	r0, r4
 8002c06:	f7fe ff38 	bl	8001a7a <USBD_CDC_ReceivePacket>
 8002c0a:	2e00      	cmp	r6, #0
 8002c0c:	d021      	beq.n	8002c52 <CDC_Receive_FS+0x5e>
 8002c0e:	4a14      	ldr	r2, [pc, #80]	; (8002c60 <CDC_Receive_FS+0x6c>)
 8002c10:	6813      	ldr	r3, [r2, #0]
 8002c12:	6852      	ldr	r2, [r2, #4]
 8002c14:	3301      	adds	r3, #1
 8002c16:	b2db      	uxtb	r3, r3
 8002c18:	4293      	cmp	r3, r2
 8002c1a:	d01c      	beq.n	8002c56 <CDC_Receive_FS+0x62>
 8002c1c:	002c      	movs	r4, r5
 8002c1e:	1e68      	subs	r0, r5, #1
 8002c20:	1980      	adds	r0, r0, r6
 8002c22:	4a0f      	ldr	r2, [pc, #60]	; (8002c60 <CDC_Receive_FS+0x6c>)
 8002c24:	25ff      	movs	r5, #255	; 0xff
 8002c26:	0011      	movs	r1, r2
 8002c28:	6813      	ldr	r3, [r2, #0]
 8002c2a:	7826      	ldrb	r6, [r4, #0]
 8002c2c:	18d3      	adds	r3, r2, r3
 8002c2e:	721e      	strb	r6, [r3, #8]
 8002c30:	6813      	ldr	r3, [r2, #0]
 8002c32:	3301      	adds	r3, #1
 8002c34:	402b      	ands	r3, r5
 8002c36:	6013      	str	r3, [r2, #0]
 8002c38:	4284      	cmp	r4, r0
 8002c3a:	d008      	beq.n	8002c4e <CDC_Receive_FS+0x5a>
 8002c3c:	680b      	ldr	r3, [r1, #0]
 8002c3e:	684e      	ldr	r6, [r1, #4]
 8002c40:	3401      	adds	r4, #1
 8002c42:	3301      	adds	r3, #1
 8002c44:	402b      	ands	r3, r5
 8002c46:	42b3      	cmp	r3, r6
 8002c48:	d1ee      	bne.n	8002c28 <CDC_Receive_FS+0x34>
 8002c4a:	2002      	movs	r0, #2
 8002c4c:	e000      	b.n	8002c50 <CDC_Receive_FS+0x5c>
 8002c4e:	2000      	movs	r0, #0
 8002c50:	bd70      	pop	{r4, r5, r6, pc}
 8002c52:	2000      	movs	r0, #0
 8002c54:	e7fc      	b.n	8002c50 <CDC_Receive_FS+0x5c>
 8002c56:	2002      	movs	r0, #2
 8002c58:	e7fa      	b.n	8002c50 <CDC_Receive_FS+0x5c>
 8002c5a:	46c0      	nop			; (mov r8, r8)
 8002c5c:	200008f8 	.word	0x200008f8
 8002c60:	20000194 	.word	0x20000194

08002c64 <CDC_Init_FS>:
 8002c64:	b510      	push	{r4, lr}
 8002c66:	4c06      	ldr	r4, [pc, #24]	; (8002c80 <CDC_Init_FS+0x1c>)
 8002c68:	2200      	movs	r2, #0
 8002c6a:	4906      	ldr	r1, [pc, #24]	; (8002c84 <CDC_Init_FS+0x20>)
 8002c6c:	0020      	movs	r0, r4
 8002c6e:	f7fe fed4 	bl	8001a1a <USBD_CDC_SetTxBuffer>
 8002c72:	4905      	ldr	r1, [pc, #20]	; (8002c88 <CDC_Init_FS+0x24>)
 8002c74:	0020      	movs	r0, r4
 8002c76:	f7fe fedb 	bl	8001a30 <USBD_CDC_SetRxBuffer>
 8002c7a:	2000      	movs	r0, #0
 8002c7c:	bd10      	pop	{r4, pc}
 8002c7e:	46c0      	nop			; (mov r8, r8)
 8002c80:	200008f8 	.word	0x200008f8
 8002c84:	20000c1c 	.word	0x20000c1c
 8002c88:	20000b1c 	.word	0x20000b1c

08002c8c <CDC_Transmit_FS>:
 8002c8c:	b570      	push	{r4, r5, r6, lr}
 8002c8e:	0005      	movs	r5, r0
 8002c90:	4809      	ldr	r0, [pc, #36]	; (8002cb8 <CDC_Transmit_FS+0x2c>)
 8002c92:	2386      	movs	r3, #134	; 0x86
 8002c94:	009b      	lsls	r3, r3, #2
 8002c96:	58c4      	ldr	r4, [r0, r3]
 8002c98:	3b04      	subs	r3, #4
 8002c9a:	58e3      	ldr	r3, [r4, r3]
 8002c9c:	2001      	movs	r0, #1
 8002c9e:	2b00      	cmp	r3, #0
 8002ca0:	d000      	beq.n	8002ca4 <CDC_Transmit_FS+0x18>
 8002ca2:	bd70      	pop	{r4, r5, r6, pc}
 8002ca4:	4c04      	ldr	r4, [pc, #16]	; (8002cb8 <CDC_Transmit_FS+0x2c>)
 8002ca6:	000a      	movs	r2, r1
 8002ca8:	0029      	movs	r1, r5
 8002caa:	0020      	movs	r0, r4
 8002cac:	f7fe feb5 	bl	8001a1a <USBD_CDC_SetTxBuffer>
 8002cb0:	0020      	movs	r0, r4
 8002cb2:	f7fe fec4 	bl	8001a3e <USBD_CDC_TransmitPacket>
 8002cb6:	e7f4      	b.n	8002ca2 <CDC_Transmit_FS+0x16>
 8002cb8:	200008f8 	.word	0x200008f8

08002cbc <USBD_Get_USB_Status>:
 8002cbc:	2800      	cmp	r0, #0
 8002cbe:	d004      	beq.n	8002cca <USBD_Get_USB_Status+0xe>
 8002cc0:	3802      	subs	r0, #2
 8002cc2:	1e43      	subs	r3, r0, #1
 8002cc4:	4198      	sbcs	r0, r3
 8002cc6:	3001      	adds	r0, #1
 8002cc8:	4770      	bx	lr
 8002cca:	2000      	movs	r0, #0
 8002ccc:	e7fc      	b.n	8002cc8 <USBD_Get_USB_Status+0xc>
	...

08002cd0 <HAL_PCD_MspInit>:
 8002cd0:	b500      	push	{lr}
 8002cd2:	b083      	sub	sp, #12
 8002cd4:	4b0c      	ldr	r3, [pc, #48]	; (8002d08 <HAL_PCD_MspInit+0x38>)
 8002cd6:	6802      	ldr	r2, [r0, #0]
 8002cd8:	429a      	cmp	r2, r3
 8002cda:	d001      	beq.n	8002ce0 <HAL_PCD_MspInit+0x10>
 8002cdc:	b003      	add	sp, #12
 8002cde:	bd00      	pop	{pc}
 8002ce0:	4a0a      	ldr	r2, [pc, #40]	; (8002d0c <HAL_PCD_MspInit+0x3c>)
 8002ce2:	69d1      	ldr	r1, [r2, #28]
 8002ce4:	2080      	movs	r0, #128	; 0x80
 8002ce6:	0400      	lsls	r0, r0, #16
 8002ce8:	4301      	orrs	r1, r0
 8002cea:	61d1      	str	r1, [r2, #28]
 8002cec:	69d3      	ldr	r3, [r2, #28]
 8002cee:	4003      	ands	r3, r0
 8002cf0:	9301      	str	r3, [sp, #4]
 8002cf2:	9b01      	ldr	r3, [sp, #4]
 8002cf4:	2200      	movs	r2, #0
 8002cf6:	2100      	movs	r1, #0
 8002cf8:	201f      	movs	r0, #31
 8002cfa:	f7fd fabb 	bl	8000274 <HAL_NVIC_SetPriority>
 8002cfe:	201f      	movs	r0, #31
 8002d00:	f7fd faec 	bl	80002dc <HAL_NVIC_EnableIRQ>
 8002d04:	e7ea      	b.n	8002cdc <HAL_PCD_MspInit+0xc>
 8002d06:	46c0      	nop			; (mov r8, r8)
 8002d08:	40005c00 	.word	0x40005c00
 8002d0c:	40021000 	.word	0x40021000

08002d10 <HAL_PCD_SetupStageCallback>:
 8002d10:	b510      	push	{r4, lr}
 8002d12:	0001      	movs	r1, r0
 8002d14:	31ed      	adds	r1, #237	; 0xed
 8002d16:	31ff      	adds	r1, #255	; 0xff
 8002d18:	2387      	movs	r3, #135	; 0x87
 8002d1a:	009b      	lsls	r3, r3, #2
 8002d1c:	58c0      	ldr	r0, [r0, r3]
 8002d1e:	f7fe ff0b 	bl	8001b38 <USBD_LL_SetupStage>
 8002d22:	bd10      	pop	{r4, pc}

08002d24 <HAL_PCD_DataOutStageCallback>:
 8002d24:	b510      	push	{r4, lr}
 8002d26:	00cb      	lsls	r3, r1, #3
 8002d28:	1a5b      	subs	r3, r3, r1
 8002d2a:	009b      	lsls	r3, r3, #2
 8002d2c:	18c3      	adds	r3, r0, r3
 8002d2e:	3319      	adds	r3, #25
 8002d30:	33ff      	adds	r3, #255	; 0xff
 8002d32:	681a      	ldr	r2, [r3, #0]
 8002d34:	2387      	movs	r3, #135	; 0x87
 8002d36:	009b      	lsls	r3, r3, #2
 8002d38:	58c0      	ldr	r0, [r0, r3]
 8002d3a:	f7fe ff31 	bl	8001ba0 <USBD_LL_DataOutStage>
 8002d3e:	bd10      	pop	{r4, pc}

08002d40 <HAL_PCD_DataInStageCallback>:
 8002d40:	b510      	push	{r4, lr}
 8002d42:	00cb      	lsls	r3, r1, #3
 8002d44:	1a5b      	subs	r3, r3, r1
 8002d46:	009b      	lsls	r3, r3, #2
 8002d48:	18c3      	adds	r3, r0, r3
 8002d4a:	6b9a      	ldr	r2, [r3, #56]	; 0x38
 8002d4c:	2387      	movs	r3, #135	; 0x87
 8002d4e:	009b      	lsls	r3, r3, #2
 8002d50:	58c0      	ldr	r0, [r0, r3]
 8002d52:	f7fe ff61 	bl	8001c18 <USBD_LL_DataInStage>
 8002d56:	bd10      	pop	{r4, pc}

08002d58 <HAL_PCD_SOFCallback>:
 8002d58:	b510      	push	{r4, lr}
 8002d5a:	2387      	movs	r3, #135	; 0x87
 8002d5c:	009b      	lsls	r3, r3, #2
 8002d5e:	58c0      	ldr	r0, [r0, r3]
 8002d60:	f7fe fff3 	bl	8001d4a <USBD_LL_SOF>
 8002d64:	bd10      	pop	{r4, pc}

08002d66 <HAL_PCD_ResetCallback>:
 8002d66:	b570      	push	{r4, r5, r6, lr}
 8002d68:	0004      	movs	r4, r0
 8002d6a:	6883      	ldr	r3, [r0, #8]
 8002d6c:	2b02      	cmp	r3, #2
 8002d6e:	d001      	beq.n	8002d74 <HAL_PCD_ResetCallback+0xe>
 8002d70:	f7ff feaa 	bl	8002ac8 <Error_Handler>
 8002d74:	2587      	movs	r5, #135	; 0x87
 8002d76:	00ad      	lsls	r5, r5, #2
 8002d78:	2101      	movs	r1, #1
 8002d7a:	5960      	ldr	r0, [r4, r5]
 8002d7c:	f7fe ffd0 	bl	8001d20 <USBD_LL_SetSpeed>
 8002d80:	5960      	ldr	r0, [r4, r5]
 8002d82:	f7fe ffaa 	bl	8001cda <USBD_LL_Reset>
 8002d86:	bd70      	pop	{r4, r5, r6, pc}

08002d88 <HAL_PCD_SuspendCallback>:
 8002d88:	b510      	push	{r4, lr}
 8002d8a:	0004      	movs	r4, r0
 8002d8c:	2387      	movs	r3, #135	; 0x87
 8002d8e:	009b      	lsls	r3, r3, #2
 8002d90:	58c0      	ldr	r0, [r0, r3]
 8002d92:	f7fe ffc8 	bl	8001d26 <USBD_LL_Suspend>
 8002d96:	69a3      	ldr	r3, [r4, #24]
 8002d98:	2b00      	cmp	r3, #0
 8002d9a:	d004      	beq.n	8002da6 <HAL_PCD_SuspendCallback+0x1e>
 8002d9c:	4a02      	ldr	r2, [pc, #8]	; (8002da8 <HAL_PCD_SuspendCallback+0x20>)
 8002d9e:	6913      	ldr	r3, [r2, #16]
 8002da0:	2106      	movs	r1, #6
 8002da2:	430b      	orrs	r3, r1
 8002da4:	6113      	str	r3, [r2, #16]
 8002da6:	bd10      	pop	{r4, pc}
 8002da8:	e000ed00 	.word	0xe000ed00

08002dac <HAL_PCD_ResumeCallback>:
 8002dac:	b510      	push	{r4, lr}
 8002dae:	0004      	movs	r4, r0
 8002db0:	6983      	ldr	r3, [r0, #24]
 8002db2:	2b00      	cmp	r3, #0
 8002db4:	d105      	bne.n	8002dc2 <HAL_PCD_ResumeCallback+0x16>
 8002db6:	2387      	movs	r3, #135	; 0x87
 8002db8:	009b      	lsls	r3, r3, #2
 8002dba:	58e0      	ldr	r0, [r4, r3]
 8002dbc:	f7fe ffbe 	bl	8001d3c <USBD_LL_Resume>
 8002dc0:	bd10      	pop	{r4, pc}
 8002dc2:	4a04      	ldr	r2, [pc, #16]	; (8002dd4 <HAL_PCD_ResumeCallback+0x28>)
 8002dc4:	6913      	ldr	r3, [r2, #16]
 8002dc6:	2106      	movs	r1, #6
 8002dc8:	438b      	bics	r3, r1
 8002dca:	6113      	str	r3, [r2, #16]
 8002dcc:	f7ff fbd8 	bl	8002580 <SystemClock_Config>
 8002dd0:	e7f1      	b.n	8002db6 <HAL_PCD_ResumeCallback+0xa>
 8002dd2:	46c0      	nop			; (mov r8, r8)
 8002dd4:	e000ed00 	.word	0xe000ed00

08002dd8 <USBD_LL_Init>:
 8002dd8:	b570      	push	{r4, r5, r6, lr}
 8002dda:	0004      	movs	r4, r0
 8002ddc:	481d      	ldr	r0, [pc, #116]	; (8002e54 <USBD_LL_Init+0x7c>)
 8002dde:	2387      	movs	r3, #135	; 0x87
 8002de0:	009b      	lsls	r3, r3, #2
 8002de2:	50c4      	str	r4, [r0, r3]
 8002de4:	3304      	adds	r3, #4
 8002de6:	50e0      	str	r0, [r4, r3]
 8002de8:	4b1b      	ldr	r3, [pc, #108]	; (8002e58 <USBD_LL_Init+0x80>)
 8002dea:	6003      	str	r3, [r0, #0]
 8002dec:	2308      	movs	r3, #8
 8002dee:	6043      	str	r3, [r0, #4]
 8002df0:	3b06      	subs	r3, #6
 8002df2:	6083      	str	r3, [r0, #8]
 8002df4:	6103      	str	r3, [r0, #16]
 8002df6:	2300      	movs	r3, #0
 8002df8:	6183      	str	r3, [r0, #24]
 8002dfa:	61c3      	str	r3, [r0, #28]
 8002dfc:	6203      	str	r3, [r0, #32]
 8002dfe:	f7fd fb73 	bl	80004e8 <HAL_PCD_Init>
 8002e02:	2800      	cmp	r0, #0
 8002e04:	d123      	bne.n	8002e4e <USBD_LL_Init+0x76>
 8002e06:	2588      	movs	r5, #136	; 0x88
 8002e08:	00ad      	lsls	r5, r5, #2
 8002e0a:	2318      	movs	r3, #24
 8002e0c:	2200      	movs	r2, #0
 8002e0e:	2100      	movs	r1, #0
 8002e10:	5960      	ldr	r0, [r4, r5]
 8002e12:	f7fe fcb3 	bl	800177c <HAL_PCDEx_PMAConfig>
 8002e16:	2358      	movs	r3, #88	; 0x58
 8002e18:	2200      	movs	r2, #0
 8002e1a:	2180      	movs	r1, #128	; 0x80
 8002e1c:	5960      	ldr	r0, [r4, r5]
 8002e1e:	f7fe fcad 	bl	800177c <HAL_PCDEx_PMAConfig>
 8002e22:	23c0      	movs	r3, #192	; 0xc0
 8002e24:	2200      	movs	r2, #0
 8002e26:	2181      	movs	r1, #129	; 0x81
 8002e28:	5960      	ldr	r0, [r4, r5]
 8002e2a:	f7fe fca7 	bl	800177c <HAL_PCDEx_PMAConfig>
 8002e2e:	2388      	movs	r3, #136	; 0x88
 8002e30:	005b      	lsls	r3, r3, #1
 8002e32:	2200      	movs	r2, #0
 8002e34:	2101      	movs	r1, #1
 8002e36:	5960      	ldr	r0, [r4, r5]
 8002e38:	f7fe fca0 	bl	800177c <HAL_PCDEx_PMAConfig>
 8002e3c:	2380      	movs	r3, #128	; 0x80
 8002e3e:	5960      	ldr	r0, [r4, r5]
 8002e40:	005b      	lsls	r3, r3, #1
 8002e42:	2200      	movs	r2, #0
 8002e44:	2182      	movs	r1, #130	; 0x82
 8002e46:	f7fe fc99 	bl	800177c <HAL_PCDEx_PMAConfig>
 8002e4a:	2000      	movs	r0, #0
 8002e4c:	bd70      	pop	{r4, r5, r6, pc}
 8002e4e:	f7ff fe3b 	bl	8002ac8 <Error_Handler>
 8002e52:	e7d8      	b.n	8002e06 <USBD_LL_Init+0x2e>
 8002e54:	20000d1c 	.word	0x20000d1c
 8002e58:	40005c00 	.word	0x40005c00

08002e5c <USBD_LL_Start>:
 8002e5c:	b510      	push	{r4, lr}
 8002e5e:	2388      	movs	r3, #136	; 0x88
 8002e60:	009b      	lsls	r3, r3, #2
 8002e62:	58c0      	ldr	r0, [r0, r3]
 8002e64:	f7fd fb92 	bl	800058c <HAL_PCD_Start>
 8002e68:	f7ff ff28 	bl	8002cbc <USBD_Get_USB_Status>
 8002e6c:	bd10      	pop	{r4, pc}

08002e6e <USBD_LL_OpenEP>:
 8002e6e:	b510      	push	{r4, lr}
 8002e70:	0014      	movs	r4, r2
 8002e72:	001a      	movs	r2, r3
 8002e74:	2388      	movs	r3, #136	; 0x88
 8002e76:	009b      	lsls	r3, r3, #2
 8002e78:	58c0      	ldr	r0, [r0, r3]
 8002e7a:	0023      	movs	r3, r4
 8002e7c:	f7fd fbaa 	bl	80005d4 <HAL_PCD_EP_Open>
 8002e80:	f7ff ff1c 	bl	8002cbc <USBD_Get_USB_Status>
 8002e84:	bd10      	pop	{r4, pc}

08002e86 <USBD_LL_CloseEP>:
 8002e86:	b510      	push	{r4, lr}
 8002e88:	2388      	movs	r3, #136	; 0x88
 8002e8a:	009b      	lsls	r3, r3, #2
 8002e8c:	58c0      	ldr	r0, [r0, r3]
 8002e8e:	f7fd fd4f 	bl	8000930 <HAL_PCD_EP_Close>
 8002e92:	f7ff ff13 	bl	8002cbc <USBD_Get_USB_Status>
 8002e96:	bd10      	pop	{r4, pc}

08002e98 <USBD_LL_StallEP>:
 8002e98:	b510      	push	{r4, lr}
 8002e9a:	2388      	movs	r3, #136	; 0x88
 8002e9c:	009b      	lsls	r3, r3, #2
 8002e9e:	58c0      	ldr	r0, [r0, r3]
 8002ea0:	f7fd ff6c 	bl	8000d7c <HAL_PCD_EP_SetStall>
 8002ea4:	f7ff ff0a 	bl	8002cbc <USBD_Get_USB_Status>
 8002ea8:	bd10      	pop	{r4, pc}

08002eaa <USBD_LL_ClearStallEP>:
 8002eaa:	b510      	push	{r4, lr}
 8002eac:	2388      	movs	r3, #136	; 0x88
 8002eae:	009b      	lsls	r3, r3, #2
 8002eb0:	58c0      	ldr	r0, [r0, r3]
 8002eb2:	f7fd ffcd 	bl	8000e50 <HAL_PCD_EP_ClrStall>
 8002eb6:	f7ff ff01 	bl	8002cbc <USBD_Get_USB_Status>
 8002eba:	bd10      	pop	{r4, pc}

08002ebc <USBD_LL_IsStallEP>:
 8002ebc:	000a      	movs	r2, r1
 8002ebe:	2388      	movs	r3, #136	; 0x88
 8002ec0:	009b      	lsls	r3, r3, #2
 8002ec2:	58c3      	ldr	r3, [r0, r3]
 8002ec4:	b249      	sxtb	r1, r1
 8002ec6:	2900      	cmp	r1, #0
 8002ec8:	db09      	blt.n	8002ede <USBD_LL_IsStallEP+0x22>
 8002eca:	217f      	movs	r1, #127	; 0x7f
 8002ecc:	4011      	ands	r1, r2
 8002ece:	00ca      	lsls	r2, r1, #3
 8002ed0:	1a51      	subs	r1, r2, r1
 8002ed2:	0089      	lsls	r1, r1, #2
 8002ed4:	185b      	adds	r3, r3, r1
 8002ed6:	330b      	adds	r3, #11
 8002ed8:	33ff      	adds	r3, #255	; 0xff
 8002eda:	7818      	ldrb	r0, [r3, #0]
 8002edc:	4770      	bx	lr
 8002ede:	217f      	movs	r1, #127	; 0x7f
 8002ee0:	4011      	ands	r1, r2
 8002ee2:	00c8      	lsls	r0, r1, #3
 8002ee4:	1a41      	subs	r1, r0, r1
 8002ee6:	0089      	lsls	r1, r1, #2
 8002ee8:	185b      	adds	r3, r3, r1
 8002eea:	332a      	adds	r3, #42	; 0x2a
 8002eec:	7818      	ldrb	r0, [r3, #0]
 8002eee:	e7f5      	b.n	8002edc <USBD_LL_IsStallEP+0x20>

08002ef0 <USBD_LL_SetUSBAddress>:
 8002ef0:	b510      	push	{r4, lr}
 8002ef2:	2388      	movs	r3, #136	; 0x88
 8002ef4:	009b      	lsls	r3, r3, #2
 8002ef6:	58c0      	ldr	r0, [r0, r3]
 8002ef8:	f7fd fb51 	bl	800059e <HAL_PCD_SetAddress>
 8002efc:	f7ff fede 	bl	8002cbc <USBD_Get_USB_Status>
 8002f00:	bd10      	pop	{r4, pc}

08002f02 <USBD_LL_Transmit>:
 8002f02:	b510      	push	{r4, lr}
 8002f04:	2488      	movs	r4, #136	; 0x88
 8002f06:	00a4      	lsls	r4, r4, #2
 8002f08:	5900      	ldr	r0, [r0, r4]
 8002f0a:	f7fe f827 	bl	8000f5c <HAL_PCD_EP_Transmit>
 8002f0e:	f7ff fed5 	bl	8002cbc <USBD_Get_USB_Status>
 8002f12:	bd10      	pop	{r4, pc}

08002f14 <USBD_LL_PrepareReceive>:
 8002f14:	b510      	push	{r4, lr}
 8002f16:	2488      	movs	r4, #136	; 0x88
 8002f18:	00a4      	lsls	r4, r4, #2
 8002f1a:	5900      	ldr	r0, [r0, r4]
 8002f1c:	f7fd fdf0 	bl	8000b00 <HAL_PCD_EP_Receive>
 8002f20:	f7ff fecc 	bl	8002cbc <USBD_Get_USB_Status>
 8002f24:	bd10      	pop	{r4, pc}

08002f26 <USBD_LL_GetRxDataSize>:
 8002f26:	b510      	push	{r4, lr}
 8002f28:	2388      	movs	r3, #136	; 0x88
 8002f2a:	009b      	lsls	r3, r3, #2
 8002f2c:	58c0      	ldr	r0, [r0, r3]
 8002f2e:	f7fd ff19 	bl	8000d64 <HAL_PCD_EP_GetRxCount>
 8002f32:	bd10      	pop	{r4, pc}

08002f34 <USBD_static_malloc>:
 8002f34:	4800      	ldr	r0, [pc, #0]	; (8002f38 <USBD_static_malloc+0x4>)
 8002f36:	4770      	bx	lr
 8002f38:	200002ac 	.word	0x200002ac

08002f3c <USBD_static_free>:
 8002f3c:	4770      	bx	lr
	...

08002f40 <USBD_FS_DeviceDescriptor>:
 8002f40:	2312      	movs	r3, #18
 8002f42:	800b      	strh	r3, [r1, #0]
 8002f44:	4800      	ldr	r0, [pc, #0]	; (8002f48 <USBD_FS_DeviceDescriptor+0x8>)
 8002f46:	4770      	bx	lr
 8002f48:	20000140 	.word	0x20000140

08002f4c <USBD_FS_LangIDStrDescriptor>:
 8002f4c:	2304      	movs	r3, #4
 8002f4e:	800b      	strh	r3, [r1, #0]
 8002f50:	4800      	ldr	r0, [pc, #0]	; (8002f54 <USBD_FS_LangIDStrDescriptor+0x8>)
 8002f52:	4770      	bx	lr
 8002f54:	20000154 	.word	0x20000154

08002f58 <USBD_FS_ProductStrDescriptor>:
 8002f58:	2327      	movs	r3, #39	; 0x27
 8002f5a:	800b      	strh	r3, [r1, #0]
 8002f5c:	4800      	ldr	r0, [pc, #0]	; (8002f60 <USBD_FS_ProductStrDescriptor+0x8>)
 8002f5e:	4770      	bx	lr
 8002f60:	080031d8 	.word	0x080031d8

08002f64 <USBD_FS_ManufacturerStrDescriptor>:
 8002f64:	2329      	movs	r3, #41	; 0x29
 8002f66:	800b      	strh	r3, [r1, #0]
 8002f68:	4800      	ldr	r0, [pc, #0]	; (8002f6c <USBD_FS_ManufacturerStrDescriptor+0x8>)
 8002f6a:	4770      	bx	lr
 8002f6c:	080031ac 	.word	0x080031ac

08002f70 <USBD_FS_ConfigStrDescriptor>:
 8002f70:	2317      	movs	r3, #23
 8002f72:	800b      	strh	r3, [r1, #0]
 8002f74:	4800      	ldr	r0, [pc, #0]	; (8002f78 <USBD_FS_ConfigStrDescriptor+0x8>)
 8002f76:	4770      	bx	lr
 8002f78:	08003174 	.word	0x08003174

08002f7c <USBD_FS_InterfaceStrDescriptor>:
 8002f7c:	231d      	movs	r3, #29
 8002f7e:	800b      	strh	r3, [r1, #0]
 8002f80:	4800      	ldr	r0, [pc, #0]	; (8002f84 <USBD_FS_InterfaceStrDescriptor+0x8>)
 8002f82:	4770      	bx	lr
 8002f84:	0800318c 	.word	0x0800318c

08002f88 <IntToUnicode>:
 8002f88:	b530      	push	{r4, r5, lr}
 8002f8a:	0052      	lsls	r2, r2, #1
 8002f8c:	d010      	beq.n	8002fb0 <IntToUnicode+0x28>
 8002f8e:	2400      	movs	r4, #0
 8002f90:	2500      	movs	r5, #0
 8002f92:	e007      	b.n	8002fa4 <IntToUnicode+0x1c>
 8002f94:	3337      	adds	r3, #55	; 0x37
 8002f96:	700b      	strb	r3, [r1, #0]
 8002f98:	704d      	strb	r5, [r1, #1]
 8002f9a:	0100      	lsls	r0, r0, #4
 8002f9c:	3402      	adds	r4, #2
 8002f9e:	3102      	adds	r1, #2
 8002fa0:	4294      	cmp	r4, r2
 8002fa2:	d205      	bcs.n	8002fb0 <IntToUnicode+0x28>
 8002fa4:	0f03      	lsrs	r3, r0, #28
 8002fa6:	2b09      	cmp	r3, #9
 8002fa8:	d8f4      	bhi.n	8002f94 <IntToUnicode+0xc>
 8002faa:	3330      	adds	r3, #48	; 0x30
 8002fac:	700b      	strb	r3, [r1, #0]
 8002fae:	e7f3      	b.n	8002f98 <IntToUnicode+0x10>
 8002fb0:	bd30      	pop	{r4, r5, pc}
	...

08002fb4 <USBD_FS_SerialStrDescriptor>:
 8002fb4:	b570      	push	{r4, r5, r6, lr}
 8002fb6:	231a      	movs	r3, #26
 8002fb8:	800b      	strh	r3, [r1, #0]
 8002fba:	4b0b      	ldr	r3, [pc, #44]	; (8002fe8 <USBD_FS_SerialStrDescriptor+0x34>)
 8002fbc:	6818      	ldr	r0, [r3, #0]
 8002fbe:	4b0b      	ldr	r3, [pc, #44]	; (8002fec <USBD_FS_SerialStrDescriptor+0x38>)
 8002fc0:	681b      	ldr	r3, [r3, #0]
 8002fc2:	18c0      	adds	r0, r0, r3
 8002fc4:	2800      	cmp	r0, #0
 8002fc6:	d101      	bne.n	8002fcc <USBD_FS_SerialStrDescriptor+0x18>
 8002fc8:	4809      	ldr	r0, [pc, #36]	; (8002ff0 <USBD_FS_SerialStrDescriptor+0x3c>)
 8002fca:	bd70      	pop	{r4, r5, r6, pc}
 8002fcc:	4b09      	ldr	r3, [pc, #36]	; (8002ff4 <USBD_FS_SerialStrDescriptor+0x40>)
 8002fce:	681d      	ldr	r5, [r3, #0]
 8002fd0:	4c07      	ldr	r4, [pc, #28]	; (8002ff0 <USBD_FS_SerialStrDescriptor+0x3c>)
 8002fd2:	1ca1      	adds	r1, r4, #2
 8002fd4:	2208      	movs	r2, #8
 8002fd6:	f7ff ffd7 	bl	8002f88 <IntToUnicode>
 8002fda:	0021      	movs	r1, r4
 8002fdc:	3112      	adds	r1, #18
 8002fde:	2204      	movs	r2, #4
 8002fe0:	0028      	movs	r0, r5
 8002fe2:	f7ff ffd1 	bl	8002f88 <IntToUnicode>
 8002fe6:	e7ef      	b.n	8002fc8 <USBD_FS_SerialStrDescriptor+0x14>
 8002fe8:	1ffff7ac 	.word	0x1ffff7ac
 8002fec:	1ffff7b4 	.word	0x1ffff7b4
 8002ff0:	20000158 	.word	0x20000158
 8002ff4:	1ffff7b0 	.word	0x1ffff7b0

08002ff8 <Reset_Handler>:
 8002ff8:	4813      	ldr	r0, [pc, #76]	; (8003048 <LoopForever+0x2>)
 8002ffa:	4685      	mov	sp, r0
 8002ffc:	4813      	ldr	r0, [pc, #76]	; (800304c <LoopForever+0x6>)
 8002ffe:	6801      	ldr	r1, [r0, #0]
 8003000:	0e09      	lsrs	r1, r1, #24
 8003002:	4a13      	ldr	r2, [pc, #76]	; (8003050 <LoopForever+0xa>)
 8003004:	4291      	cmp	r1, r2
 8003006:	d105      	bne.n	8003014 <ApplicationStart>
 8003008:	4812      	ldr	r0, [pc, #72]	; (8003054 <LoopForever+0xe>)
 800300a:	4913      	ldr	r1, [pc, #76]	; (8003058 <LoopForever+0x12>)
 800300c:	6001      	str	r1, [r0, #0]
 800300e:	4813      	ldr	r0, [pc, #76]	; (800305c <LoopForever+0x16>)
 8003010:	4913      	ldr	r1, [pc, #76]	; (8003060 <LoopForever+0x1a>)
 8003012:	6001      	str	r1, [r0, #0]

08003014 <ApplicationStart>:
 8003014:	4813      	ldr	r0, [pc, #76]	; (8003064 <LoopForever+0x1e>)
 8003016:	4914      	ldr	r1, [pc, #80]	; (8003068 <LoopForever+0x22>)
 8003018:	4a14      	ldr	r2, [pc, #80]	; (800306c <LoopForever+0x26>)
 800301a:	2300      	movs	r3, #0
 800301c:	e002      	b.n	8003024 <LoopCopyDataInit>

0800301e <CopyDataInit>:
 800301e:	58d4      	ldr	r4, [r2, r3]
 8003020:	50c4      	str	r4, [r0, r3]
 8003022:	3304      	adds	r3, #4

08003024 <LoopCopyDataInit>:
 8003024:	18c4      	adds	r4, r0, r3
 8003026:	428c      	cmp	r4, r1
 8003028:	d3f9      	bcc.n	800301e <CopyDataInit>
 800302a:	4a11      	ldr	r2, [pc, #68]	; (8003070 <LoopForever+0x2a>)
 800302c:	4c11      	ldr	r4, [pc, #68]	; (8003074 <LoopForever+0x2e>)
 800302e:	2300      	movs	r3, #0
 8003030:	e001      	b.n	8003036 <LoopFillZerobss>

08003032 <FillZerobss>:
 8003032:	6013      	str	r3, [r2, #0]
 8003034:	3204      	adds	r2, #4

08003036 <LoopFillZerobss>:
 8003036:	42a2      	cmp	r2, r4
 8003038:	d3fb      	bcc.n	8003032 <FillZerobss>
 800303a:	f7ff fd75 	bl	8002b28 <SystemInit>
 800303e:	f000 f81d 	bl	800307c <__libc_init_array>
 8003042:	f7ff fafb 	bl	800263c <main>

08003046 <LoopForever>:
 8003046:	e7fe      	b.n	8003046 <LoopForever>
 8003048:	200017ff 	.word	0x200017ff
 800304c:	00000004 	.word	0x00000004
 8003050:	0000001f 	.word	0x0000001f
 8003054:	40021018 	.word	0x40021018
 8003058:	00000001 	.word	0x00000001
 800305c:	40010000 	.word	0x40010000
 8003060:	00000000 	.word	0x00000000
 8003064:	20000000 	.word	0x20000000
 8003068:	20000174 	.word	0x20000174
 800306c:	08003208 	.word	0x08003208
 8003070:	20000174 	.word	0x20000174
 8003074:	20000f3c 	.word	0x20000f3c

08003078 <ADC1_IRQHandler>:
 8003078:	e7fe      	b.n	8003078 <ADC1_IRQHandler>
	...

0800307c <__libc_init_array>:
 800307c:	b570      	push	{r4, r5, r6, lr}
 800307e:	2600      	movs	r6, #0
 8003080:	4d0c      	ldr	r5, [pc, #48]	; (80030b4 <__libc_init_array+0x38>)
 8003082:	4c0d      	ldr	r4, [pc, #52]	; (80030b8 <__libc_init_array+0x3c>)
 8003084:	1b64      	subs	r4, r4, r5
 8003086:	10a4      	asrs	r4, r4, #2
 8003088:	42a6      	cmp	r6, r4
 800308a:	d109      	bne.n	80030a0 <__libc_init_array+0x24>
 800308c:	2600      	movs	r6, #0
 800308e:	f000 f819 	bl	80030c4 <_init>
 8003092:	4d0a      	ldr	r5, [pc, #40]	; (80030bc <__libc_init_array+0x40>)
 8003094:	4c0a      	ldr	r4, [pc, #40]	; (80030c0 <__libc_init_array+0x44>)
 8003096:	1b64      	subs	r4, r4, r5
 8003098:	10a4      	asrs	r4, r4, #2
 800309a:	42a6      	cmp	r6, r4
 800309c:	d105      	bne.n	80030aa <__libc_init_array+0x2e>
 800309e:	bd70      	pop	{r4, r5, r6, pc}
 80030a0:	00b3      	lsls	r3, r6, #2
 80030a2:	58eb      	ldr	r3, [r5, r3]
 80030a4:	4798      	blx	r3
 80030a6:	3601      	adds	r6, #1
 80030a8:	e7ee      	b.n	8003088 <__libc_init_array+0xc>
 80030aa:	00b3      	lsls	r3, r6, #2
 80030ac:	58eb      	ldr	r3, [r5, r3]
 80030ae:	4798      	blx	r3
 80030b0:	3601      	adds	r6, #1
 80030b2:	e7f2      	b.n	800309a <__libc_init_array+0x1e>
 80030b4:	08003200 	.word	0x08003200
 80030b8:	08003200 	.word	0x08003200
 80030bc:	08003200 	.word	0x08003200
 80030c0:	08003204 	.word	0x08003204

080030c4 <_init>:
 80030c4:	b5f8      	push	{r3, r4, r5, r6, r7, lr}
 80030c6:	46c0      	nop			; (mov r8, r8)
 80030c8:	bcf8      	pop	{r3, r4, r5, r6, r7}
 80030ca:	bc08      	pop	{r3}
 80030cc:	469e      	mov	lr, r3
 80030ce:	4770      	bx	lr

080030d0 <_fini>:
 80030d0:	b5f8      	push	{r3, r4, r5, r6, r7, lr}
 80030d2:	46c0      	nop			; (mov r8, r8)
 80030d4:	bcf8      	pop	{r3, r4, r5, r6, r7}
 80030d6:	bc08      	pop	{r3}
 80030d8:	469e      	mov	lr, r3
 80030da:	4770      	bx	lr
